
Rom.bin:     file format binary


Disassembly of section .data:

01000000 <.data>:
 1000000:	1000      	asrs	r0, r0, #32
 1000002:	2000      	movs	r0, #0
 1000004:	0e5d      	lsrs	r5, r3, #25
 1000006:	0100      	lsls	r0, r0, #4
 1000008:	0ef5      	lsrs	r5, r6, #27
 100000a:	0100      	lsls	r0, r0, #4
 100000c:	0f43      	lsrs	r3, r0, #29
 100000e:	0100      	lsls	r0, r0, #4
 1000010:	026e      	lsls	r6, r5, #9
 1000012:	0000      	movs	r0, r0
 1000014:	0b20      	lsrs	r0, r4, #12
 1000016:	0100      	lsls	r0, r0, #4
 1000018:	08f0      	lsrs	r0, r6, #3
 100001a:	0100      	lsls	r0, r0, #4
 100001c:	04b0      	lsls	r0, r6, #18
 100001e:	0100      	lsls	r0, r0, #4
 1000020:	0330      	lsls	r0, r6, #12
 1000022:	0100      	lsls	r0, r0, #4
 1000024:	0110      	lsls	r0, r2, #4
 1000026:	0100      	lsls	r0, r0, #4
 1000028:	01f0      	lsls	r0, r6, #7
 100002a:	0100      	lsls	r0, r0, #4
 100002c:	02c0      	lsls	r0, r0, #11
 100002e:	0100      	lsls	r0, r0, #4
 1000030:	0720      	lsls	r0, r4, #28
 1000032:	0100      	lsls	r0, r0, #4
 1000034:	07a0      	lsls	r0, r4, #30
 1000036:	0100      	lsls	r0, r0, #4
 1000038:	0a60      	lsrs	r0, r4, #9
 100003a:	0100      	lsls	r0, r0, #4
 100003c:	0a90      	lsrs	r0, r2, #10
 100003e:	0100      	lsls	r0, r0, #4
 1000040:	0d40      	lsrs	r0, r0, #21
 1000042:	0100      	lsls	r0, r0, #4
 1000044:	0960      	lsrs	r0, r4, #5
 1000046:	0100      	lsls	r0, r0, #4
 1000048:	05a0      	lsls	r0, r4, #22
 100004a:	0100      	lsls	r0, r0, #4
 100004c:	fffd ffff 			; <UNDEFINED> instruction: 0xfffdffff
 1000050:	0c30      	lsrs	r0, r6, #16
 1000052:	0100      	lsls	r0, r0, #4
 1000054:	0bc0      	lsrs	r0, r0, #15
 1000056:	0100      	lsls	r0, r0, #4
 1000058:	01a0      	lsls	r0, r4, #6
 100005a:	0100      	lsls	r0, r0, #4
 100005c:	0420      	lsls	r0, r4, #16
 100005e:	0100      	lsls	r0, r0, #4
 1000060:	0680      	lsls	r0, r0, #26
 1000062:	0100      	lsls	r0, r0, #4
 1000064:	7c68      	ldrb	r0, [r5, #17]
 1000066:	0100      	lsls	r0, r0, #4
 1000068:	fffd ffff 			; <UNDEFINED> instruction: 0xfffdffff
 100006c:	fffd ffff 			; <UNDEFINED> instruction: 0xfffdffff
 1000070:	0220      	lsls	r0, r4, #8
 1000072:	0100      	lsls	r0, r0, #4
 1000074:	0270      	lsls	r0, r6, #9
 1000076:	0100      	lsls	r0, r0, #4
 1000078:	0300      	lsls	r0, r0, #12
 100007a:	0100      	lsls	r0, r0, #4
 100007c:	05e0      	lsls	r0, r4, #23
 100007e:	0100      	lsls	r0, r0, #4
 1000080:	06b0      	lsls	r0, r6, #26
 1000082:	0100      	lsls	r0, r0, #4
 1000084:	07f0      	lsls	r0, r6, #31
 1000086:	0100      	lsls	r0, r0, #4
 1000088:	0a40      	lsrs	r0, r0, #9
 100008a:	0100      	lsls	r0, r0, #4
 100008c:	fffd ffff 			; <UNDEFINED> instruction: 0xfffdffff
 1000090:	fffd ffff 			; <UNDEFINED> instruction: 0xfffdffff
 1000094:	fffd ffff 			; <UNDEFINED> instruction: 0xfffdffff
 1000098:	fffd ffff 			; <UNDEFINED> instruction: 0xfffdffff
 100009c:	fffd ffff 			; <UNDEFINED> instruction: 0xfffdffff
 10000a0:	fffd ffff 			; <UNDEFINED> instruction: 0xfffdffff
 10000a4:	fffd ffff 			; <UNDEFINED> instruction: 0xfffdffff
 10000a8:	fffd ffff 			; <UNDEFINED> instruction: 0xfffdffff
 10000ac:	fffd ffff 			; <UNDEFINED> instruction: 0xfffdffff
 10000b0:	fffd ffff 			; <UNDEFINED> instruction: 0xfffdffff
 10000b4:	fffd ffff 			; <UNDEFINED> instruction: 0xfffdffff
 10000b8:	fffd ffff 			; <UNDEFINED> instruction: 0xfffdffff
 10000bc:	fffd ffff 			; <UNDEFINED> instruction: 0xfffdffff
 10000c0:	6f43      	ldr	r3, [r0, #116]	; 0x74
 10000c2:	7970      	ldrb	r0, [r6, #5]
 10000c4:	6972      	ldr	r2, [r6, #20]
 10000c6:	6867      	ldr	r7, [r4, #4]
 10000c8:	2074      	movs	r0, #116	; 0x74
 10000ca:	6328      	str	r0, [r5, #48]	; 0x30
 10000cc:	2029      	movs	r0, #41	; 0x29
 10000ce:	3032      	adds	r0, #50	; 0x32
 10000d0:	3530      	adds	r5, #48	; 0x30
 10000d2:	322d      	adds	r2, #45	; 0x2d
 10000d4:	3130      	adds	r1, #48	; 0x30
 10000d6:	2032      	movs	r0, #50	; 0x32
 10000d8:	6554      	str	r4, [r2, #84]	; 0x54
 10000da:	6178      	str	r0, [r7, #20]
 10000dc:	2073      	movs	r0, #115	; 0x73
 10000de:	6e49      	ldr	r1, [r1, #100]	; 0x64
 10000e0:	7473      	strb	r3, [r6, #17]
 10000e2:	7572      	strb	r2, [r6, #21]
 10000e4:	656d      	str	r5, [r5, #84]	; 0x54
 10000e6:	746e      	strb	r6, [r5, #17]
 10000e8:	2073      	movs	r0, #115	; 0x73
 10000ea:	6e49      	ldr	r1, [r1, #100]	; 0x64
 10000ec:	6f63      	ldr	r3, [r4, #116]	; 0x74
 10000ee:	7072      	strb	r2, [r6, #1]
 10000f0:	726f      	strb	r7, [r5, #9]
 10000f2:	7461      	strb	r1, [r4, #17]
 10000f4:	6465      	str	r5, [r4, #68]	; 0x44
 10000f6:	202e      	movs	r0, #46	; 0x2e
 10000f8:	4120      	asrs	r0, r4
 10000fa:	6c6c      	ldr	r4, [r5, #68]	; 0x44
 10000fc:	7220      	strb	r0, [r4, #8]
 10000fe:	6769      	str	r1, [r5, #116]	; 0x74
 1000100:	7468      	strb	r0, [r5, #17]
 1000102:	2073      	movs	r0, #115	; 0x73
 1000104:	6572      	str	r2, [r6, #84]	; 0x54
 1000106:	6573      	str	r3, [r6, #84]	; 0x54
 1000108:	7672      	strb	r2, [r6, #25]
 100010a:	6465      	str	r5, [r4, #68]	; 0x44
 100010c:	002e      	movs	r6, r5
 100010e:	0000      	movs	r0, r0
 1000110:	118b      	asrs	r3, r1, #6
 1000112:	0100      	lsls	r0, r0, #4
 1000114:	102d      	asrs	r5, r5, #32
 1000116:	0100      	lsls	r0, r0, #4
 1000118:	103d      	asrs	r5, r7, #32
 100011a:	0100      	lsls	r0, r0, #4
 100011c:	104d      	asrs	r5, r1, #1
 100011e:	0100      	lsls	r0, r0, #4
 1000120:	1081      	asrs	r1, r0, #2
 1000122:	0100      	lsls	r0, r0, #4
 1000124:	108b      	asrs	r3, r1, #2
 1000126:	0100      	lsls	r0, r0, #4
 1000128:	1099      	asrs	r1, r3, #2
 100012a:	0100      	lsls	r0, r0, #4
 100012c:	10a9      	asrs	r1, r5, #2
 100012e:	0100      	lsls	r0, r0, #4
 1000130:	10db      	asrs	r3, r3, #3
 1000132:	0100      	lsls	r0, r0, #4
 1000134:	115f      	asrs	r7, r3, #5
 1000136:	0100      	lsls	r0, r0, #4
 1000138:	116b      	asrs	r3, r5, #5
 100013a:	0100      	lsls	r0, r0, #4
 100013c:	1175      	asrs	r5, r6, #5
 100013e:	0100      	lsls	r0, r0, #4
 1000140:	1181      	asrs	r1, r0, #6
 1000142:	0100      	lsls	r0, r0, #4
 1000144:	11af      	asrs	r7, r5, #6
 1000146:	0100      	lsls	r0, r0, #4
 1000148:	11cf      	asrs	r7, r1, #7
 100014a:	0100      	lsls	r0, r0, #4
 100014c:	11dd      	asrs	r5, r3, #7
 100014e:	0100      	lsls	r0, r0, #4
 1000150:	11e7      	asrs	r7, r4, #7
 1000152:	0100      	lsls	r0, r0, #4
 1000154:	11f5      	asrs	r5, r6, #7
 1000156:	0100      	lsls	r0, r0, #4
 1000158:	121d      	asrs	r5, r3, #8
 100015a:	0100      	lsls	r0, r0, #4
 100015c:	122f      	asrs	r7, r5, #8
 100015e:	0100      	lsls	r0, r0, #4
 1000160:	123f      	asrs	r7, r7, #8
 1000162:	0100      	lsls	r0, r0, #4
 1000164:	1243      	asrs	r3, r0, #9
 1000166:	0100      	lsls	r0, r0, #4
 1000168:	1247      	asrs	r7, r0, #9
 100016a:	0100      	lsls	r0, r0, #4
 100016c:	1253      	asrs	r3, r2, #9
 100016e:	0100      	lsls	r0, r0, #4
 1000170:	125b      	asrs	r3, r3, #9
 1000172:	0100      	lsls	r0, r0, #4
 1000174:	125f      	asrs	r7, r3, #9
 1000176:	0100      	lsls	r0, r0, #4
 1000178:	1263      	asrs	r3, r4, #9
 100017a:	0100      	lsls	r0, r0, #4
 100017c:	126f      	asrs	r7, r5, #9
 100017e:	0100      	lsls	r0, r0, #4
 1000180:	fffd ffff 			; <UNDEFINED> instruction: 0xfffdffff
 1000184:	fffd ffff 			; <UNDEFINED> instruction: 0xfffdffff
 1000188:	fffd ffff 			; <UNDEFINED> instruction: 0xfffdffff
 100018c:	fffd ffff 			; <UNDEFINED> instruction: 0xfffdffff
 1000190:	fffd ffff 			; <UNDEFINED> instruction: 0xfffdffff
 1000194:	fffd ffff 			; <UNDEFINED> instruction: 0xfffdffff
 1000198:	fffd ffff 			; <UNDEFINED> instruction: 0xfffdffff
 100019c:	fffd ffff 			; <UNDEFINED> instruction: 0xfffdffff
 10001a0:	16cb      	asrs	r3, r1, #27
 10001a2:	0100      	lsls	r0, r0, #4
 10001a4:	12c7      	asrs	r7, r0, #11
 10001a6:	0100      	lsls	r0, r0, #4
 10001a8:	1309      	asrs	r1, r1, #12
 10001aa:	0100      	lsls	r0, r0, #4
 10001ac:	1313      	asrs	r3, r2, #12
 10001ae:	0100      	lsls	r0, r0, #4
 10001b0:	131d      	asrs	r5, r3, #12
 10001b2:	0100      	lsls	r0, r0, #4
 10001b4:	1387      	asrs	r7, r0, #14
 10001b6:	0100      	lsls	r0, r0, #4
 10001b8:	13b1      	asrs	r1, r6, #14
 10001ba:	0100      	lsls	r0, r0, #4
 10001bc:	14f5      	asrs	r5, r6, #19
 10001be:	0100      	lsls	r0, r0, #4
 10001c0:	165b      	asrs	r3, r3, #25
 10001c2:	0100      	lsls	r0, r0, #4
 10001c4:	169f      	asrs	r7, r3, #26
 10001c6:	0100      	lsls	r0, r0, #4
 10001c8:	16b9      	asrs	r1, r7, #26
 10001ca:	0100      	lsls	r0, r0, #4
 10001cc:	16c1      	asrs	r1, r0, #27
 10001ce:	0100      	lsls	r0, r0, #4
 10001d0:	16f1      	asrs	r1, r6, #27
 10001d2:	0100      	lsls	r0, r0, #4
 10001d4:	1711      	asrs	r1, r2, #28
 10001d6:	0100      	lsls	r0, r0, #4
 10001d8:	171f      	asrs	r7, r3, #28
 10001da:	0100      	lsls	r0, r0, #4
 10001dc:	1731      	asrs	r1, r6, #28
 10001de:	0100      	lsls	r0, r0, #4
 10001e0:	1747      	asrs	r7, r0, #29
 10001e2:	0100      	lsls	r0, r0, #4
 10001e4:	fffd ffff 			; <UNDEFINED> instruction: 0xfffdffff
 10001e8:	fffd ffff 			; <UNDEFINED> instruction: 0xfffdffff
 10001ec:	fffd ffff 			; <UNDEFINED> instruction: 0xfffdffff
 10001f0:	17ff      	asrs	r7, r7, #31
 10001f2:	0100      	lsls	r0, r0, #4
 10001f4:	17b3      	asrs	r3, r6, #30
 10001f6:	0100      	lsls	r0, r0, #4
 10001f8:	17bb      	asrs	r3, r7, #30
 10001fa:	0100      	lsls	r0, r0, #4
 10001fc:	17bf      	asrs	r7, r7, #30
 10001fe:	0100      	lsls	r0, r0, #4
 1000200:	17cf      	asrs	r7, r1, #31
 1000202:	0100      	lsls	r0, r0, #4
 1000204:	17dd      	asrs	r5, r3, #31
 1000206:	0100      	lsls	r0, r0, #4
 1000208:	17ed      	asrs	r5, r5, #31
 100020a:	0100      	lsls	r0, r0, #4
 100020c:	fffd ffff 			; <UNDEFINED> instruction: 0xfffdffff
 1000210:	fffd ffff 			; <UNDEFINED> instruction: 0xfffdffff
 1000214:	fffd ffff 			; <UNDEFINED> instruction: 0xfffdffff
 1000218:	fffd ffff 			; <UNDEFINED> instruction: 0xfffdffff
 100021c:	fffd ffff 			; <UNDEFINED> instruction: 0xfffdffff
 1000220:	1c45      	adds	r5, r0, #1
 1000222:	0100      	lsls	r0, r0, #4
 1000224:	1a2d      	subs	r5, r5, r0
 1000226:	0100      	lsls	r0, r0, #4
 1000228:	1a37      	subs	r7, r6, r0
 100022a:	0100      	lsls	r0, r0, #4
 100022c:	1a43      	subs	r3, r0, r1
 100022e:	0100      	lsls	r0, r0, #4
 1000230:	1a51      	subs	r1, r2, r1
 1000232:	0100      	lsls	r0, r0, #4
 1000234:	1a75      	subs	r5, r6, r1
 1000236:	0100      	lsls	r0, r0, #4
 1000238:	1a7d      	subs	r5, r7, r1
 100023a:	0100      	lsls	r0, r0, #4
 100023c:	1a8f      	subs	r7, r1, r2
 100023e:	0100      	lsls	r0, r0, #4
 1000240:	1b75      	subs	r5, r6, r5
 1000242:	0100      	lsls	r0, r0, #4
 1000244:	1b7d      	subs	r5, r7, r5
 1000246:	0100      	lsls	r0, r0, #4
 1000248:	1b93      	subs	r3, r2, r6
 100024a:	0100      	lsls	r0, r0, #4
 100024c:	1ba9      	subs	r1, r5, r6
 100024e:	0100      	lsls	r0, r0, #4
 1000250:	1bcb      	subs	r3, r1, r7
 1000252:	0100      	lsls	r0, r0, #4
 1000254:	1beb      	subs	r3, r5, r7
 1000256:	0100      	lsls	r0, r0, #4
 1000258:	1c33      	adds	r3, r6, #0
 100025a:	0100      	lsls	r0, r0, #4
 100025c:	1c73      	adds	r3, r6, #1
 100025e:	0100      	lsls	r0, r0, #4
 1000260:	1c7d      	adds	r5, r7, #1
 1000262:	0100      	lsls	r0, r0, #4
 1000264:	1b1d      	subs	r5, r3, r4
 1000266:	0100      	lsls	r0, r0, #4
 1000268:	fffd ffff 			; <UNDEFINED> instruction: 0xfffdffff
 100026c:	fffd ffff 			; <UNDEFINED> instruction: 0xfffdffff
 1000270:	1d01      	adds	r1, r0, #4
 1000272:	0100      	lsls	r0, r0, #4
 1000274:	1c83      	adds	r3, r0, #2
 1000276:	0100      	lsls	r0, r0, #4
 1000278:	1c8f      	adds	r7, r1, #2
 100027a:	0100      	lsls	r0, r0, #4
 100027c:	1c9b      	adds	r3, r3, #2
 100027e:	0100      	lsls	r0, r0, #4
 1000280:	1cab      	adds	r3, r5, #2
 1000282:	0100      	lsls	r0, r0, #4
 1000284:	1cb9      	adds	r1, r7, #2
 1000286:	0100      	lsls	r0, r0, #4
 1000288:	1cc9      	adds	r1, r1, #3
 100028a:	0100      	lsls	r0, r0, #4
 100028c:	1cd7      	adds	r7, r2, #3
 100028e:	0100      	lsls	r0, r0, #4
 1000290:	1ce3      	adds	r3, r4, #3
 1000292:	0100      	lsls	r0, r0, #4
 1000294:	1ceb      	adds	r3, r5, #3
 1000296:	0100      	lsls	r0, r0, #4
 1000298:	1cf7      	adds	r7, r6, #3
 100029a:	0100      	lsls	r0, r0, #4
 100029c:	1d07      	adds	r7, r0, #4
 100029e:	0100      	lsls	r0, r0, #4
 10002a0:	1d15      	adds	r5, r2, #4
 10002a2:	0100      	lsls	r0, r0, #4
 10002a4:	1d21      	adds	r1, r4, #4
 10002a6:	0100      	lsls	r0, r0, #4
 10002a8:	fffd ffff 			; <UNDEFINED> instruction: 0xfffdffff
 10002ac:	fffd ffff 			; <UNDEFINED> instruction: 0xfffdffff
 10002b0:	fffd ffff 			; <UNDEFINED> instruction: 0xfffdffff
 10002b4:	fffd ffff 			; <UNDEFINED> instruction: 0xfffdffff
 10002b8:	fffd ffff 			; <UNDEFINED> instruction: 0xfffdffff
 10002bc:	fffd ffff 			; <UNDEFINED> instruction: 0xfffdffff
 10002c0:	1d63      	adds	r3, r4, #5
 10002c2:	0100      	lsls	r0, r0, #4
 10002c4:	1d2f      	adds	r7, r5, #4
 10002c6:	0100      	lsls	r0, r0, #4
 10002c8:	1d39      	adds	r1, r7, #4
 10002ca:	0100      	lsls	r0, r0, #4
 10002cc:	1d41      	adds	r1, r0, #5
 10002ce:	0100      	lsls	r0, r0, #4
 10002d0:	1dc3      	adds	r3, r0, #7
 10002d2:	0100      	lsls	r0, r0, #4
 10002d4:	1dfd      	adds	r5, r7, #7
 10002d6:	0100      	lsls	r0, r0, #4
 10002d8:	1e71      	subs	r1, r6, #1
 10002da:	0100      	lsls	r0, r0, #4
 10002dc:	1e93      	subs	r3, r2, #2
 10002de:	0100      	lsls	r0, r0, #4
 10002e0:	1ea3      	subs	r3, r4, #2
 10002e2:	0100      	lsls	r0, r0, #4
 10002e4:	1eaf      	subs	r7, r5, #2
 10002e6:	0100      	lsls	r0, r0, #4
 10002e8:	1ed5      	subs	r5, r2, #3
 10002ea:	0100      	lsls	r0, r0, #4
 10002ec:	1edf      	subs	r7, r3, #3
 10002ee:	0100      	lsls	r0, r0, #4
 10002f0:	1eeb      	subs	r3, r5, #3
 10002f2:	0100      	lsls	r0, r0, #4
 10002f4:	1ef7      	subs	r7, r6, #3
 10002f6:	0100      	lsls	r0, r0, #4
 10002f8:	fffd ffff 			; <UNDEFINED> instruction: 0xfffdffff
 10002fc:	fffd ffff 			; <UNDEFINED> instruction: 0xfffdffff
 1000300:	1f09      	subs	r1, r1, #4
 1000302:	0100      	lsls	r0, r0, #4
 1000304:	1efd      	subs	r5, r7, #3
 1000306:	0100      	lsls	r0, r0, #4
 1000308:	1f15      	subs	r5, r2, #4
 100030a:	0100      	lsls	r0, r0, #4
 100030c:	1f25      	subs	r5, r4, #4
 100030e:	0100      	lsls	r0, r0, #4
 1000310:	1f35      	subs	r5, r6, #4
 1000312:	0100      	lsls	r0, r0, #4
 1000314:	1f41      	subs	r1, r0, #5
 1000316:	0100      	lsls	r0, r0, #4
 1000318:	1f51      	subs	r1, r2, #5
 100031a:	0100      	lsls	r0, r0, #4
 100031c:	1fa5      	subs	r5, r4, #6
 100031e:	0100      	lsls	r0, r0, #4
 1000320:	1fb1      	subs	r1, r6, #6
 1000322:	0100      	lsls	r0, r0, #4
 1000324:	fffd ffff 			; <UNDEFINED> instruction: 0xfffdffff
 1000328:	fffd ffff 			; <UNDEFINED> instruction: 0xfffdffff
 100032c:	fffd ffff 			; <UNDEFINED> instruction: 0xfffdffff
 1000330:	2453      	movs	r4, #83	; 0x53
 1000332:	0100      	lsls	r0, r0, #4
 1000334:	1ffd      	subs	r5, r7, #7
 1000336:	0100      	lsls	r0, r0, #4
 1000338:	1fdb      	subs	r3, r3, #7
 100033a:	0100      	lsls	r0, r0, #4
 100033c:	206f      	movs	r0, #111	; 0x6f
 100033e:	0100      	lsls	r0, r0, #4
 1000340:	203f      	movs	r0, #63	; 0x3f
 1000342:	0100      	lsls	r0, r0, #4
 1000344:	2135      	movs	r1, #53	; 0x35
 1000346:	0100      	lsls	r0, r0, #4
 1000348:	20a9      	movs	r0, #169	; 0xa9
 100034a:	0100      	lsls	r0, r0, #4
 100034c:	2237      	movs	r2, #55	; 0x37
 100034e:	0100      	lsls	r0, r0, #4
 1000350:	2229      	movs	r2, #41	; 0x29
 1000352:	0100      	lsls	r0, r0, #4
 1000354:	2243      	movs	r2, #67	; 0x43
 1000356:	0100      	lsls	r0, r0, #4
 1000358:	2223      	movs	r2, #35	; 0x23
 100035a:	0100      	lsls	r0, r0, #4
 100035c:	2251      	movs	r2, #81	; 0x51
 100035e:	0100      	lsls	r0, r0, #4
 1000360:	2271      	movs	r2, #113	; 0x71
 1000362:	0100      	lsls	r0, r0, #4
 1000364:	228b      	movs	r2, #139	; 0x8b
 1000366:	0100      	lsls	r0, r0, #4
 1000368:	22bf      	movs	r2, #191	; 0xbf
 100036a:	0100      	lsls	r0, r0, #4
 100036c:	22d9      	movs	r2, #217	; 0xd9
 100036e:	0100      	lsls	r0, r0, #4
 1000370:	230d      	movs	r3, #13
 1000372:	0100      	lsls	r0, r0, #4
 1000374:	239d      	movs	r3, #157	; 0x9d
 1000376:	0100      	lsls	r0, r0, #4
 1000378:	23b7      	movs	r3, #183	; 0xb7
 100037a:	0100      	lsls	r0, r0, #4
 100037c:	23d1      	movs	r3, #209	; 0xd1
 100037e:	0100      	lsls	r0, r0, #4
 1000380:	23eb      	movs	r3, #235	; 0xeb
 1000382:	0100      	lsls	r0, r0, #4
 1000384:	2405      	movs	r4, #5
 1000386:	0100      	lsls	r0, r0, #4
 1000388:	22f3      	movs	r2, #243	; 0xf3
 100038a:	0100      	lsls	r0, r0, #4
 100038c:	2257      	movs	r2, #87	; 0x57
 100038e:	0100      	lsls	r0, r0, #4
 1000390:	2439      	movs	r4, #57	; 0x39
 1000392:	0100      	lsls	r0, r0, #4
 1000394:	fffd ffff 			; <UNDEFINED> instruction: 0xfffdffff
 1000398:	21e5      	movs	r1, #229	; 0xe5
 100039a:	0100      	lsls	r0, r0, #4
 100039c:	fffd ffff 			; <UNDEFINED> instruction: 0xfffdffff
 10003a0:	241f      	movs	r4, #31
 10003a2:	0100      	lsls	r0, r0, #4
 10003a4:	fffd ffff 			; <UNDEFINED> instruction: 0xfffdffff
 10003a8:	fffd ffff 			; <UNDEFINED> instruction: 0xfffdffff
 10003ac:	2033      	movs	r0, #51	; 0x33
 10003ae:	0100      	lsls	r0, r0, #4
 10003b0:	2025      	movs	r0, #37	; 0x25
 10003b2:	0100      	lsls	r0, r0, #4
 10003b4:	1fcf      	subs	r7, r1, #7
 10003b6:	0100      	lsls	r0, r0, #4
 10003b8:	1fc1      	subs	r1, r0, #7
 10003ba:	0100      	lsls	r0, r0, #4
 10003bc:	22a5      	movs	r2, #165	; 0xa5
 10003be:	0100      	lsls	r0, r0, #4
 10003c0:	2341      	movs	r3, #65	; 0x41
 10003c2:	0100      	lsls	r0, r0, #4
 10003c4:	235b      	movs	r3, #91	; 0x5b
 10003c6:	0100      	lsls	r0, r0, #4
 10003c8:	2375      	movs	r3, #117	; 0x75
 10003ca:	0100      	lsls	r0, r0, #4
 10003cc:	2327      	movs	r3, #39	; 0x27
 10003ce:	0100      	lsls	r0, r0, #4
 10003d0:	fffd ffff 			; <UNDEFINED> instruction: 0xfffdffff
 10003d4:	fffd ffff 			; <UNDEFINED> instruction: 0xfffdffff
 10003d8:	fffd ffff 			; <UNDEFINED> instruction: 0xfffdffff
 10003dc:	fffd ffff 			; <UNDEFINED> instruction: 0xfffdffff
 10003e0:	fffd ffff 			; <UNDEFINED> instruction: 0xfffdffff
 10003e4:	fffd ffff 			; <UNDEFINED> instruction: 0xfffdffff
 10003e8:	fffd ffff 			; <UNDEFINED> instruction: 0xfffdffff
 10003ec:	fffd ffff 			; <UNDEFINED> instruction: 0xfffdffff
 10003f0:	fffd ffff 			; <UNDEFINED> instruction: 0xfffdffff
 10003f4:	fffd ffff 			; <UNDEFINED> instruction: 0xfffdffff
 10003f8:	fffd ffff 			; <UNDEFINED> instruction: 0xfffdffff
 10003fc:	fffd ffff 			; <UNDEFINED> instruction: 0xfffdffff
 1000400:	fffd ffff 			; <UNDEFINED> instruction: 0xfffdffff
 1000404:	fffd ffff 			; <UNDEFINED> instruction: 0xfffdffff
 1000408:	fffd ffff 			; <UNDEFINED> instruction: 0xfffdffff
 100040c:	fffd ffff 			; <UNDEFINED> instruction: 0xfffdffff
 1000410:	fffd ffff 			; <UNDEFINED> instruction: 0xfffdffff
 1000414:	fffd ffff 			; <UNDEFINED> instruction: 0xfffdffff
 1000418:	fffd ffff 			; <UNDEFINED> instruction: 0xfffdffff
 100041c:	fffd ffff 			; <UNDEFINED> instruction: 0xfffdffff
 1000420:	2577      	movs	r5, #119	; 0x77
 1000422:	0100      	lsls	r0, r0, #4
 1000424:	2465      	movs	r4, #101	; 0x65
 1000426:	0100      	lsls	r0, r0, #4
 1000428:	2471      	movs	r4, #113	; 0x71
 100042a:	0100      	lsls	r0, r0, #4
 100042c:	247d      	movs	r4, #125	; 0x7d
 100042e:	0100      	lsls	r0, r0, #4
 1000430:	248f      	movs	r4, #143	; 0x8f
 1000432:	0100      	lsls	r0, r0, #4
 1000434:	249b      	movs	r4, #155	; 0x9b
 1000436:	0100      	lsls	r0, r0, #4
 1000438:	24a7      	movs	r4, #167	; 0xa7
 100043a:	0100      	lsls	r0, r0, #4
 100043c:	24b5      	movs	r4, #181	; 0xb5
 100043e:	0100      	lsls	r0, r0, #4
 1000440:	24bf      	movs	r4, #191	; 0xbf
 1000442:	0100      	lsls	r0, r0, #4
 1000444:	24d1      	movs	r4, #209	; 0xd1
 1000446:	0100      	lsls	r0, r0, #4
 1000448:	24dd      	movs	r4, #221	; 0xdd
 100044a:	0100      	lsls	r0, r0, #4
 100044c:	24e3      	movs	r4, #227	; 0xe3
 100044e:	0100      	lsls	r0, r0, #4
 1000450:	24e9      	movs	r4, #233	; 0xe9
 1000452:	0100      	lsls	r0, r0, #4
 1000454:	24ef      	movs	r4, #239	; 0xef
 1000456:	0100      	lsls	r0, r0, #4
 1000458:	fffd ffff 			; <UNDEFINED> instruction: 0xfffdffff
 100045c:	fffd ffff 			; <UNDEFINED> instruction: 0xfffdffff
 1000460:	24f5      	movs	r4, #245	; 0xf5
 1000462:	0100      	lsls	r0, r0, #4
 1000464:	24fb      	movs	r4, #251	; 0xfb
 1000466:	0100      	lsls	r0, r0, #4
 1000468:	2501      	movs	r5, #1
 100046a:	0100      	lsls	r0, r0, #4
 100046c:	2527      	movs	r5, #39	; 0x27
 100046e:	0100      	lsls	r0, r0, #4
 1000470:	2545      	movs	r5, #69	; 0x45
 1000472:	0100      	lsls	r0, r0, #4
 1000474:	2551      	movs	r5, #81	; 0x51
 1000476:	0100      	lsls	r0, r0, #4
 1000478:	255b      	movs	r5, #91	; 0x5b
 100047a:	0100      	lsls	r0, r0, #4
 100047c:	2567      	movs	r5, #103	; 0x67
 100047e:	0100      	lsls	r0, r0, #4
 1000480:	2581      	movs	r5, #129	; 0x81
 1000482:	0100      	lsls	r0, r0, #4
 1000484:	258b      	movs	r5, #139	; 0x8b
 1000486:	0100      	lsls	r0, r0, #4
 1000488:	2593      	movs	r5, #147	; 0x93
 100048a:	0100      	lsls	r0, r0, #4
 100048c:	259b      	movs	r5, #155	; 0x9b
 100048e:	0100      	lsls	r0, r0, #4
 1000490:	25a5      	movs	r5, #165	; 0xa5
 1000492:	0100      	lsls	r0, r0, #4
 1000494:	25c1      	movs	r5, #193	; 0xc1
 1000496:	0100      	lsls	r0, r0, #4
 1000498:	25b7      	movs	r5, #183	; 0xb7
 100049a:	0100      	lsls	r0, r0, #4
 100049c:	fffd ffff 			; <UNDEFINED> instruction: 0xfffdffff
 10004a0:	fffd ffff 			; <UNDEFINED> instruction: 0xfffdffff
 10004a4:	fffd ffff 			; <UNDEFINED> instruction: 0xfffdffff
 10004a8:	fffd ffff 			; <UNDEFINED> instruction: 0xfffdffff
 10004ac:	fffd ffff 			; <UNDEFINED> instruction: 0xfffdffff
 10004b0:	25ed      	movs	r5, #237	; 0xed
 10004b2:	0100      	lsls	r0, r0, #4
 10004b4:	261d      	movs	r6, #29
 10004b6:	0100      	lsls	r0, r0, #4
 10004b8:	272f      	movs	r7, #47	; 0x2f
 10004ba:	0100      	lsls	r0, r0, #4
 10004bc:	25fb      	movs	r5, #251	; 0xfb
 10004be:	0100      	lsls	r0, r0, #4
 10004c0:	2719      	movs	r7, #25
 10004c2:	0100      	lsls	r0, r0, #4
 10004c4:	25f1      	movs	r5, #241	; 0xf1
 10004c6:	0100      	lsls	r0, r0, #4
 10004c8:	2703      	movs	r7, #3
 10004ca:	0100      	lsls	r0, r0, #4
 10004cc:	2683      	movs	r6, #131	; 0x83
 10004ce:	0100      	lsls	r0, r0, #4
 10004d0:	275d      	movs	r7, #93	; 0x5d
 10004d2:	0100      	lsls	r0, r0, #4
 10004d4:	2673      	movs	r6, #115	; 0x73
 10004d6:	0100      	lsls	r0, r0, #4
 10004d8:	2749      	movs	r7, #73	; 0x49
 10004da:	0100      	lsls	r0, r0, #4
 10004dc:	2691      	movs	r6, #145	; 0x91
 10004de:	0100      	lsls	r0, r0, #4
 10004e0:	276f      	movs	r7, #111	; 0x6f
 10004e2:	0100      	lsls	r0, r0, #4
 10004e4:	2667      	movs	r6, #103	; 0x67
 10004e6:	0100      	lsls	r0, r0, #4
 10004e8:	273f      	movs	r7, #63	; 0x3f
 10004ea:	0100      	lsls	r0, r0, #4
 10004ec:	26b7      	movs	r6, #183	; 0xb7
 10004ee:	0100      	lsls	r0, r0, #4
 10004f0:	25d9      	movs	r5, #217	; 0xd9
 10004f2:	0100      	lsls	r0, r0, #4
 10004f4:	25cd      	movs	r5, #205	; 0xcd
 10004f6:	0100      	lsls	r0, r0, #4
 10004f8:	25e5      	movs	r5, #229	; 0xe5
 10004fa:	0100      	lsls	r0, r0, #4
 10004fc:	2605      	movs	r6, #5
 10004fe:	0100      	lsls	r0, r0, #4
 1000500:	25e9      	movs	r5, #233	; 0xe9
 1000502:	0100      	lsls	r0, r0, #4
 1000504:	2791      	movs	r7, #145	; 0x91
 1000506:	0100      	lsls	r0, r0, #4
 1000508:	26ff      	movs	r6, #255	; 0xff
 100050a:	0100      	lsls	r0, r0, #4
 100050c:	26fb      	movs	r6, #251	; 0xfb
 100050e:	0100      	lsls	r0, r0, #4
 1000510:	0ed1      	lsrs	r1, r2, #27
 1000512:	0100      	lsls	r0, r0, #4
 1000514:	2767      	movs	r7, #103	; 0x67
 1000516:	0100      	lsls	r0, r0, #4
 1000518:	2753      	movs	r7, #83	; 0x53
 100051a:	0100      	lsls	r0, r0, #4
 100051c:	2787      	movs	r7, #135	; 0x87
 100051e:	0100      	lsls	r0, r0, #4
 1000520:	2745      	movs	r7, #69	; 0x45
 1000522:	0100      	lsls	r0, r0, #4
 1000524:	2689      	movs	r6, #137	; 0x89
 1000526:	0100      	lsls	r0, r0, #4
 1000528:	2679      	movs	r6, #121	; 0x79
 100052a:	0100      	lsls	r0, r0, #4
 100052c:	26a9      	movs	r6, #169	; 0xa9
 100052e:	0100      	lsls	r0, r0, #4
 1000530:	266f      	movs	r6, #111	; 0x6f
 1000532:	0100      	lsls	r0, r0, #4
 1000534:	26bf      	movs	r6, #191	; 0xbf
 1000536:	0100      	lsls	r0, r0, #4
 1000538:	26c3      	movs	r6, #195	; 0xc3
 100053a:	0100      	lsls	r0, r0, #4
 100053c:	26d5      	movs	r6, #213	; 0xd5
 100053e:	0100      	lsls	r0, r0, #4
 1000540:	fffd ffff 			; <UNDEFINED> instruction: 0xfffdffff
 1000544:	26e7      	movs	r6, #231	; 0xe7
 1000546:	0100      	lsls	r0, r0, #4
 1000548:	26b3      	movs	r6, #179	; 0xb3
 100054a:	0100      	lsls	r0, r0, #4
 100054c:	fffd ffff 			; <UNDEFINED> instruction: 0xfffdffff
 1000550:	fffd ffff 			; <UNDEFINED> instruction: 0xfffdffff
 1000554:	fffd ffff 			; <UNDEFINED> instruction: 0xfffdffff
 1000558:	fffd ffff 			; <UNDEFINED> instruction: 0xfffdffff
 100055c:	fffd ffff 			; <UNDEFINED> instruction: 0xfffdffff
 1000560:	fffd ffff 			; <UNDEFINED> instruction: 0xfffdffff
 1000564:	fffd ffff 			; <UNDEFINED> instruction: 0xfffdffff
 1000568:	fffd ffff 			; <UNDEFINED> instruction: 0xfffdffff
 100056c:	fffd ffff 			; <UNDEFINED> instruction: 0xfffdffff
 1000570:	fffd ffff 			; <UNDEFINED> instruction: 0xfffdffff
 1000574:	fffd ffff 			; <UNDEFINED> instruction: 0xfffdffff
 1000578:	fffd ffff 			; <UNDEFINED> instruction: 0xfffdffff
 100057c:	fffd ffff 			; <UNDEFINED> instruction: 0xfffdffff
 1000580:	fffd ffff 			; <UNDEFINED> instruction: 0xfffdffff
 1000584:	fffd ffff 			; <UNDEFINED> instruction: 0xfffdffff
 1000588:	fffd ffff 			; <UNDEFINED> instruction: 0xfffdffff
 100058c:	fffd ffff 			; <UNDEFINED> instruction: 0xfffdffff
 1000590:	fffd ffff 			; <UNDEFINED> instruction: 0xfffdffff
 1000594:	fffd ffff 			; <UNDEFINED> instruction: 0xfffdffff
 1000598:	fffd ffff 			; <UNDEFINED> instruction: 0xfffdffff
 100059c:	fffd ffff 			; <UNDEFINED> instruction: 0xfffdffff
 10005a0:	2795      	movs	r7, #149	; 0x95
 10005a2:	0100      	lsls	r0, r0, #4
 10005a4:	75c1      	strb	r1, [r0, #23]
 10005a6:	0100      	lsls	r0, r0, #4
 10005a8:	75b9      	strb	r1, [r7, #22]
 10005aa:	0100      	lsls	r0, r0, #4
 10005ac:	27f9      	movs	r7, #249	; 0xf9
 10005ae:	0100      	lsls	r0, r0, #4
 10005b0:	2931      	cmp	r1, #49	; 0x31
 10005b2:	0100      	lsls	r0, r0, #4
 10005b4:	2911      	cmp	r1, #17
 10005b6:	0100      	lsls	r0, r0, #4
 10005b8:	28ed      	cmp	r0, #237	; 0xed
 10005ba:	0100      	lsls	r0, r0, #4
 10005bc:	28d7      	cmp	r0, #215	; 0xd7
 10005be:	0100      	lsls	r0, r0, #4
 10005c0:	2945      	cmp	r1, #69	; 0x45
 10005c2:	0100      	lsls	r0, r0, #4
 10005c4:	299b      	cmp	r1, #155	; 0x9b
 10005c6:	0100      	lsls	r0, r0, #4
 10005c8:	75d1      	strb	r1, [r2, #23]
 10005ca:	0100      	lsls	r0, r0, #4
 10005cc:	75c9      	strb	r1, [r1, #23]
 10005ce:	0100      	lsls	r0, r0, #4
 10005d0:	287b      	cmp	r0, #123	; 0x7b
 10005d2:	0100      	lsls	r0, r0, #4
 10005d4:	fffd ffff 			; <UNDEFINED> instruction: 0xfffdffff
 10005d8:	fffd ffff 			; <UNDEFINED> instruction: 0xfffdffff
 10005dc:	fffd ffff 			; <UNDEFINED> instruction: 0xfffdffff
 10005e0:	2bb7      	cmp	r3, #183	; 0xb7
 10005e2:	0100      	lsls	r0, r0, #4
 10005e4:	29df      	cmp	r1, #223	; 0xdf
 10005e6:	0100      	lsls	r0, r0, #4
 10005e8:	29e7      	cmp	r1, #231	; 0xe7
 10005ea:	0100      	lsls	r0, r0, #4
 10005ec:	29ef      	cmp	r1, #239	; 0xef
 10005ee:	0100      	lsls	r0, r0, #4
 10005f0:	2a21      	cmp	r2, #33	; 0x21
 10005f2:	0100      	lsls	r0, r0, #4
 10005f4:	2a59      	cmp	r2, #89	; 0x59
 10005f6:	0100      	lsls	r0, r0, #4
 10005f8:	2a7b      	cmp	r2, #123	; 0x7b
 10005fa:	0100      	lsls	r0, r0, #4
 10005fc:	2aa1      	cmp	r2, #161	; 0xa1
 10005fe:	0100      	lsls	r0, r0, #4
 1000600:	2aa9      	cmp	r2, #169	; 0xa9
 1000602:	0100      	lsls	r0, r0, #4
 1000604:	2ab9      	cmp	r2, #185	; 0xb9
 1000606:	0100      	lsls	r0, r0, #4
 1000608:	2ac9      	cmp	r2, #201	; 0xc9
 100060a:	0100      	lsls	r0, r0, #4
 100060c:	2aed      	cmp	r2, #237	; 0xed
 100060e:	0100      	lsls	r0, r0, #4
 1000610:	2af9      	cmp	r2, #249	; 0xf9
 1000612:	0100      	lsls	r0, r0, #4
 1000614:	2b01      	cmp	r3, #1
 1000616:	0100      	lsls	r0, r0, #4
 1000618:	2b0d      	cmp	r3, #13
 100061a:	0100      	lsls	r0, r0, #4
 100061c:	2b19      	cmp	r3, #25
 100061e:	0100      	lsls	r0, r0, #4
 1000620:	2b27      	cmp	r3, #39	; 0x27
 1000622:	0100      	lsls	r0, r0, #4
 1000624:	2b33      	cmp	r3, #51	; 0x33
 1000626:	0100      	lsls	r0, r0, #4
 1000628:	2b45      	cmp	r3, #69	; 0x45
 100062a:	0100      	lsls	r0, r0, #4
 100062c:	2b4d      	cmp	r3, #77	; 0x4d
 100062e:	0100      	lsls	r0, r0, #4
 1000630:	2b5d      	cmp	r3, #93	; 0x5d
 1000632:	0100      	lsls	r0, r0, #4
 1000634:	2b65      	cmp	r3, #101	; 0x65
 1000636:	0100      	lsls	r0, r0, #4
 1000638:	2b6d      	cmp	r3, #109	; 0x6d
 100063a:	0100      	lsls	r0, r0, #4
 100063c:	2b7b      	cmp	r3, #123	; 0x7b
 100063e:	0100      	lsls	r0, r0, #4
 1000640:	2b9d      	cmp	r3, #157	; 0x9d
 1000642:	0100      	lsls	r0, r0, #4
 1000644:	2ba1      	cmp	r3, #161	; 0xa1
 1000646:	0100      	lsls	r0, r0, #4
 1000648:	2bab      	cmp	r3, #171	; 0xab
 100064a:	0100      	lsls	r0, r0, #4
 100064c:	2bbd      	cmp	r3, #189	; 0xbd
 100064e:	0100      	lsls	r0, r0, #4
 1000650:	2bcb      	cmp	r3, #203	; 0xcb
 1000652:	0100      	lsls	r0, r0, #4
 1000654:	2bd7      	cmp	r3, #215	; 0xd7
 1000656:	0100      	lsls	r0, r0, #4
 1000658:	2be5      	cmp	r3, #229	; 0xe5
 100065a:	0100      	lsls	r0, r0, #4
 100065c:	2c1b      	cmp	r4, #27
 100065e:	0100      	lsls	r0, r0, #4
 1000660:	2c37      	cmp	r4, #55	; 0x37
 1000662:	0100      	lsls	r0, r0, #4
 1000664:	2c3f      	cmp	r4, #63	; 0x3f
 1000666:	0100      	lsls	r0, r0, #4
 1000668:	2ad7      	cmp	r2, #215	; 0xd7
 100066a:	0100      	lsls	r0, r0, #4
 100066c:	2c07      	cmp	r4, #7
 100066e:	0100      	lsls	r0, r0, #4
 1000670:	2c0d      	cmp	r4, #13
 1000672:	0100      	lsls	r0, r0, #4
 1000674:	fffd ffff 			; <UNDEFINED> instruction: 0xfffdffff
 1000678:	fffd ffff 			; <UNDEFINED> instruction: 0xfffdffff
 100067c:	fffd ffff 			; <UNDEFINED> instruction: 0xfffdffff
 1000680:	2c47      	cmp	r4, #71	; 0x47
 1000682:	0100      	lsls	r0, r0, #4
 1000684:	2c51      	cmp	r4, #81	; 0x51
 1000686:	0100      	lsls	r0, r0, #4
 1000688:	2c5d      	cmp	r4, #93	; 0x5d
 100068a:	0100      	lsls	r0, r0, #4
 100068c:	2c67      	cmp	r4, #103	; 0x67
 100068e:	0100      	lsls	r0, r0, #4
 1000690:	2c75      	cmp	r4, #117	; 0x75
 1000692:	0100      	lsls	r0, r0, #4
 1000694:	2c83      	cmp	r4, #131	; 0x83
 1000696:	0100      	lsls	r0, r0, #4
 1000698:	2c99      	cmp	r4, #153	; 0x99
 100069a:	0100      	lsls	r0, r0, #4
 100069c:	fffd ffff 			; <UNDEFINED> instruction: 0xfffdffff
 10006a0:	fffd ffff 			; <UNDEFINED> instruction: 0xfffdffff
 10006a4:	fffd ffff 			; <UNDEFINED> instruction: 0xfffdffff
 10006a8:	fffd ffff 			; <UNDEFINED> instruction: 0xfffdffff
 10006ac:	fffd ffff 			; <UNDEFINED> instruction: 0xfffdffff
 10006b0:	2e89      	cmp	r6, #137	; 0x89
 10006b2:	0100      	lsls	r0, r0, #4
 10006b4:	2cd1      	cmp	r4, #209	; 0xd1
 10006b6:	0100      	lsls	r0, r0, #4
 10006b8:	2d11      	cmp	r5, #17
 10006ba:	0100      	lsls	r0, r0, #4
 10006bc:	2d4f      	cmp	r5, #79	; 0x4f
 10006be:	0100      	lsls	r0, r0, #4
 10006c0:	2d87      	cmp	r5, #135	; 0x87
 10006c2:	0100      	lsls	r0, r0, #4
 10006c4:	2dc5      	cmp	r5, #197	; 0xc5
 10006c6:	0100      	lsls	r0, r0, #4
 10006c8:	2e5b      	cmp	r6, #91	; 0x5b
 10006ca:	0100      	lsls	r0, r0, #4
 10006cc:	2e71      	cmp	r6, #113	; 0x71
 10006ce:	0100      	lsls	r0, r0, #4
 10006d0:	2e1d      	cmp	r6, #29
 10006d2:	0100      	lsls	r0, r0, #4
 10006d4:	2e31      	cmp	r6, #49	; 0x31
 10006d6:	0100      	lsls	r0, r0, #4
 10006d8:	2e3d      	cmp	r6, #61	; 0x3d
 10006da:	0100      	lsls	r0, r0, #4
 10006dc:	2e4d      	cmp	r6, #77	; 0x4d
 10006de:	0100      	lsls	r0, r0, #4
 10006e0:	2e67      	cmp	r6, #103	; 0x67
 10006e2:	0100      	lsls	r0, r0, #4
 10006e4:	2e7f      	cmp	r6, #127	; 0x7f
 10006e6:	0100      	lsls	r0, r0, #4
 10006e8:	2e8f      	cmp	r6, #143	; 0x8f
 10006ea:	0100      	lsls	r0, r0, #4
 10006ec:	2e9d      	cmp	r6, #157	; 0x9d
 10006ee:	0100      	lsls	r0, r0, #4
 10006f0:	2eb3      	cmp	r6, #179	; 0xb3
 10006f2:	0100      	lsls	r0, r0, #4
 10006f4:	2d7d      	cmp	r5, #125	; 0x7d
 10006f6:	0100      	lsls	r0, r0, #4
 10006f8:	2d73      	cmp	r5, #115	; 0x73
 10006fa:	0100      	lsls	r0, r0, #4
 10006fc:	fffd ffff 			; <UNDEFINED> instruction: 0xfffdffff
 1000700:	fffd ffff 			; <UNDEFINED> instruction: 0xfffdffff
 1000704:	fffd ffff 			; <UNDEFINED> instruction: 0xfffdffff
 1000708:	fffd ffff 			; <UNDEFINED> instruction: 0xfffdffff
 100070c:	fffd ffff 			; <UNDEFINED> instruction: 0xfffdffff
 1000710:	fffd ffff 			; <UNDEFINED> instruction: 0xfffdffff
 1000714:	fffd ffff 			; <UNDEFINED> instruction: 0xfffdffff
 1000718:	fffd ffff 			; <UNDEFINED> instruction: 0xfffdffff
 100071c:	fffd ffff 			; <UNDEFINED> instruction: 0xfffdffff
 1000720:	2f1f      	cmp	r7, #31
 1000722:	0100      	lsls	r0, r0, #4
 1000724:	2ec1      	cmp	r6, #193	; 0xc1
 1000726:	0100      	lsls	r0, r0, #4
 1000728:	2ee7      	cmp	r6, #231	; 0xe7
 100072a:	0100      	lsls	r0, r0, #4
 100072c:	2ef9      	cmp	r6, #249	; 0xf9
 100072e:	0100      	lsls	r0, r0, #4
 1000730:	2f0b      	cmp	r7, #11
 1000732:	0100      	lsls	r0, r0, #4
 1000734:	2f15      	cmp	r7, #21
 1000736:	0100      	lsls	r0, r0, #4
 1000738:	2f3f      	cmp	r7, #63	; 0x3f
 100073a:	0100      	lsls	r0, r0, #4
 100073c:	2f5f      	cmp	r7, #95	; 0x5f
 100073e:	0100      	lsls	r0, r0, #4
 1000740:	2f6f      	cmp	r7, #111	; 0x6f
 1000742:	0100      	lsls	r0, r0, #4
 1000744:	2f7b      	cmp	r7, #123	; 0x7b
 1000746:	0100      	lsls	r0, r0, #4
 1000748:	2f7f      	cmp	r7, #127	; 0x7f
 100074a:	0100      	lsls	r0, r0, #4
 100074c:	2f83      	cmp	r7, #131	; 0x83
 100074e:	0100      	lsls	r0, r0, #4
 1000750:	2f93      	cmp	r7, #147	; 0x93
 1000752:	0100      	lsls	r0, r0, #4
 1000754:	2fb3      	cmp	r7, #179	; 0xb3
 1000756:	0100      	lsls	r0, r0, #4
 1000758:	2fc3      	cmp	r7, #195	; 0xc3
 100075a:	0100      	lsls	r0, r0, #4
 100075c:	2fcd      	cmp	r7, #205	; 0xcd
 100075e:	0100      	lsls	r0, r0, #4
 1000760:	2fd7      	cmp	r7, #215	; 0xd7
 1000762:	0100      	lsls	r0, r0, #4
 1000764:	2fe3      	cmp	r7, #227	; 0xe3
 1000766:	0100      	lsls	r0, r0, #4
 1000768:	2fe9      	cmp	r7, #233	; 0xe9
 100076a:	0100      	lsls	r0, r0, #4
 100076c:	2ff1      	cmp	r7, #241	; 0xf1
 100076e:	0100      	lsls	r0, r0, #4
 1000770:	2ffb      	cmp	r7, #251	; 0xfb
 1000772:	0100      	lsls	r0, r0, #4
 1000774:	3003      	adds	r0, #3
 1000776:	0100      	lsls	r0, r0, #4
 1000778:	2fa3      	cmp	r7, #163	; 0xa3
 100077a:	0100      	lsls	r0, r0, #4
 100077c:	300d      	adds	r0, #13
 100077e:	0100      	lsls	r0, r0, #4
 1000780:	3011      	adds	r0, #17
 1000782:	0100      	lsls	r0, r0, #4
 1000784:	3023      	adds	r0, #35	; 0x23
 1000786:	0100      	lsls	r0, r0, #4
 1000788:	302f      	adds	r0, #47	; 0x2f
 100078a:	0100      	lsls	r0, r0, #4
 100078c:	303b      	adds	r0, #59	; 0x3b
 100078e:	0100      	lsls	r0, r0, #4
 1000790:	304d      	adds	r0, #77	; 0x4d
 1000792:	0100      	lsls	r0, r0, #4
 1000794:	fffd ffff 			; <UNDEFINED> instruction: 0xfffdffff
 1000798:	fffd ffff 			; <UNDEFINED> instruction: 0xfffdffff
 100079c:	fffd ffff 			; <UNDEFINED> instruction: 0xfffdffff
 10007a0:	3081      	adds	r0, #129	; 0x81
 10007a2:	0100      	lsls	r0, r0, #4
 10007a4:	305f      	adds	r0, #95	; 0x5f
 10007a6:	0100      	lsls	r0, r0, #4
 10007a8:	3069      	adds	r0, #105	; 0x69
 10007aa:	0100      	lsls	r0, r0, #4
 10007ac:	3073      	adds	r0, #115	; 0x73
 10007ae:	0100      	lsls	r0, r0, #4
 10007b0:	3085      	adds	r0, #133	; 0x85
 10007b2:	0100      	lsls	r0, r0, #4
 10007b4:	3089      	adds	r0, #137	; 0x89
 10007b6:	0100      	lsls	r0, r0, #4
 10007b8:	3099      	adds	r0, #153	; 0x99
 10007ba:	0100      	lsls	r0, r0, #4
 10007bc:	30a1      	adds	r0, #161	; 0xa1
 10007be:	0100      	lsls	r0, r0, #4
 10007c0:	30ab      	adds	r0, #171	; 0xab
 10007c2:	0100      	lsls	r0, r0, #4
 10007c4:	30b5      	adds	r0, #181	; 0xb5
 10007c6:	0100      	lsls	r0, r0, #4
 10007c8:	30c5      	adds	r0, #197	; 0xc5
 10007ca:	0100      	lsls	r0, r0, #4
 10007cc:	30c9      	adds	r0, #201	; 0xc9
 10007ce:	0100      	lsls	r0, r0, #4
 10007d0:	30d1      	adds	r0, #209	; 0xd1
 10007d2:	0100      	lsls	r0, r0, #4
 10007d4:	30db      	adds	r0, #219	; 0xdb
 10007d6:	0100      	lsls	r0, r0, #4
 10007d8:	30e5      	adds	r0, #229	; 0xe5
 10007da:	0100      	lsls	r0, r0, #4
 10007dc:	fffd ffff 			; <UNDEFINED> instruction: 0xfffdffff
 10007e0:	fffd ffff 			; <UNDEFINED> instruction: 0xfffdffff
 10007e4:	fffd ffff 			; <UNDEFINED> instruction: 0xfffdffff
 10007e8:	fffd ffff 			; <UNDEFINED> instruction: 0xfffdffff
 10007ec:	fffd ffff 			; <UNDEFINED> instruction: 0xfffdffff
 10007f0:	3b5d      	subs	r3, #93	; 0x5d
 10007f2:	0100      	lsls	r0, r0, #4
 10007f4:	30e9      	adds	r0, #233	; 0xe9
 10007f6:	0100      	lsls	r0, r0, #4
 10007f8:	3105      	adds	r1, #5
 10007fa:	0100      	lsls	r0, r0, #4
 10007fc:	3121      	adds	r1, #33	; 0x21
 10007fe:	0100      	lsls	r0, r0, #4
 1000800:	315f      	adds	r1, #95	; 0x5f
 1000802:	0100      	lsls	r0, r0, #4
 1000804:	3293      	adds	r2, #147	; 0x93
 1000806:	0100      	lsls	r0, r0, #4
 1000808:	335d      	adds	r3, #93	; 0x5d
 100080a:	0100      	lsls	r0, r0, #4
 100080c:	336b      	adds	r3, #107	; 0x6b
 100080e:	0100      	lsls	r0, r0, #4
 1000810:	340b      	adds	r4, #11
 1000812:	0100      	lsls	r0, r0, #4
 1000814:	34ef      	adds	r4, #239	; 0xef
 1000816:	0100      	lsls	r0, r0, #4
 1000818:	34f5      	adds	r4, #245	; 0xf5
 100081a:	0100      	lsls	r0, r0, #4
 100081c:	34fd      	adds	r4, #253	; 0xfd
 100081e:	0100      	lsls	r0, r0, #4
 1000820:	3503      	adds	r5, #3
 1000822:	0100      	lsls	r0, r0, #4
 1000824:	32a5      	adds	r2, #165	; 0xa5
 1000826:	0100      	lsls	r0, r0, #4
 1000828:	31b3      	adds	r1, #179	; 0xb3
 100082a:	0100      	lsls	r0, r0, #4
 100082c:	35e7      	adds	r5, #231	; 0xe7
 100082e:	0100      	lsls	r0, r0, #4
 1000830:	3411      	adds	r4, #17
 1000832:	0100      	lsls	r0, r0, #4
 1000834:	36a5      	adds	r6, #165	; 0xa5
 1000836:	0100      	lsls	r0, r0, #4
 1000838:	3779      	adds	r7, #121	; 0x79
 100083a:	0100      	lsls	r0, r0, #4
 100083c:	3373      	adds	r3, #115	; 0x73
 100083e:	0100      	lsls	r0, r0, #4
 1000840:	385b      	subs	r0, #91	; 0x5b
 1000842:	0100      	lsls	r0, r0, #4
 1000844:	3911      	subs	r1, #17
 1000846:	0100      	lsls	r0, r0, #4
 1000848:	39ef      	subs	r1, #239	; 0xef
 100084a:	0100      	lsls	r0, r0, #4
 100084c:	3ab1      	subs	r2, #177	; 0xb1
 100084e:	0100      	lsls	r0, r0, #4
 1000850:	3ae7      	subs	r2, #231	; 0xe7
 1000852:	0100      	lsls	r0, r0, #4
 1000854:	3f0f      	subs	r7, #15
 1000856:	0100      	lsls	r0, r0, #4
 1000858:	3fdb      	subs	r7, #219	; 0xdb
 100085a:	0100      	lsls	r0, r0, #4
 100085c:	405f      	eors	r7, r3
 100085e:	0100      	lsls	r0, r0, #4
 1000860:	4077      	eors	r7, r6
 1000862:	0100      	lsls	r0, r0, #4
 1000864:	408f      	lsls	r7, r1
 1000866:	0100      	lsls	r0, r0, #4
 1000868:	4093      	lsls	r3, r2
 100086a:	0100      	lsls	r0, r0, #4
 100086c:	40a3      	lsls	r3, r4
 100086e:	0100      	lsls	r0, r0, #4
 1000870:	40a9      	lsls	r1, r5
 1000872:	0100      	lsls	r0, r0, #4
 1000874:	40c3      	lsrs	r3, r0
 1000876:	0100      	lsls	r0, r0, #4
 1000878:	40dd      	lsrs	r5, r3
 100087a:	0100      	lsls	r0, r0, #4
 100087c:	40f7      	lsrs	r7, r6
 100087e:	0100      	lsls	r0, r0, #4
 1000880:	4111      	asrs	r1, r2
 1000882:	0100      	lsls	r0, r0, #4
 1000884:	412d      	asrs	r5, r5
 1000886:	0100      	lsls	r0, r0, #4
 1000888:	4149      	adcs	r1, r1
 100088a:	0100      	lsls	r0, r0, #4
 100088c:	41fb      	rors	r3, r7
 100088e:	0100      	lsls	r0, r0, #4
 1000890:	4217      	tst	r7, r2
 1000892:	0100      	lsls	r0, r0, #4
 1000894:	4233      	tst	r3, r6
 1000896:	0100      	lsls	r0, r0, #4
 1000898:	4255      	negs	r5, r2
 100089a:	0100      	lsls	r0, r0, #4
 100089c:	4269      	negs	r1, r5
 100089e:	0100      	lsls	r0, r0, #4
 10008a0:	42df      	cmn	r7, r3
 10008a2:	0100      	lsls	r0, r0, #4
 10008a4:	4691      	mov	r9, r2
 10008a6:	0100      	lsls	r0, r0, #4
 10008a8:	4699      	mov	r9, r3
 10008aa:	0100      	lsls	r0, r0, #4
 10008ac:	46a1      	mov	r9, r4
 10008ae:	0100      	lsls	r0, r0, #4
 10008b0:	46ab      	mov	fp, r5
 10008b2:	0100      	lsls	r0, r0, #4
 10008b4:	46c7      	mov	pc, r8
 10008b6:	0100      	lsls	r0, r0, #4
 10008b8:	46e3      	mov	fp, ip
 10008ba:	0100      	lsls	r0, r0, #4
 10008bc:	46e9      	mov	r9, sp
 10008be:	0100      	lsls	r0, r0, #4
 10008c0:	472b      	bx	r5
 10008c2:	0100      	lsls	r0, r0, #4
 10008c4:	4731      	bx	r6
 10008c6:	0100      	lsls	r0, r0, #4
 10008c8:	4735      	bx	r6
 10008ca:	0100      	lsls	r0, r0, #4
 10008cc:	414d      	adcs	r5, r1
 10008ce:	0100      	lsls	r0, r0, #4
 10008d0:	fffd ffff 			; <UNDEFINED> instruction: 0xfffdffff
 10008d4:	fffd ffff 			; <UNDEFINED> instruction: 0xfffdffff
 10008d8:	fffd ffff 			; <UNDEFINED> instruction: 0xfffdffff
 10008dc:	fffd ffff 			; <UNDEFINED> instruction: 0xfffdffff
 10008e0:	fffd ffff 			; <UNDEFINED> instruction: 0xfffdffff
 10008e4:	fffd ffff 			; <UNDEFINED> instruction: 0xfffdffff
 10008e8:	fffd ffff 			; <UNDEFINED> instruction: 0xfffdffff
 10008ec:	fffd ffff 			; <UNDEFINED> instruction: 0xfffdffff
 10008f0:	47d5      			; <UNDEFINED> instruction: 0x47d5
 10008f2:	0100      	lsls	r0, r0, #4
 10008f4:	476b      	bx	sp
 10008f6:	0100      	lsls	r0, r0, #4
 10008f8:	480d      	ldr	r0, [pc, #52]	; (0x1000930)
 10008fa:	0100      	lsls	r0, r0, #4
 10008fc:	47f1      			; <UNDEFINED> instruction: 0x47f1
 10008fe:	0100      	lsls	r0, r0, #4
 1000900:	4825      	ldr	r0, [pc, #148]	; (0x1000998)
 1000902:	0100      	lsls	r0, r0, #4
 1000904:	481b      	ldr	r0, [pc, #108]	; (0x1000974)
 1000906:	0100      	lsls	r0, r0, #4
 1000908:	482d      	ldr	r0, [pc, #180]	; (0x10009c0)
 100090a:	0100      	lsls	r0, r0, #4
 100090c:	4817      	ldr	r0, [pc, #92]	; (0x100096c)
 100090e:	0100      	lsls	r0, r0, #4
 1000910:	47e1      			; <UNDEFINED> instruction: 0x47e1
 1000912:	0100      	lsls	r0, r0, #4
 1000914:	47b5      			; <UNDEFINED> instruction: 0x47b5
 1000916:	0100      	lsls	r0, r0, #4
 1000918:	47c3      			; <UNDEFINED> instruction: 0x47c3
 100091a:	0100      	lsls	r0, r0, #4
 100091c:	0edd      	lsrs	r5, r3, #27
 100091e:	0100      	lsls	r0, r0, #4
 1000920:	4805      	ldr	r0, [pc, #20]	; (0x1000938)
 1000922:	0100      	lsls	r0, r0, #4
 1000924:	47fb      			; <UNDEFINED> instruction: 0x47fb
 1000926:	0100      	lsls	r0, r0, #4
 1000928:	4757      	bx	sl
 100092a:	0100      	lsls	r0, r0, #4
 100092c:	475f      	bx	fp
 100092e:	0100      	lsls	r0, r0, #4
 1000930:	4765      	bx	ip
 1000932:	0100      	lsls	r0, r0, #4
 1000934:	fffd ffff 			; <UNDEFINED> instruction: 0xfffdffff
 1000938:	fffd ffff 			; <UNDEFINED> instruction: 0xfffdffff
 100093c:	fffd ffff 			; <UNDEFINED> instruction: 0xfffdffff
 1000940:	fffd ffff 			; <UNDEFINED> instruction: 0xfffdffff
 1000944:	fffd ffff 			; <UNDEFINED> instruction: 0xfffdffff
 1000948:	4837      	ldr	r0, [pc, #220]	; (0x1000a28)
 100094a:	0100      	lsls	r0, r0, #4
 100094c:	4841      	ldr	r0, [pc, #260]	; (0x1000a54)
 100094e:	0100      	lsls	r0, r0, #4
 1000950:	fffd ffff 			; <UNDEFINED> instruction: 0xfffdffff
 1000954:	fffd ffff 			; <UNDEFINED> instruction: 0xfffdffff
 1000958:	fffd ffff 			; <UNDEFINED> instruction: 0xfffdffff
 100095c:	fffd ffff 			; <UNDEFINED> instruction: 0xfffdffff
 1000960:	4ed7      	ldr	r6, [pc, #860]	; (0x1000cc0)
 1000962:	0100      	lsls	r0, r0, #4
 1000964:	4ee1      	ldr	r6, [pc, #900]	; (0x1000cec)
 1000966:	0100      	lsls	r0, r0, #4
 1000968:	4ae5      	ldr	r2, [pc, #916]	; (0x1000d00)
 100096a:	0100      	lsls	r0, r0, #4
 100096c:	4e4b      	ldr	r6, [pc, #300]	; (0x1000a9c)
 100096e:	0100      	lsls	r0, r0, #4
 1000970:	4b5f      	ldr	r3, [pc, #380]	; (0x1000af0)
 1000972:	0100      	lsls	r0, r0, #4
 1000974:	1aaf      	subs	r7, r5, r2
 1000976:	0100      	lsls	r0, r0, #4
 1000978:	4c8d      	ldr	r4, [pc, #564]	; (0x1000bb0)
 100097a:	0100      	lsls	r0, r0, #4
 100097c:	4cd3      	ldr	r4, [pc, #844]	; (0x1000ccc)
 100097e:	0100      	lsls	r0, r0, #4
 1000980:	4d1b      	ldr	r5, [pc, #108]	; (0x10009f0)
 1000982:	0100      	lsls	r0, r0, #4
 1000984:	4d61      	ldr	r5, [pc, #388]	; (0x1000b0c)
 1000986:	0100      	lsls	r0, r0, #4
 1000988:	4da9      	ldr	r5, [pc, #676]	; (0x1000c30)
 100098a:	0100      	lsls	r0, r0, #4
 100098c:	4def      	ldr	r5, [pc, #956]	; (0x1000d4c)
 100098e:	0100      	lsls	r0, r0, #4
 1000990:	4e37      	ldr	r6, [pc, #220]	; (0x1000a70)
 1000992:	0100      	lsls	r0, r0, #4
 1000994:	4b1f      	ldr	r3, [pc, #124]	; (0x1000a14)
 1000996:	0100      	lsls	r0, r0, #4
 1000998:	4b13      	ldr	r3, [pc, #76]	; (0x10009e8)
 100099a:	0100      	lsls	r0, r0, #4
 100099c:	4b0d      	ldr	r3, [pc, #52]	; (0x10009d4)
 100099e:	0100      	lsls	r0, r0, #4
 10009a0:	4b29      	ldr	r3, [pc, #164]	; (0x1000a48)
 10009a2:	0100      	lsls	r0, r0, #4
 10009a4:	4b47      	ldr	r3, [pc, #284]	; (0x1000ac4)
 10009a6:	0100      	lsls	r0, r0, #4
 10009a8:	4b41      	ldr	r3, [pc, #260]	; (0x1000ab0)
 10009aa:	0100      	lsls	r0, r0, #4
 10009ac:	4ebd      	ldr	r6, [pc, #756]	; (0x1000ca4)
 10009ae:	0100      	lsls	r0, r0, #4
 10009b0:	4aad      	ldr	r2, [pc, #692]	; (0x1000c68)
 10009b2:	0100      	lsls	r0, r0, #4
 10009b4:	4ed1      	ldr	r6, [pc, #836]	; (0x1000cfc)
 10009b6:	0100      	lsls	r0, r0, #4
 10009b8:	4ec5      	ldr	r6, [pc, #788]	; (0x1000cd0)
 10009ba:	0100      	lsls	r0, r0, #4
 10009bc:	4993      	ldr	r1, [pc, #588]	; (0x1000c0c)
 10009be:	0100      	lsls	r0, r0, #4
 10009c0:	488d      	ldr	r0, [pc, #564]	; (0x1000bf8)
 10009c2:	0100      	lsls	r0, r0, #4
 10009c4:	4eaf      	ldr	r6, [pc, #700]	; (0x1000c84)
 10009c6:	0100      	lsls	r0, r0, #4
 10009c8:	4e9b      	ldr	r6, [pc, #620]	; (0x1000c38)
 10009ca:	0100      	lsls	r0, r0, #4
 10009cc:	4871      	ldr	r0, [pc, #452]	; (0x1000b94)
 10009ce:	0100      	lsls	r0, r0, #4
 10009d0:	4867      	ldr	r0, [pc, #412]	; (0x1000b70)
 10009d2:	0100      	lsls	r0, r0, #4
 10009d4:	4b01      	ldr	r3, [pc, #4]	; (0x10009dc)
 10009d6:	0100      	lsls	r0, r0, #4
 10009d8:	4af3      	ldr	r2, [pc, #972]	; (0x1000da8)
 10009da:	0100      	lsls	r0, r0, #4
 10009dc:	4efd      	ldr	r6, [pc, #1012]	; (0x1000dd4)
 10009de:	0100      	lsls	r0, r0, #4
 10009e0:	4ef1      	ldr	r6, [pc, #964]	; (0x1000da8)
 10009e2:	0100      	lsls	r0, r0, #4
 10009e4:	fffd ffff 			; <UNDEFINED> instruction: 0xfffdffff
 10009e8:	1025      	asrs	r5, r4, #32
 10009ea:	0100      	lsls	r0, r0, #4
 10009ec:	4bbd      	ldr	r3, [pc, #756]	; (0x1000ce4)
 10009ee:	0100      	lsls	r0, r0, #4
 10009f0:	4be7      	ldr	r3, [pc, #924]	; (0x1000d90)
 10009f2:	0100      	lsls	r0, r0, #4
 10009f4:	4c11      	ldr	r4, [pc, #68]	; (0x1000a3c)
 10009f6:	0100      	lsls	r0, r0, #4
 10009f8:	4b4d      	ldr	r3, [pc, #308]	; (0x1000b30)
 10009fa:	0100      	lsls	r0, r0, #4
 10009fc:	4b53      	ldr	r3, [pc, #332]	; (0x1000b4c)
 10009fe:	0100      	lsls	r0, r0, #4
 1000a00:	4b35      	ldr	r3, [pc, #212]	; (0x1000ad8)
 1000a02:	0100      	lsls	r0, r0, #4
 1000a04:	4b3b      	ldr	r3, [pc, #236]	; (0x1000af4)
 1000a06:	0100      	lsls	r0, r0, #4
 1000a08:	4edb      	ldr	r6, [pc, #876]	; (0x1000d78)
 1000a0a:	0100      	lsls	r0, r0, #4
 1000a0c:	4adf      	ldr	r2, [pc, #892]	; (0x1000d8c)
 1000a0e:	0100      	lsls	r0, r0, #4
 1000a10:	4b59      	ldr	r3, [pc, #356]	; (0x1000b78)
 1000a12:	0100      	lsls	r0, r0, #4
 1000a14:	4e57      	ldr	r6, [pc, #348]	; (0x1000b74)
 1000a16:	0100      	lsls	r0, r0, #4
 1000a18:	4ad9      	ldr	r2, [pc, #868]	; (0x1000d80)
 1000a1a:	0100      	lsls	r0, r0, #4
 1000a1c:	4ac7      	ldr	r2, [pc, #796]	; (0x1000d3c)
 1000a1e:	0100      	lsls	r0, r0, #4
 1000a20:	fffd ffff 			; <UNDEFINED> instruction: 0xfffdffff
 1000a24:	fffd ffff 			; <UNDEFINED> instruction: 0xfffdffff
 1000a28:	fffd ffff 			; <UNDEFINED> instruction: 0xfffdffff
 1000a2c:	fffd ffff 			; <UNDEFINED> instruction: 0xfffdffff
 1000a30:	fffd ffff 			; <UNDEFINED> instruction: 0xfffdffff
 1000a34:	fffd ffff 			; <UNDEFINED> instruction: 0xfffdffff
 1000a38:	fffd ffff 			; <UNDEFINED> instruction: 0xfffdffff
 1000a3c:	fffd ffff 			; <UNDEFINED> instruction: 0xfffdffff
 1000a40:	4f25      	ldr	r7, [pc, #148]	; (0x1000ad8)
 1000a42:	0100      	lsls	r0, r0, #4
 1000a44:	4f09      	ldr	r7, [pc, #36]	; (0x1000a6c)
 1000a46:	0100      	lsls	r0, r0, #4
 1000a48:	4f0f      	ldr	r7, [pc, #60]	; (0x1000a88)
 1000a4a:	0100      	lsls	r0, r0, #4
 1000a4c:	4f1b      	ldr	r7, [pc, #108]	; (0x1000abc)
 1000a4e:	0100      	lsls	r0, r0, #4
 1000a50:	fffd ffff 			; <UNDEFINED> instruction: 0xfffdffff
 1000a54:	fffd ffff 			; <UNDEFINED> instruction: 0xfffdffff
 1000a58:	fffd ffff 			; <UNDEFINED> instruction: 0xfffdffff
 1000a5c:	fffd ffff 			; <UNDEFINED> instruction: 0xfffdffff
 1000a60:	4f7d      	ldr	r7, [pc, #500]	; (0x1000c58)
 1000a62:	0100      	lsls	r0, r0, #4
 1000a64:	4f31      	ldr	r7, [pc, #196]	; (0x1000b2c)
 1000a66:	0100      	lsls	r0, r0, #4
 1000a68:	4f3f      	ldr	r7, [pc, #252]	; (0x1000b68)
 1000a6a:	0100      	lsls	r0, r0, #4
 1000a6c:	4f4d      	ldr	r7, [pc, #308]	; (0x1000ba4)
 1000a6e:	0100      	lsls	r0, r0, #4
 1000a70:	4f5b      	ldr	r7, [pc, #364]	; (0x1000be0)
 1000a72:	0100      	lsls	r0, r0, #4
 1000a74:	4f69      	ldr	r7, [pc, #420]	; (0x1000c1c)
 1000a76:	0100      	lsls	r0, r0, #4
 1000a78:	4f73      	ldr	r7, [pc, #460]	; (0x1000c48)
 1000a7a:	0100      	lsls	r0, r0, #4
 1000a7c:	fffd ffff 			; <UNDEFINED> instruction: 0xfffdffff
 1000a80:	fffd ffff 			; <UNDEFINED> instruction: 0xfffdffff
 1000a84:	fffd ffff 			; <UNDEFINED> instruction: 0xfffdffff
 1000a88:	fffd ffff 			; <UNDEFINED> instruction: 0xfffdffff
 1000a8c:	fffd ffff 			; <UNDEFINED> instruction: 0xfffdffff
 1000a90:	5127      	str	r7, [r4, r4]
 1000a92:	0100      	lsls	r0, r0, #4
 1000a94:	4f85      	ldr	r7, [pc, #532]	; (0x1000cac)
 1000a96:	0100      	lsls	r0, r0, #4
 1000a98:	4f93      	ldr	r7, [pc, #588]	; (0x1000ce8)
 1000a9a:	0100      	lsls	r0, r0, #4
 1000a9c:	4fa3      	ldr	r7, [pc, #652]	; (0x1000d2c)
 1000a9e:	0100      	lsls	r0, r0, #4
 1000aa0:	4fc7      	ldr	r7, [pc, #796]	; (0x1000dc0)
 1000aa2:	0100      	lsls	r0, r0, #4
 1000aa4:	4fdd      	ldr	r7, [pc, #884]	; (0x1000e1c)
 1000aa6:	0100      	lsls	r0, r0, #4
 1000aa8:	4ff3      	ldr	r7, [pc, #972]	; (0x1000e78)
 1000aaa:	0100      	lsls	r0, r0, #4
 1000aac:	5005      	str	r5, [r0, r0]
 1000aae:	0100      	lsls	r0, r0, #4
 1000ab0:	504b      	str	r3, [r1, r1]
 1000ab2:	0100      	lsls	r0, r0, #4
 1000ab4:	5055      	str	r5, [r2, r1]
 1000ab6:	0100      	lsls	r0, r0, #4
 1000ab8:	505f      	str	r7, [r3, r1]
 1000aba:	0100      	lsls	r0, r0, #4
 1000abc:	5071      	str	r1, [r6, r1]
 1000abe:	0100      	lsls	r0, r0, #4
 1000ac0:	50ad      	str	r5, [r5, r2]
 1000ac2:	0100      	lsls	r0, r0, #4
 1000ac4:	50bf      	str	r7, [r7, r2]
 1000ac6:	0100      	lsls	r0, r0, #4
 1000ac8:	50c9      	str	r1, [r1, r3]
 1000aca:	0100      	lsls	r0, r0, #4
 1000acc:	50db      	str	r3, [r3, r3]
 1000ace:	0100      	lsls	r0, r0, #4
 1000ad0:	50e5      	str	r5, [r4, r3]
 1000ad2:	0100      	lsls	r0, r0, #4
 1000ad4:	50ef      	str	r7, [r5, r3]
 1000ad6:	0100      	lsls	r0, r0, #4
 1000ad8:	5101      	str	r1, [r0, r4]
 1000ada:	0100      	lsls	r0, r0, #4
 1000adc:	510b      	str	r3, [r1, r4]
 1000ade:	0100      	lsls	r0, r0, #4
 1000ae0:	5113      	str	r3, [r2, r4]
 1000ae2:	0100      	lsls	r0, r0, #4
 1000ae4:	511d      	str	r5, [r3, r4]
 1000ae6:	0100      	lsls	r0, r0, #4
 1000ae8:	501b      	str	r3, [r3, r0]
 1000aea:	0100      	lsls	r0, r0, #4
 1000aec:	512b      	str	r3, [r5, r4]
 1000aee:	0100      	lsls	r0, r0, #4
 1000af0:	5131      	str	r1, [r6, r4]
 1000af2:	0100      	lsls	r0, r0, #4
 1000af4:	513f      	str	r7, [r7, r4]
 1000af6:	0100      	lsls	r0, r0, #4
 1000af8:	514d      	str	r5, [r1, r5]
 1000afa:	0100      	lsls	r0, r0, #4
 1000afc:	5153      	str	r3, [r2, r5]
 1000afe:	0100      	lsls	r0, r0, #4
 1000b00:	fffd ffff 			; <UNDEFINED> instruction: 0xfffdffff
 1000b04:	fffd ffff 			; <UNDEFINED> instruction: 0xfffdffff
 1000b08:	fffd ffff 			; <UNDEFINED> instruction: 0xfffdffff
 1000b0c:	fffd ffff 			; <UNDEFINED> instruction: 0xfffdffff
 1000b10:	fffd ffff 			; <UNDEFINED> instruction: 0xfffdffff
 1000b14:	fffd ffff 			; <UNDEFINED> instruction: 0xfffdffff
 1000b18:	fffd ffff 			; <UNDEFINED> instruction: 0xfffdffff
 1000b1c:	fffd ffff 			; <UNDEFINED> instruction: 0xfffdffff
 1000b20:	5295      	strh	r5, [r2, r2]
 1000b22:	0100      	lsls	r0, r0, #4
 1000b24:	5161      	str	r1, [r4, r5]
 1000b26:	0100      	lsls	r0, r0, #4
 1000b28:	516d      	str	r5, [r5, r5]
 1000b2a:	0100      	lsls	r0, r0, #4
 1000b2c:	5175      	str	r5, [r6, r5]
 1000b2e:	0100      	lsls	r0, r0, #4
 1000b30:	517b      	str	r3, [r7, r5]
 1000b32:	0100      	lsls	r0, r0, #4
 1000b34:	51bd      	str	r5, [r7, r6]
 1000b36:	0100      	lsls	r0, r0, #4
 1000b38:	520b      	strh	r3, [r1, r0]
 1000b3a:	0100      	lsls	r0, r0, #4
 1000b3c:	518b      	str	r3, [r1, r6]
 1000b3e:	0100      	lsls	r0, r0, #4
 1000b40:	519f      	str	r7, [r3, r6]
 1000b42:	0100      	lsls	r0, r0, #4
 1000b44:	5239      	strh	r1, [r7, r0]
 1000b46:	0100      	lsls	r0, r0, #4
 1000b48:	524b      	strh	r3, [r1, r1]
 1000b4a:	0100      	lsls	r0, r0, #4
 1000b4c:	5255      	strh	r5, [r2, r1]
 1000b4e:	0100      	lsls	r0, r0, #4
 1000b50:	525f      	strh	r7, [r3, r1]
 1000b52:	0100      	lsls	r0, r0, #4
 1000b54:	5269      	strh	r1, [r5, r1]
 1000b56:	0100      	lsls	r0, r0, #4
 1000b58:	5279      	strh	r1, [r7, r1]
 1000b5a:	0100      	lsls	r0, r0, #4
 1000b5c:	5285      	strh	r5, [r0, r2]
 1000b5e:	0100      	lsls	r0, r0, #4
 1000b60:	52a1      	strh	r1, [r4, r2]
 1000b62:	0100      	lsls	r0, r0, #4
 1000b64:	52b3      	strh	r3, [r6, r2]
 1000b66:	0100      	lsls	r0, r0, #4
 1000b68:	52bb      	strh	r3, [r7, r2]
 1000b6a:	0100      	lsls	r0, r0, #4
 1000b6c:	52c5      	strh	r5, [r0, r3]
 1000b6e:	0100      	lsls	r0, r0, #4
 1000b70:	52cf      	strh	r7, [r1, r3]
 1000b72:	0100      	lsls	r0, r0, #4
 1000b74:	0ee9      	lsrs	r1, r5, #27
 1000b76:	0100      	lsls	r0, r0, #4
 1000b78:	52d3      	strh	r3, [r2, r3]
 1000b7a:	0100      	lsls	r0, r0, #4
 1000b7c:	52db      	strh	r3, [r3, r3]
 1000b7e:	0100      	lsls	r0, r0, #4
 1000b80:	52e5      	strh	r5, [r4, r3]
 1000b82:	0100      	lsls	r0, r0, #4
 1000b84:	52ef      	strh	r7, [r5, r3]
 1000b86:	0100      	lsls	r0, r0, #4
 1000b88:	530d      	strh	r5, [r1, r4]
 1000b8a:	0100      	lsls	r0, r0, #4
 1000b8c:	52f9      	strh	r1, [r7, r3]
 1000b8e:	0100      	lsls	r0, r0, #4
 1000b90:	5305      	strh	r5, [r0, r4]
 1000b92:	0100      	lsls	r0, r0, #4
 1000b94:	5315      	strh	r5, [r2, r4]
 1000b96:	0100      	lsls	r0, r0, #4
 1000b98:	531d      	strh	r5, [r3, r4]
 1000b9a:	0100      	lsls	r0, r0, #4
 1000b9c:	5323      	strh	r3, [r4, r4]
 1000b9e:	0100      	lsls	r0, r0, #4
 1000ba0:	5329      	strh	r1, [r5, r4]
 1000ba2:	0100      	lsls	r0, r0, #4
 1000ba4:	532f      	strh	r7, [r5, r4]
 1000ba6:	0100      	lsls	r0, r0, #4
 1000ba8:	533d      	strh	r5, [r7, r4]
 1000baa:	0100      	lsls	r0, r0, #4
 1000bac:	534b      	strh	r3, [r1, r5]
 1000bae:	0100      	lsls	r0, r0, #4
 1000bb0:	5355      	strh	r5, [r2, r5]
 1000bb2:	0100      	lsls	r0, r0, #4
 1000bb4:	fffd ffff 			; <UNDEFINED> instruction: 0xfffdffff
 1000bb8:	fffd ffff 			; <UNDEFINED> instruction: 0xfffdffff
 1000bbc:	fffd ffff 			; <UNDEFINED> instruction: 0xfffdffff
 1000bc0:	54c5      	strb	r5, [r0, r3]
 1000bc2:	0100      	lsls	r0, r0, #4
 1000bc4:	5377      	strh	r7, [r6, r5]
 1000bc6:	0100      	lsls	r0, r0, #4
 1000bc8:	537f      	strh	r7, [r7, r5]
 1000bca:	0100      	lsls	r0, r0, #4
 1000bcc:	5387      	strh	r7, [r0, r6]
 1000bce:	0100      	lsls	r0, r0, #4
 1000bd0:	538d      	strh	r5, [r1, r6]
 1000bd2:	0100      	lsls	r0, r0, #4
 1000bd4:	5395      	strh	r5, [r2, r6]
 1000bd6:	0100      	lsls	r0, r0, #4
 1000bd8:	53a5      	strh	r5, [r4, r6]
 1000bda:	0100      	lsls	r0, r0, #4
 1000bdc:	53b5      	strh	r5, [r6, r6]
 1000bde:	0100      	lsls	r0, r0, #4
 1000be0:	53cb      	strh	r3, [r1, r7]
 1000be2:	0100      	lsls	r0, r0, #4
 1000be4:	53d1      	strh	r1, [r2, r7]
 1000be6:	0100      	lsls	r0, r0, #4
 1000be8:	53dd      	strh	r5, [r3, r7]
 1000bea:	0100      	lsls	r0, r0, #4
 1000bec:	53ed      	strh	r5, [r5, r7]
 1000bee:	0100      	lsls	r0, r0, #4
 1000bf0:	542f      	strb	r7, [r5, r0]
 1000bf2:	0100      	lsls	r0, r0, #4
 1000bf4:	5471      	strb	r1, [r6, r1]
 1000bf6:	0100      	lsls	r0, r0, #4
 1000bf8:	54ad      	strb	r5, [r5, r2]
 1000bfa:	0100      	lsls	r0, r0, #4
 1000bfc:	5583      	strb	r3, [r0, r6]
 1000bfe:	0100      	lsls	r0, r0, #4
 1000c00:	559f      	strb	r7, [r3, r6]
 1000c02:	0100      	lsls	r0, r0, #4
 1000c04:	55c1      	strb	r1, [r0, r7]
 1000c06:	0100      	lsls	r0, r0, #4
 1000c08:	55cd      	strb	r5, [r1, r7]
 1000c0a:	0100      	lsls	r0, r0, #4
 1000c0c:	55d9      	strb	r1, [r3, r7]
 1000c0e:	0100      	lsls	r0, r0, #4
 1000c10:	55df      	strb	r7, [r3, r7]
 1000c12:	0100      	lsls	r0, r0, #4
 1000c14:	53d7      	strh	r7, [r2, r7]
 1000c16:	0100      	lsls	r0, r0, #4
 1000c18:	5541      	strb	r1, [r0, r5]
 1000c1a:	0100      	lsls	r0, r0, #4
 1000c1c:	55e5      	strb	r5, [r4, r7]
 1000c1e:	0100      	lsls	r0, r0, #4
 1000c20:	fffd ffff 			; <UNDEFINED> instruction: 0xfffdffff
 1000c24:	fffd ffff 			; <UNDEFINED> instruction: 0xfffdffff
 1000c28:	fffd ffff 			; <UNDEFINED> instruction: 0xfffdffff
 1000c2c:	fffd ffff 			; <UNDEFINED> instruction: 0xfffdffff
 1000c30:	5ec9      	ldrsh	r1, [r1, r3]
 1000c32:	0100      	lsls	r0, r0, #4
 1000c34:	563f      	ldrsb	r7, [r7, r0]
 1000c36:	0100      	lsls	r0, r0, #4
 1000c38:	5643      	ldrsb	r3, [r0, r1]
 1000c3a:	0100      	lsls	r0, r0, #4
 1000c3c:	5647      	ldrsb	r7, [r0, r1]
 1000c3e:	0100      	lsls	r0, r0, #4
 1000c40:	5651      	ldrsb	r1, [r2, r1]
 1000c42:	0100      	lsls	r0, r0, #4
 1000c44:	56eb      	ldrsb	r3, [r5, r3]
 1000c46:	0100      	lsls	r0, r0, #4
 1000c48:	577d      	ldrsb	r5, [r7, r5]
 1000c4a:	0100      	lsls	r0, r0, #4
 1000c4c:	57a1      	ldrsb	r1, [r4, r6]
 1000c4e:	0100      	lsls	r0, r0, #4
 1000c50:	57d5      	ldrsb	r5, [r2, r7]
 1000c52:	0100      	lsls	r0, r0, #4
 1000c54:	581f      	ldr	r7, [r3, r0]
 1000c56:	0100      	lsls	r0, r0, #4
 1000c58:	58a3      	ldr	r3, [r4, r2]
 1000c5a:	0100      	lsls	r0, r0, #4
 1000c5c:	58f7      	ldr	r7, [r6, r3]
 1000c5e:	0100      	lsls	r0, r0, #4
 1000c60:	5931      	ldr	r1, [r6, r4]
 1000c62:	0100      	lsls	r0, r0, #4
 1000c64:	5953      	ldr	r3, [r2, r5]
 1000c66:	0100      	lsls	r0, r0, #4
 1000c68:	59d9      	ldr	r1, [r3, r7]
 1000c6a:	0100      	lsls	r0, r0, #4
 1000c6c:	59e9      	ldr	r1, [r5, r7]
 1000c6e:	0100      	lsls	r0, r0, #4
 1000c70:	59f1      	ldr	r1, [r6, r7]
 1000c72:	0100      	lsls	r0, r0, #4
 1000c74:	5a4b      	ldrh	r3, [r1, r1]
 1000c76:	0100      	lsls	r0, r0, #4
 1000c78:	5aa1      	ldrh	r1, [r4, r2]
 1000c7a:	0100      	lsls	r0, r0, #4
 1000c7c:	5af1      	ldrh	r1, [r6, r3]
 1000c7e:	0100      	lsls	r0, r0, #4
 1000c80:	5af5      	ldrh	r5, [r6, r3]
 1000c82:	0100      	lsls	r0, r0, #4
 1000c84:	5b09      	ldrh	r1, [r1, r4]
 1000c86:	0100      	lsls	r0, r0, #4
 1000c88:	5b1f      	ldrh	r7, [r3, r4]
 1000c8a:	0100      	lsls	r0, r0, #4
 1000c8c:	5be5      	ldrh	r5, [r4, r7]
 1000c8e:	0100      	lsls	r0, r0, #4
 1000c90:	5c05      	ldrb	r5, [r0, r0]
 1000c92:	0100      	lsls	r0, r0, #4
 1000c94:	5c75      	ldrb	r5, [r6, r1]
 1000c96:	0100      	lsls	r0, r0, #4
 1000c98:	5c9d      	ldrb	r5, [r3, r2]
 1000c9a:	0100      	lsls	r0, r0, #4
 1000c9c:	5cb1      	ldrb	r1, [r6, r2]
 1000c9e:	0100      	lsls	r0, r0, #4
 1000ca0:	5ce9      	ldrb	r1, [r5, r3]
 1000ca2:	0100      	lsls	r0, r0, #4
 1000ca4:	5cf7      	ldrb	r7, [r6, r3]
 1000ca6:	0100      	lsls	r0, r0, #4
 1000ca8:	5d05      	ldrb	r5, [r0, r4]
 1000caa:	0100      	lsls	r0, r0, #4
 1000cac:	5d1f      	ldrb	r7, [r3, r4]
 1000cae:	0100      	lsls	r0, r0, #4
 1000cb0:	5d2d      	ldrb	r5, [r5, r4]
 1000cb2:	0100      	lsls	r0, r0, #4
 1000cb4:	5d3b      	ldrb	r3, [r7, r4]
 1000cb6:	0100      	lsls	r0, r0, #4
 1000cb8:	5d63      	ldrb	r3, [r4, r5]
 1000cba:	0100      	lsls	r0, r0, #4
 1000cbc:	5d6b      	ldrb	r3, [r5, r5]
 1000cbe:	0100      	lsls	r0, r0, #4
 1000cc0:	5d7d      	ldrb	r5, [r7, r5]
 1000cc2:	0100      	lsls	r0, r0, #4
 1000cc4:	5d8f      	ldrb	r7, [r1, r6]
 1000cc6:	0100      	lsls	r0, r0, #4
 1000cc8:	5daf      	ldrb	r7, [r5, r6]
 1000cca:	0100      	lsls	r0, r0, #4
 1000ccc:	5db9      	ldrb	r1, [r7, r6]
 1000cce:	0100      	lsls	r0, r0, #4
 1000cd0:	5e41      	ldrsh	r1, [r0, r1]
 1000cd2:	0100      	lsls	r0, r0, #4
 1000cd4:	565b      	ldrsb	r3, [r3, r1]
 1000cd6:	0100      	lsls	r0, r0, #4
 1000cd8:	59b5      	ldr	r5, [r6, r6]
 1000cda:	0100      	lsls	r0, r0, #4
 1000cdc:	5991      	ldr	r1, [r2, r6]
 1000cde:	0100      	lsls	r0, r0, #4
 1000ce0:	5885      	ldr	r5, [r0, r2]
 1000ce2:	0100      	lsls	r0, r0, #4
 1000ce4:	5f67      	ldrsh	r7, [r4, r5]
 1000ce6:	0100      	lsls	r0, r0, #4
 1000ce8:	5f59      	ldrsh	r1, [r3, r5]
 1000cea:	0100      	lsls	r0, r0, #4
 1000cec:	5977      	ldr	r7, [r6, r5]
 1000cee:	0100      	lsls	r0, r0, #4
 1000cf0:	5e05      	ldrsh	r5, [r0, r0]
 1000cf2:	0100      	lsls	r0, r0, #4
 1000cf4:	5e8d      	ldrsh	r5, [r1, r2]
 1000cf6:	0100      	lsls	r0, r0, #4
 1000cf8:	5f11      	ldrsh	r1, [r2, r4]
 1000cfa:	0100      	lsls	r0, r0, #4
 1000cfc:	5e2d      	ldrsh	r5, [r5, r0]
 1000cfe:	0100      	lsls	r0, r0, #4
 1000d00:	5eb5      	ldrsh	r5, [r6, r2]
 1000d02:	0100      	lsls	r0, r0, #4
 1000d04:	5f4f      	ldrsh	r7, [r1, r5]
 1000d06:	0100      	lsls	r0, r0, #4
 1000d08:	5ce1      	ldrb	r1, [r4, r3]
 1000d0a:	0100      	lsls	r0, r0, #4
 1000d0c:	587d      	ldr	r5, [r7, r1]
 1000d0e:	0100      	lsls	r0, r0, #4
 1000d10:	5f85      	ldrsh	r5, [r0, r6]
 1000d12:	0100      	lsls	r0, r0, #4
 1000d14:	5f8f      	ldrsh	r7, [r1, r6]
 1000d16:	0100      	lsls	r0, r0, #4
 1000d18:	0eb9      	lsrs	r1, r7, #26
 1000d1a:	0100      	lsls	r0, r0, #4
 1000d1c:	5f7d      	ldrsh	r5, [r7, r5]
 1000d1e:	0100      	lsls	r0, r0, #4
 1000d20:	5d4d      	ldrb	r5, [r1, r5]
 1000d22:	0100      	lsls	r0, r0, #4
 1000d24:	5f63      	ldrsh	r3, [r4, r5]
 1000d26:	0100      	lsls	r0, r0, #4
 1000d28:	fffd ffff 			; <UNDEFINED> instruction: 0xfffdffff
 1000d2c:	fffd ffff 			; <UNDEFINED> instruction: 0xfffdffff
 1000d30:	fffd ffff 			; <UNDEFINED> instruction: 0xfffdffff
 1000d34:	fffd ffff 			; <UNDEFINED> instruction: 0xfffdffff
 1000d38:	fffd ffff 			; <UNDEFINED> instruction: 0xfffdffff
 1000d3c:	fffd ffff 			; <UNDEFINED> instruction: 0xfffdffff
 1000d40:	5ffb      	ldrsh	r3, [r7, r7]
 1000d42:	0100      	lsls	r0, r0, #4
 1000d44:	5f99      	ldrsh	r1, [r3, r6]
 1000d46:	0100      	lsls	r0, r0, #4
 1000d48:	5fa1      	ldrsh	r1, [r4, r6]
 1000d4a:	0100      	lsls	r0, r0, #4
 1000d4c:	5fab      	ldrsh	r3, [r5, r6]
 1000d4e:	0100      	lsls	r0, r0, #4
 1000d50:	5fb5      	ldrsh	r5, [r6, r6]
 1000d52:	0100      	lsls	r0, r0, #4
 1000d54:	5fbf      	ldrsh	r7, [r7, r6]
 1000d56:	0100      	lsls	r0, r0, #4
 1000d58:	5fc7      	ldrsh	r7, [r0, r7]
 1000d5a:	0100      	lsls	r0, r0, #4
 1000d5c:	5fcf      	ldrsh	r7, [r1, r7]
 1000d5e:	0100      	lsls	r0, r0, #4
 1000d60:	5fdb      	ldrsh	r3, [r3, r7]
 1000d62:	0100      	lsls	r0, r0, #4
 1000d64:	5fdf      	ldrsh	r7, [r3, r7]
 1000d66:	0100      	lsls	r0, r0, #4
 1000d68:	5fe3      	ldrsh	r3, [r4, r7]
 1000d6a:	0100      	lsls	r0, r0, #4
 1000d6c:	5fe7      	ldrsh	r7, [r4, r7]
 1000d6e:	0100      	lsls	r0, r0, #4
 1000d70:	5ff1      	ldrsh	r1, [r6, r7]
 1000d72:	0100      	lsls	r0, r0, #4
 1000d74:	6001      	str	r1, [r0, #0]
 1000d76:	0100      	lsls	r0, r0, #4
 1000d78:	600f      	str	r7, [r1, #0]
 1000d7a:	0100      	lsls	r0, r0, #4
 1000d7c:	601d      	str	r5, [r3, #0]
 1000d7e:	0100      	lsls	r0, r0, #4
 1000d80:	fffd ffff 			; <UNDEFINED> instruction: 0xfffdffff
 1000d84:	fffd ffff 			; <UNDEFINED> instruction: 0xfffdffff
 1000d88:	fffd ffff 			; <UNDEFINED> instruction: 0xfffdffff
 1000d8c:	fffd ffff 			; <UNDEFINED> instruction: 0xfffdffff
 1000d90:	f04f 5000 	mov.w	r0, #536870912	; 0x20000000
 1000d94:	f44f 6100 	mov.w	r1, #2048	; 0x800
 1000d98:	2200      	movs	r2, #0
 1000d9a:	f840 2b04 	str.w	r2, [r0], #4
 1000d9e:	1f09      	subs	r1, r1, #4
 1000da0:	d1fb      	bne.n	0x1000d9a
 1000da2:	f500 60c0 	add.w	r0, r0, #1536	; 0x600
 1000da6:	f44f 7100 	mov.w	r1, #512	; 0x200
 1000daa:	f840 2b04 	str.w	r2, [r0], #4
 1000dae:	1f09      	subs	r1, r1, #4
 1000db0:	d1fb      	bne.n	0x1000daa
 1000db2:	4685      	mov	sp, r0
 1000db4:	4896      	ldr	r0, [pc, #600]	; (0x1001010)
 1000db6:	f04f 5100 	mov.w	r1, #536870912	; 0x20000000
 1000dba:	e890 003c 	ldmia.w	r0, {r2, r3, r4, r5}
 1000dbe:	e881 003c 	stmia.w	r1, {r2, r3, r4, r5}
 1000dc2:	4894      	ldr	r0, [pc, #592]	; (0x1001014)
 1000dc4:	6001      	str	r1, [r0, #0]
 1000dc6:	4770      	bx	lr
 1000dc8:	f24e 0000 	movw	r0, #57344	; 0xe000
 1000dcc:	f2c4 000f 	movt	r0, #16399	; 0x400f
 1000dd0:	2101      	movs	r1, #1
 1000dd2:	f8c0 10f0 	str.w	r1, [r0, #240]	; 0xf0
 1000dd6:	f8d0 11d0 	ldr.w	r1, [r0, #464]	; 0x1d0
 1000dda:	f411 7f80 	tst.w	r1, #256	; 0x100
 1000dde:	d135      	bne.n	0x1000e4c
 1000de0:	f3c1 3242 	ubfx	r2, r1, #13, #3
 1000de4:	4c8c      	ldr	r4, [pc, #560]	; (0x1001018)
 1000de6:	f854 4022 	ldr.w	r4, [r4, r2, lsl #2]
 1000dea:	2301      	movs	r3, #1
 1000dec:	fa03 f202 	lsl.w	r2, r3, r2
 1000df0:	f8c0 2108 	str.w	r2, [r0, #264]	; 0x108
 1000df4:	f3c1 2782 	ubfx	r7, r1, #10, #3
 1000df8:	40bb      	lsls	r3, r7
 1000dfa:	2a02      	cmp	r2, #2
 1000dfc:	d105      	bne.n	0x1000e0a
 1000dfe:	f8df 821c 	ldr.w	r8, [pc, #540]	; 0x100101c
 1000e02:	f8c4 8520 	str.w	r8, [r4, #1312]	; 0x520
 1000e06:	f8c4 3524 	str.w	r3, [r4, #1316]	; 0x524
 1000e0a:	f8d4 551c 	ldr.w	r5, [r4, #1308]	; 0x51c
 1000e0e:	ea45 0603 	orr.w	r6, r5, r3
 1000e12:	f8c4 651c 	str.w	r6, [r4, #1308]	; 0x51c
 1000e16:	4436      	add	r6, r6
 1000e18:	4436      	add	r6, r6
 1000e1a:	4436      	add	r6, r6
 1000e1c:	4436      	add	r6, r6
 1000e1e:	4436      	add	r6, r6
 1000e20:	4436      	add	r6, r6
 1000e22:	f8d4 63fc 	ldr.w	r6, [r4, #1020]	; 0x3fc
 1000e26:	401e      	ands	r6, r3
 1000e28:	f8c4 551c 	str.w	r5, [r4, #1308]	; 0x51c
 1000e2c:	2500      	movs	r5, #0
 1000e2e:	2a02      	cmp	r2, #2
 1000e30:	d103      	bne.n	0x1000e3a
 1000e32:	f8c4 8520 	str.w	r8, [r4, #1312]	; 0x520
 1000e36:	f8c4 5524 	str.w	r5, [r4, #1316]	; 0x524
 1000e3a:	f8c0 5108 	str.w	r5, [r0, #264]	; 0x108
 1000e3e:	f3c1 2240 	ubfx	r2, r1, #9, #1
 1000e42:	40ba      	lsls	r2, r7
 1000e44:	4296      	cmp	r6, r2
 1000e46:	bf04      	itt	eq
 1000e48:	2001      	moveq	r0, #1
 1000e4a:	4770      	bxeq	lr
 1000e4c:	f04f 0000 	mov.w	r0, #0
 1000e50:	6841      	ldr	r1, [r0, #4]
 1000e52:	f1b1 3fff 	cmp.w	r1, #4294967295	; 0xffffffff
 1000e56:	bf08      	it	eq
 1000e58:	2001      	moveq	r0, #1
 1000e5a:	4770      	bx	lr
 1000e5c:	f24e 10d8 	movw	r0, #57816	; 0xe1d8
 1000e60:	f2c4 000f 	movt	r0, #16399	; 0x400f
 1000e64:	6800      	ldr	r0, [r0, #0]
 1000e66:	f010 5f40 	tst.w	r0, #805306368	; 0x30000000
 1000e6a:	d11d      	bne.n	0x1000ea8
 1000e6c:	f7ff ffac 	bl	0x1000dc8
 1000e70:	2800      	cmp	r0, #0
 1000e72:	d102      	bne.n	0x1000e7a
 1000e74:	f8d0 d000 	ldr.w	sp, [r0]
 1000e78:	4708      	bx	r1
 1000e7a:	f7ff ff89 	bl	0x1000d90
 1000e7e:	f005 f99c 	bl	0x10061ba
 1000e82:	f005 ba2c 	b.w	0x10062de
 1000e86:	0000      	movs	r0, r0
 1000e88:	4000      	ands	r0, r0
 1000e8a:	4000      	ands	r0, r0
 1000e8c:	5000      	str	r0, [r0, r0]
 1000e8e:	4000      	ands	r0, r0
 1000e90:	6000      	str	r0, [r0, #0]
 1000e92:	4000      	ands	r0, r0
 1000e94:	7000      	strb	r0, [r0, #0]
 1000e96:	4000      	ands	r0, r0
 1000e98:	4000      	ands	r0, r0
 1000e9a:	4002      	ands	r2, r0
 1000e9c:	5000      	str	r0, [r0, r0]
 1000e9e:	4002      	ands	r2, r0
 1000ea0:	6000      	str	r0, [r0, #0]
 1000ea2:	4002      	ands	r2, r0
 1000ea4:	7000      	strb	r0, [r0, #0]
 1000ea6:	4002      	ands	r2, r0
 1000ea8:	f649 3000 	movw	r0, #39680	; 0x9b00
 1000eac:	f2c0 1000 	movt	r0, #256	; 0x100
 1000eb0:	f8d0 d000 	ldr.w	sp, [r0]
 1000eb4:	f8d0 f004 	ldr.w	pc, [r0, #4]
 1000eb8:	f44f 6100 	mov.w	r1, #2048	; 0x800
 1000ebc:	f041 5100 	orr.w	r1, r1, #536870912	; 0x20000000
 1000ec0:	f000 f876 	bl	0x1000fb0
 1000ec4:	4684      	mov	ip, r0
 1000ec6:	f7ff ff63 	bl	0x1000d90
 1000eca:	4660      	mov	r0, ip
 1000ecc:	f006 ba9d 	b.w	0x100740a
 1000ed0:	f7ff ff5e 	bl	0x1000d90
 1000ed4:	f005 fb35 	bl	0x1006542
 1000ed8:	f005 ba01 	b.w	0x10062de
 1000edc:	f7ff ff58 	bl	0x1000d90
 1000ee0:	f005 fc4a 	bl	0x1006778
 1000ee4:	f005 b9fb 	b.w	0x10062de
 1000ee8:	f7ff ff52 	bl	0x1000d90
 1000eec:	f005 fcc6 	bl	0x100687c
 1000ef0:	f005 b9f5 	b.w	0x10062de
 1000ef4:	f24e 0000 	movw	r0, #57344	; 0xe000
 1000ef8:	f2c4 000f 	movt	r0, #16399	; 0x400f
 1000efc:	f8d0 10f0 	ldr.w	r1, [r0, #240]	; 0xf0
 1000f00:	2901      	cmp	r1, #1
 1000f02:	d11f      	bne.n	0x1000f44
 1000f04:	46f1      	mov	r9, lr
 1000f06:	f7ff ff5f 	bl	0x1000dc8
 1000f0a:	2800      	cmp	r0, #0
 1000f0c:	d00c      	beq.n	0x1000f28
 1000f0e:	f24e 0000 	movw	r0, #57344	; 0xe000
 1000f12:	f2c4 000f 	movt	r0, #16399	; 0x400f
 1000f16:	6dc1      	ldr	r1, [r0, #92]	; 0x5c
 1000f18:	f421 3180 	bic.w	r1, r1, #65536	; 0x10000
 1000f1c:	65c1      	str	r1, [r0, #92]	; 0x5c
 1000f1e:	4840      	ldr	r0, [pc, #256]	; (0x1001020)
 1000f20:	f020 0001 	bic.w	r0, r0, #1
 1000f24:	9006      	str	r0, [sp, #24]
 1000f26:	4748      	bx	r9
 1000f28:	46ce      	mov	lr, r9
 1000f2a:	e89d 0ff0 	ldmia.w	sp, {r4, r5, r6, r7, r8, r9, sl, fp}
 1000f2e:	f8d0 d000 	ldr.w	sp, [r0]
 1000f32:	f8d0 a004 	ldr.w	sl, [r0, #4]
 1000f36:	f02a 0a01 	bic.w	sl, sl, #1
 1000f3a:	e92d 0ff0 	stmdb	sp!, {r4, r5, r6, r7, r8, r9, sl, fp}
 1000f3e:	6880      	ldr	r0, [r0, #8]
 1000f40:	4700      	bx	r0
 1000f42:	bf00      	nop
 1000f44:	f24e 0000 	movw	r0, #57344	; 0xe000
 1000f48:	f2c4 000f 	movt	r0, #16399	; 0x400f
 1000f4c:	2100      	movs	r1, #0
 1000f4e:	f8c0 1100 	str.w	r1, [r0, #256]	; 0x100
 1000f52:	f8c0 1104 	str.w	r1, [r0, #260]	; 0x104
 1000f56:	f8c0 1108 	str.w	r1, [r0, #264]	; 0x108
 1000f5a:	f07f 0200 	mvns.w	r2, #0
 1000f5e:	6402      	str	r2, [r0, #64]	; 0x40
 1000f60:	6442      	str	r2, [r0, #68]	; 0x44
 1000f62:	6482      	str	r2, [r0, #72]	; 0x48
 1000f64:	6401      	str	r1, [r0, #64]	; 0x40
 1000f66:	6441      	str	r1, [r0, #68]	; 0x44
 1000f68:	6481      	str	r1, [r0, #72]	; 0x48
 1000f6a:	f24e 0000 	movw	r0, #57344	; 0xe000
 1000f6e:	f2ce 0000 	movt	r0, #57344	; 0xe000
 1000f72:	6101      	str	r1, [r0, #16]
 1000f74:	6141      	str	r1, [r0, #20]
 1000f76:	6181      	str	r1, [r0, #24]
 1000f78:	f8d0 2d04 	ldr.w	r2, [r0, #3332]	; 0xd04
 1000f7c:	f042 7200 	orr.w	r2, r2, #33554432	; 0x2000000
 1000f80:	f8c0 2d04 	str.w	r2, [r0, #3332]	; 0xd04
 1000f84:	f8c0 1280 	str.w	r1, [r0, #640]	; 0x280
 1000f88:	f8c0 1284 	str.w	r1, [r0, #644]	; 0x284
 1000f8c:	f8c0 1d08 	str.w	r1, [r0, #3336]	; 0xd08
 1000f90:	f240 0202 	movw	r2, #2
 1000f94:	f2c0 52fa 	movt	r2, #1530	; 0x5fa
 1000f98:	f8c0 2d0c 	str.w	r2, [r0, #3340]	; 0xd0c
 1000f9c:	6848      	ldr	r0, [r1, #4]
 1000f9e:	f1b0 3fff 	cmp.w	r0, #4294967295	; 0xffffffff
 1000fa2:	bf04      	itt	eq
 1000fa4:	f04f 7180 	moveq.w	r1, #16777216	; 0x1000000
 1000fa8:	6848      	ldreq	r0, [r1, #4]
 1000faa:	f8d1 d000 	ldr.w	sp, [r1]
 1000fae:	4700      	bx	r0
 1000fb0:	2800      	cmp	r0, #0
 1000fb2:	bf08      	it	eq
 1000fb4:	4770      	bxeq	lr
 1000fb6:	7a03      	ldrb	r3, [r0, #8]
 1000fb8:	1e9a      	subs	r2, r3, #2
 1000fba:	bf48      	it	mi
 1000fbc:	2309      	movmi	r3, #9
 1000fbe:	d410      	bmi.n	0x1000fe2
 1000fc0:	ea4f 0252 	mov.w	r2, r2, lsr #1
 1000fc4:	f103 0308 	add.w	r3, r3, #8
 1000fc8:	f04f 0503 	mov.w	r5, #3
 1000fcc:	5cc4      	ldrb	r4, [r0, r3]
 1000fce:	4423      	add	r3, r4
 1000fd0:	1e6d      	subs	r5, r5, #1
 1000fd2:	d1fb      	bne.n	0x1000fcc
 1000fd4:	1e52      	subs	r2, r2, #1
 1000fd6:	d1f7      	bne.n	0x1000fc8
 1000fd8:	f5b3 6fc0 	cmp.w	r3, #1536	; 0x600
 1000fdc:	bfc4      	itt	gt
 1000fde:	2000      	movgt	r0, #0
 1000fe0:	4770      	bxgt	lr
 1000fe2:	4288      	cmp	r0, r1
 1000fe4:	dc09      	bgt.n	0x1000ffa
 1000fe6:	eb00 0403 	add.w	r4, r0, r3
 1000fea:	428c      	cmp	r4, r1
 1000fec:	db05      	blt.n	0x1000ffa
 1000fee:	1e5b      	subs	r3, r3, #1
 1000ff0:	5cc2      	ldrb	r2, [r0, r3]
 1000ff2:	54ca      	strb	r2, [r1, r3]
 1000ff4:	d5fb      	bpl.n	0x1000fee
 1000ff6:	4608      	mov	r0, r1
 1000ff8:	4770      	bx	lr
 1000ffa:	f04f 0500 	mov.w	r5, #0
 1000ffe:	5d42      	ldrb	r2, [r0, r5]
 1001000:	554a      	strb	r2, [r1, r5]
 1001002:	f105 0501 	add.w	r5, r5, #1
 1001006:	429d      	cmp	r5, r3
 1001008:	d1f9      	bne.n	0x1000ffe
 100100a:	4608      	mov	r0, r1
 100100c:	4770      	bx	lr
 100100e:	0000      	movs	r0, r0
 1001010:	0000      	movs	r0, r0
 1001012:	0100      	lsls	r0, r0, #4
 1001014:	ed08 e000 	stc	0, cr14, [r8, #-0]
 1001018:	0e88      	lsrs	r0, r1, #26
 100101a:	0100      	lsls	r0, r0, #4
 100101c:	434b      	muls	r3, r1
 100101e:	4c4f      	ldr	r4, [pc, #316]	; (0x100115c)
 1001020:	0e7b      	lsrs	r3, r7, #25
 1001022:	0100      	lsls	r0, r0, #4
 1001024:	3801      	subs	r0, #1
 1001026:	d1fd      	bne.n	0x1001024
 1001028:	4770      	bx	lr
 100102a:	0000      	movs	r0, r0
 100102c:	6882      	ldr	r2, [r0, #8]
 100102e:	2301      	movs	r3, #1
 1001030:	fa03 f101 	lsl.w	r1, r3, r1
 1001034:	ea22 0101 	bic.w	r1, r2, r1
 1001038:	6081      	str	r1, [r0, #8]
 100103a:	4770      	bx	lr
 100103c:	2201      	movs	r2, #1
 100103e:	fa02 f101 	lsl.w	r1, r2, r1
 1001042:	60c1      	str	r1, [r0, #12]
 1001044:	6882      	ldr	r2, [r0, #8]
 1001046:	4311      	orrs	r1, r2
 1001048:	6081      	str	r1, [r0, #8]
 100104a:	4770      	bx	lr
 100104c:	b132      	cbz	r2, 0x100105c
 100104e:	68c0      	ldr	r0, [r0, #12]
 1001050:	f04f 1201 	mov.w	r2, #65537	; 0x10001
 1001054:	fa02 f101 	lsl.w	r1, r2, r1
 1001058:	4008      	ands	r0, r1
 100105a:	4770      	bx	lr
 100105c:	6840      	ldr	r0, [r0, #4]
 100105e:	2201      	movs	r2, #1
 1001060:	408a      	lsls	r2, r1
 1001062:	f442 3280 	orr.w	r2, r2, #65536	; 0x10000
 1001066:	4010      	ands	r0, r2
 1001068:	f410 3f80 	tst.w	r0, #65536	; 0x10000
 100106c:	bf08      	it	eq
 100106e:	4770      	bxeq	lr
 1001070:	f440 2070 	orr.w	r0, r0, #983040	; 0xf0000
 1001074:	f44f 3280 	mov.w	r2, #65536	; 0x10000
 1001078:	fa02 f101 	lsl.w	r1, r2, r1
 100107c:	4388      	bics	r0, r1
 100107e:	4770      	bx	lr
 1001080:	2201      	movs	r2, #1
 1001082:	fa02 f101 	lsl.w	r1, r2, r1
 1001086:	60c1      	str	r1, [r0, #12]
 1001088:	4770      	bx	lr
 100108a:	6802      	ldr	r2, [r0, #0]
 100108c:	2301      	movs	r3, #1
 100108e:	fa03 f101 	lsl.w	r1, r3, r1
 1001092:	4311      	orrs	r1, r2
 1001094:	6001      	str	r1, [r0, #0]
 1001096:	4770      	bx	lr
 1001098:	6802      	ldr	r2, [r0, #0]
 100109a:	2301      	movs	r3, #1
 100109c:	fa03 f101 	lsl.w	r1, r3, r1
 10010a0:	ea22 0101 	bic.w	r1, r2, r1
 10010a4:	6001      	str	r1, [r0, #0]
 10010a6:	4770      	bx	lr
 10010a8:	b410      	push	{r4}
 10010aa:	6944      	ldr	r4, [r0, #20]
 10010ac:	0089      	lsls	r1, r1, #2
 10010ae:	f04f 0c0f 	mov.w	ip, #15
 10010b2:	fa0c fc01 	lsl.w	ip, ip, r1
 10010b6:	f002 020f 	and.w	r2, r2, #15
 10010ba:	ea24 040c 	bic.w	r4, r4, ip
 10010be:	408a      	lsls	r2, r1
 10010c0:	4322      	orrs	r2, r4
 10010c2:	6142      	str	r2, [r0, #20]
 10010c4:	6a02      	ldr	r2, [r0, #32]
 10010c6:	f003 0303 	and.w	r3, r3, #3
 10010ca:	ea22 020c 	bic.w	r2, r2, ip
 10010ce:	fa03 f101 	lsl.w	r1, r3, r1
 10010d2:	4311      	orrs	r1, r2
 10010d4:	6201      	str	r1, [r0, #32]
 10010d6:	bc10      	pop	{r4}
 10010d8:	4770      	bx	lr
 10010da:	b410      	push	{r4}
 10010dc:	eb00 1041 	add.w	r0, r0, r1, lsl #5
 10010e0:	0091      	lsls	r1, r2, #2
 10010e2:	f850 cf40 	ldr.w	ip, [r0, #64]!
 10010e6:	220f      	movs	r2, #15
 10010e8:	408a      	lsls	r2, r1
 10010ea:	f003 040f 	and.w	r4, r3, #15
 10010ee:	ea2c 0c02 	bic.w	ip, ip, r2
 10010f2:	408c      	lsls	r4, r1
 10010f4:	ea4c 0c04 	orr.w	ip, ip, r4
 10010f8:	f8c0 c000 	str.w	ip, [r0]
 10010fc:	f8d0 c018 	ldr.w	ip, [r0, #24]
 1001100:	f3c3 2403 	ubfx	r4, r3, #8, #4
 1001104:	ea2c 0c02 	bic.w	ip, ip, r2
 1001108:	408c      	lsls	r4, r1
 100110a:	ea4c 0c04 	orr.w	ip, ip, r4
 100110e:	f8c0 c018 	str.w	ip, [r0, #24]
 1001112:	f8d0 c004 	ldr.w	ip, [r0, #4]
 1001116:	f3c3 1403 	ubfx	r4, r3, #4, #4
 100111a:	ea2c 0c02 	bic.w	ip, ip, r2
 100111e:	408c      	lsls	r4, r1
 1001120:	ea4c 0c04 	orr.w	ip, ip, r4
 1001124:	f8c0 c004 	str.w	ip, [r0, #4]
 1001128:	f413 2f70 	tst.w	r3, #983040	; 0xf0000
 100112c:	f04f 0401 	mov.w	r4, #1
 1001130:	d00d      	beq.n	0x100114e
 1001132:	f8d0 c014 	ldr.w	ip, [r0, #20]
 1001136:	f3c3 4302 	ubfx	r3, r3, #16, #3
 100113a:	ea2c 0202 	bic.w	r2, ip, r2
 100113e:	408b      	lsls	r3, r1
 1001140:	431a      	orrs	r2, r3
 1001142:	6142      	str	r2, [r0, #20]
 1001144:	6902      	ldr	r2, [r0, #16]
 1001146:	fa04 f101 	lsl.w	r1, r4, r1
 100114a:	4311      	orrs	r1, r2
 100114c:	e004      	b.n	0x1001158
 100114e:	6902      	ldr	r2, [r0, #16]
 1001150:	fa04 f101 	lsl.w	r1, r4, r1
 1001154:	ea22 0101 	bic.w	r1, r2, r1
 1001158:	6101      	str	r1, [r0, #16]
 100115a:	bc10      	pop	{r4}
 100115c:	4770      	bx	lr
 100115e:	6900      	ldr	r0, [r0, #16]
 1001160:	2201      	movs	r2, #1
 1001162:	fa02 f101 	lsl.w	r1, r2, r1
 1001166:	4008      	ands	r0, r1
 1001168:	4770      	bx	lr
 100116a:	2201      	movs	r2, #1
 100116c:	fa02 f101 	lsl.w	r1, r2, r1
 1001170:	6101      	str	r1, [r0, #16]
 1001172:	4770      	bx	lr
 1001174:	6980      	ldr	r0, [r0, #24]
 1001176:	2201      	movs	r2, #1
 1001178:	fa02 f101 	lsl.w	r1, r2, r1
 100117c:	4008      	ands	r0, r1
 100117e:	4770      	bx	lr
 1001180:	2201      	movs	r2, #1
 1001182:	fa02 f101 	lsl.w	r1, r2, r1
 1001186:	6181      	str	r1, [r0, #24]
 1001188:	4770      	bx	lr
 100118a:	eb00 1041 	add.w	r0, r0, r1, lsl #5
 100118e:	f100 0140 	add.w	r1, r0, #64	; 0x40
 1001192:	2000      	movs	r0, #0
 1001194:	e003      	b.n	0x100119e
 1001196:	688b      	ldr	r3, [r1, #8]
 1001198:	f842 3b04 	str.w	r3, [r2], #4
 100119c:	1c40      	adds	r0, r0, #1
 100119e:	68cb      	ldr	r3, [r1, #12]
 10011a0:	f413 7f80 	tst.w	r3, #256	; 0x100
 10011a4:	bf18      	it	ne
 10011a6:	4770      	bxne	lr
 10011a8:	2808      	cmp	r0, #8
 10011aa:	d3f4      	bcc.n	0x1001196
 10011ac:	4770      	bx	lr
 10011ae:	460a      	mov	r2, r1
 10011b0:	f001 010f 	and.w	r1, r1, #15
 10011b4:	f04f 0301 	mov.w	r3, #1
 10011b8:	f36f 020f 	bfc	r2, #0, #16
 10011bc:	fa03 f101 	lsl.w	r1, r3, r1
 10011c0:	ea42 0101 	orr.w	r1, r2, r1
 10011c4:	6a82      	ldr	r2, [r0, #40]	; 0x28
 10011c6:	ea41 0102 	orr.w	r1, r1, r2
 10011ca:	6281      	str	r1, [r0, #40]	; 0x28
 10011cc:	4770      	bx	lr
 10011ce:	2200      	movs	r2, #0
 10011d0:	0849      	lsrs	r1, r1, #1
 10011d2:	bf14      	ite	ne
 10011d4:	1c52      	addne	r2, r2, #1
 10011d6:	6302      	streq	r2, [r0, #48]	; 0x30
 10011d8:	d1fa      	bne.n	0x10011d0
 10011da:	4770      	bx	lr
 10011dc:	eb00 0081 	add.w	r0, r0, r1, lsl #2
 10011e0:	f8c0 2e00 	str.w	r2, [r0, #3584]	; 0xe00
 10011e4:	4770      	bx	lr
 10011e6:	eb00 0081 	add.w	r0, r0, r1, lsl #2
 10011ea:	ea42 4203 	orr.w	r2, r2, r3, lsl #16
 10011ee:	f8c0 2e40 	str.w	r2, [r0, #3648]	; 0xe40
 10011f2:	4770      	bx	lr
 10011f4:	b410      	push	{r4}
 10011f6:	2401      	movs	r4, #1
 10011f8:	f04f 0c00 	mov.w	ip, #0
 10011fc:	2a00      	cmp	r2, #0
 10011fe:	bf1c      	itt	ne
 1001200:	f101 0210 	addne.w	r2, r1, #16
 1001204:	fa04 fc02 	lslne.w	ip, r4, r2
 1001208:	2b00      	cmp	r3, #0
 100120a:	bf1c      	itt	ne
 100120c:	fa04 f101 	lslne.w	r1, r4, r1
 1001210:	ea41 0c0c 	orrne.w	ip, r1, ip
 1001214:	f8c0 cd00 	str.w	ip, [r0, #3328]	; 0xd00
 1001218:	bc10      	pop	{r4}
 100121a:	4770      	bx	lr
 100121c:	6882      	ldr	r2, [r0, #8]
 100121e:	f44f 3380 	mov.w	r3, #65536	; 0x10000
 1001222:	fa03 f101 	lsl.w	r1, r3, r1
 1001226:	ea22 0101 	bic.w	r1, r2, r1
 100122a:	6081      	str	r1, [r0, #8]
 100122c:	4770      	bx	lr
 100122e:	6882      	ldr	r2, [r0, #8]
 1001230:	f44f 3380 	mov.w	r3, #65536	; 0x10000
 1001234:	fa03 f101 	lsl.w	r1, r3, r1
 1001238:	4311      	orrs	r1, r2
 100123a:	6081      	str	r1, [r0, #8]
 100123c:	4770      	bx	lr
 100123e:	6b40      	ldr	r0, [r0, #52]	; 0x34
 1001240:	4770      	bx	lr
 1001242:	6341      	str	r1, [r0, #52]	; 0x34
 1001244:	4770      	bx	lr
 1001246:	6b82      	ldr	r2, [r0, #56]	; 0x38
 1001248:	f022 0203 	bic.w	r2, r2, #3
 100124c:	4311      	orrs	r1, r2
 100124e:	6381      	str	r1, [r0, #56]	; 0x38
 1001250:	4770      	bx	lr
 1001252:	6b80      	ldr	r0, [r0, #56]	; 0x38
 1001254:	f000 0003 	and.w	r0, r0, #3
 1001258:	4770      	bx	lr
 100125a:	6241      	str	r1, [r0, #36]	; 0x24
 100125c:	4770      	bx	lr
 100125e:	6a40      	ldr	r0, [r0, #36]	; 0x24
 1001260:	4770      	bx	lr
 1001262:	6b82      	ldr	r2, [r0, #56]	; 0x38
 1001264:	f022 0210 	bic.w	r2, r2, #16
 1001268:	4311      	orrs	r1, r2
 100126a:	6381      	str	r1, [r0, #56]	; 0x38
 100126c:	4770      	bx	lr
 100126e:	6b80      	ldr	r0, [r0, #56]	; 0x38
 1001270:	f000 0010 	and.w	r0, r0, #16
 1001274:	4770      	bx	lr
 1001276:	2300      	movs	r3, #0
 1001278:	2a00      	cmp	r2, #0
 100127a:	bf98      	it	ls
 100127c:	4770      	bxls	lr
 100127e:	f851 cb04 	ldr.w	ip, [r1], #4
 1001282:	f800 c003 	strb.w	ip, [r0, r3]
 1001286:	1c5b      	adds	r3, r3, #1
 1001288:	4293      	cmp	r3, r2
 100128a:	d204      	bcs.n	0x1001296
 100128c:	ea4f 2c1c 	mov.w	ip, ip, lsr #8
 1001290:	f800 c003 	strb.w	ip, [r0, r3]
 1001294:	1c5b      	adds	r3, r3, #1
 1001296:	4293      	cmp	r3, r2
 1001298:	d3f1      	bcc.n	0x100127e
 100129a:	4770      	bx	lr
 100129c:	b410      	push	{r4}
 100129e:	2300      	movs	r3, #0
 10012a0:	2a00      	cmp	r2, #0
 10012a2:	bf9c      	itt	ls
 10012a4:	bc10      	popls	{r4}
 10012a6:	4770      	bxls	lr
 10012a8:	f810 c003 	ldrb.w	ip, [r0, r3]
 10012ac:	1c5b      	adds	r3, r3, #1
 10012ae:	4293      	cmp	r3, r2
 10012b0:	d203      	bcs.n	0x10012ba
 10012b2:	5cc4      	ldrb	r4, [r0, r3]
 10012b4:	1c5b      	adds	r3, r3, #1
 10012b6:	ea4c 2c04 	orr.w	ip, ip, r4, lsl #8
 10012ba:	f841 cb04 	str.w	ip, [r1], #4
 10012be:	4293      	cmp	r3, r2
 10012c0:	d3f2      	bcc.n	0x10012a8
 10012c2:	bc10      	pop	{r4}
 10012c4:	4770      	bx	lr
 10012c6:	2101      	movs	r1, #1
 10012c8:	6001      	str	r1, [r0, #0]
 10012ca:	6a01      	ldr	r1, [r0, #32]
 10012cc:	f411 4f00 	tst.w	r1, #32768	; 0x8000
 10012d0:	d1fb      	bne.n	0x10012ca
 10012d2:	21b0      	movs	r1, #176	; 0xb0
 10012d4:	6241      	str	r1, [r0, #36]	; 0x24
 10012d6:	2100      	movs	r1, #0
 10012d8:	6341      	str	r1, [r0, #52]	; 0x34
 10012da:	6381      	str	r1, [r0, #56]	; 0x38
 10012dc:	2101      	movs	r1, #1
 10012de:	6a02      	ldr	r2, [r0, #32]
 10012e0:	f412 4f00 	tst.w	r2, #32768	; 0x8000
 10012e4:	d1fb      	bne.n	0x10012de
 10012e6:	6201      	str	r1, [r0, #32]
 10012e8:	1c49      	adds	r1, r1, #1
 10012ea:	2920      	cmp	r1, #32
 10012ec:	d9f7      	bls.n	0x10012de
 10012ee:	210c      	movs	r1, #12
 10012f0:	6241      	str	r1, [r0, #36]	; 0x24
 10012f2:	2101      	movs	r1, #1
 10012f4:	6a02      	ldr	r2, [r0, #32]
 10012f6:	f412 4f00 	tst.w	r2, #32768	; 0x8000
 10012fa:	d1fb      	bne.n	0x10012f4
 10012fc:	6201      	str	r1, [r0, #32]
 10012fe:	1c49      	adds	r1, r1, #1
 1001300:	2920      	cmp	r1, #32
 1001302:	d9f7      	bls.n	0x10012f4
 1001304:	6840      	ldr	r0, [r0, #4]
 1001306:	4770      	bx	lr
 1001308:	6801      	ldr	r1, [r0, #0]
 100130a:	f021 0101 	bic.w	r1, r1, #1
 100130e:	6001      	str	r1, [r0, #0]
 1001310:	4770      	bx	lr
 1001312:	6801      	ldr	r1, [r0, #0]
 1001314:	f041 0101 	orr.w	r1, r1, #1
 1001318:	6001      	str	r1, [r0, #0]
 100131a:	4770      	bx	lr
 100131c:	6802      	ldr	r2, [r0, #0]
 100131e:	f042 0341 	orr.w	r3, r2, #65	; 0x41
 1001322:	6003      	str	r3, [r0, #0]
 1001324:	684b      	ldr	r3, [r1, #4]
 1001326:	f8d1 c000 	ldr.w	ip, [r1]
 100132a:	031b      	lsls	r3, r3, #12
 100132c:	ea4f 2c0c 	mov.w	ip, ip, lsl #8
 1001330:	f5a3 5380 	sub.w	r3, r3, #4096	; 0x1000
 1001334:	f5ac 7c80 	sub.w	ip, ip, #256	; 0x100
 1001338:	f403 43e0 	and.w	r3, r3, #28672	; 0x7000
 100133c:	f40c 6c70 	and.w	ip, ip, #3840	; 0xf00
 1001340:	ea4c 0303 	orr.w	r3, ip, r3
 1001344:	f8d1 c008 	ldr.w	ip, [r1, #8]
 1001348:	ea4f 1c8c 	mov.w	ip, ip, lsl #6
 100134c:	f1ac 0c40 	sub.w	ip, ip, #64	; 0x40
 1001350:	f00c 0cc0 	and.w	ip, ip, #192	; 0xc0
 1001354:	ea4c 0303 	orr.w	r3, ip, r3
 1001358:	f8d1 c00c 	ldr.w	ip, [r1, #12]
 100135c:	f1ac 0c01 	sub.w	ip, ip, #1
 1001360:	f00c 0c3f 	and.w	ip, ip, #63	; 0x3f
 1001364:	ea4c 0303 	orr.w	r3, ip, r3
 1001368:	60c3      	str	r3, [r0, #12]
 100136a:	68c9      	ldr	r1, [r1, #12]
 100136c:	1e49      	subs	r1, r1, #1
 100136e:	f3c1 1183 	ubfx	r1, r1, #6, #4
 1001372:	6181      	str	r1, [r0, #24]
 1001374:	f022 0140 	bic.w	r1, r2, #64	; 0x40
 1001378:	f011 0f01 	tst.w	r1, #1
 100137c:	bf18      	it	ne
 100137e:	f021 0101 	bicne.w	r1, r1, #1
 1001382:	6001      	str	r1, [r0, #0]
 1001384:	4770      	bx	lr
 1001386:	68c2      	ldr	r2, [r0, #12]
 1001388:	f3c2 3302 	ubfx	r3, r2, #12, #3
 100138c:	1c5b      	adds	r3, r3, #1
 100138e:	604b      	str	r3, [r1, #4]
 1001390:	f3c2 2303 	ubfx	r3, r2, #8, #4
 1001394:	1c5b      	adds	r3, r3, #1
 1001396:	600b      	str	r3, [r1, #0]
 1001398:	f3c2 1381 	ubfx	r3, r2, #6, #2
 100139c:	1c5b      	adds	r3, r3, #1
 100139e:	608b      	str	r3, [r1, #8]
 10013a0:	6980      	ldr	r0, [r0, #24]
 10013a2:	f000 000f 	and.w	r0, r0, #15
 10013a6:	f360 129f 	bfi	r2, r0, #6, #26
 10013aa:	1c50      	adds	r0, r2, #1
 10013ac:	60c8      	str	r0, [r1, #12]
 10013ae:	4770      	bx	lr
 10013b0:	e92d 5fff 	stmdb	sp!, {r0, r1, r2, r3, r4, r5, r6, r7, r8, r9, sl, fp, ip, lr}
 10013b4:	4604      	mov	r4, r0
 10013b6:	2100      	movs	r1, #0
 10013b8:	6a20      	ldr	r0, [r4, #32]
 10013ba:	f410 4f00 	tst.w	r0, #32768	; 0x8000
 10013be:	d1fb      	bne.n	0x10013b8
 10013c0:	f8d2 b000 	ldr.w	fp, [r2]
 10013c4:	f5bb 6f00 	cmp.w	fp, #2048	; 0x800
 10013c8:	d206      	bcs.n	0x10013d8
 10013ca:	6890      	ldr	r0, [r2, #8]
 10013cc:	f010 0f04 	tst.w	r0, #4
 10013d0:	bf08      	it	eq
 10013d2:	f04f 0900 	moveq.w	r9, #0
 10013d6:	d001      	beq.n	0x10013dc
 10013d8:	f04f 0901 	mov.w	r9, #1
 10013dc:	f04f 0800 	mov.w	r8, #0
 10013e0:	2693      	movs	r6, #147	; 0x93
 10013e2:	46c4      	mov	ip, r8
 10013e4:	4640      	mov	r0, r8
 10013e6:	4647      	mov	r7, r8
 10013e8:	4645      	mov	r5, r8
 10013ea:	2b05      	cmp	r3, #5
 10013ec:	bf24      	itt	cs
 10013ee:	b004      	addcs	sp, #16
 10013f0:	e8bd 9ff0 	ldmiacs.w	sp!, {r4, r5, r6, r7, r8, r9, sl, fp, ip, pc}
 10013f4:	e8df f003 	tbb	[pc, r3]
 10013f8:	0803      	lsrs	r3, r0, #32
 10013fa:	0b19      	lsrs	r1, r3, #12
 10013fc:	0014      	movs	r4, r2
 10013fe:	f44f 7080 	mov.w	r0, #256	; 0x100
 1001402:	f44f 5c00 	mov.w	ip, #8192	; 0x2000
 1001406:	e00f      	b.n	0x1001428
 1001408:	f44f 7080 	mov.w	r0, #256	; 0x100
 100140c:	e00d      	b.n	0x100142a
 100140e:	f64f 77ff 	movw	r7, #65535	; 0xffff
 1001412:	10fd      	asrs	r5, r7, #3
 1001414:	f44f 5c00 	mov.w	ip, #8192	; 0x2000
 1001418:	f44f 5080 	mov.w	r0, #4096	; 0x1000
 100141c:	26d3      	movs	r6, #211	; 0xd3
 100141e:	e004      	b.n	0x100142a
 1001420:	f44f 5c00 	mov.w	ip, #8192	; 0x2000
 1001424:	f44f 5090 	mov.w	r0, #4608	; 0x1200
 1001428:	2101      	movs	r1, #1
 100142a:	6893      	ldr	r3, [r2, #8]
 100142c:	f641 7eff 	movw	lr, #8191	; 0x1fff
 1001430:	f013 0f08 	tst.w	r3, #8
 1001434:	d00a      	beq.n	0x100144c
 1001436:	f1b9 0f00 	cmp.w	r9, #0
 100143a:	bf08      	it	eq
 100143c:	2700      	moveq	r7, #0
 100143e:	6855      	ldr	r5, [r2, #4]
 1001440:	bf1a      	itte	ne
 1001442:	b2af      	uxthne	r7, r5
 1001444:	f3c5 450c 	ubfxne	r5, r5, #16, #13
 1001448:	ea0e 0585 	andeq.w	r5, lr, r5, lsl #2
 100144c:	f04f 0a28 	mov.w	sl, #40	; 0x28
 1001450:	ea3a 0a03 	bics.w	sl, sl, r3
 1001454:	bf08      	it	eq
 1001456:	f445 4500 	orreq.w	r5, r5, #32768	; 0x8000
 100145a:	f04f 0a18 	mov.w	sl, #24
 100145e:	ea3a 0a03 	bics.w	sl, sl, r3
 1001462:	bf08      	it	eq
 1001464:	f445 4580 	orreq.w	r5, r5, #16384	; 0x4000
 1001468:	f013 0f38 	tst.w	r3, #56	; 0x38
 100146c:	bf1c      	itt	ne
 100146e:	f440 5080 	orrne.w	r0, r0, #4096	; 0x1000
 1001472:	f046 0640 	orrne.w	r6, r6, #64	; 0x40
 1001476:	f046 0a20 	orr.w	sl, r6, #32
 100147a:	f1b9 0f00 	cmp.w	r9, #0
 100147e:	d008      	beq.n	0x1001492
 1001480:	f3cb 460c 	ubfx	r6, fp, #16, #13
 1001484:	ea46 0c0c 	orr.w	ip, r6, ip
 1001488:	fa1f f88b 	uxth.w	r8, fp
 100148c:	f44c 4940 	orr.w	r9, ip, #49152	; 0xc000
 1001490:	e005      	b.n	0x100149e
 1001492:	ea0e 068b 	and.w	r6, lr, fp, lsl #2
 1001496:	ea46 0c0c 	orr.w	ip, r6, ip
 100149a:	f44c 4900 	orr.w	r9, ip, #32768	; 0x8000
 100149e:	f8d2 c00c 	ldr.w	ip, [r2, #12]
 10014a2:	f00c 060f 	and.w	r6, ip, #15
 10014a6:	4306      	orrs	r6, r0
 10014a8:	f413 7f00 	tst.w	r3, #512	; 0x200
 10014ac:	bf08      	it	eq
 10014ae:	f046 0680 	orreq.w	r6, r6, #128	; 0x80
 10014b2:	f013 0f01 	tst.w	r3, #1
 10014b6:	bf18      	it	ne
 10014b8:	f446 6600 	orrne.w	r6, r6, #2048	; 0x800
 10014bc:	f013 0f02 	tst.w	r3, #2
 10014c0:	bf18      	it	ne
 10014c2:	f446 6680 	orrne.w	r6, r6, #1024	; 0x400
 10014c6:	b129      	cbz	r1, 0x10014d4
 10014c8:	6910      	ldr	r0, [r2, #16]
 10014ca:	4662      	mov	r2, ip
 10014cc:	f104 013c 	add.w	r1, r4, #60	; 0x3c
 10014d0:	f7ff fee4 	bl	0x100129c
 10014d4:	f8c4 a024 	str.w	sl, [r4, #36]	; 0x24
 10014d8:	62a7      	str	r7, [r4, #40]	; 0x28
 10014da:	62e5      	str	r5, [r4, #44]	; 0x2c
 10014dc:	f8c4 8030 	str.w	r8, [r4, #48]	; 0x30
 10014e0:	f8c4 9034 	str.w	r9, [r4, #52]	; 0x34
 10014e4:	63a6      	str	r6, [r4, #56]	; 0x38
 10014e6:	9801      	ldr	r0, [sp, #4]
 10014e8:	f000 003f 	and.w	r0, r0, #63	; 0x3f
 10014ec:	6220      	str	r0, [r4, #32]
 10014ee:	b004      	add	sp, #16
 10014f0:	e8bd 9ff0 	ldmia.w	sp!, {r4, r5, r6, r7, r8, r9, sl, fp, ip, pc}
 10014f4:	e92d 41f0 	stmdb	sp!, {r4, r5, r6, r7, r8, lr}
 10014f8:	4605      	mov	r5, r0
 10014fa:	2073      	movs	r0, #115	; 0x73
 10014fc:	4614      	mov	r4, r2
 10014fe:	2b00      	cmp	r3, #0
 1001500:	bf18      	it	ne
 1001502:	207b      	movne	r0, #123	; 0x7b
 1001504:	f8c5 0084 	str.w	r0, [r5, #132]	; 0x84
 1001508:	f001 063f 	and.w	r6, r1, #63	; 0x3f
 100150c:	f8c5 6080 	str.w	r6, [r5, #128]	; 0x80
 1001510:	f8d5 0080 	ldr.w	r0, [r5, #128]	; 0x80
 1001514:	f410 4f00 	tst.w	r0, #32768	; 0x8000
 1001518:	d1fa      	bne.n	0x1001510
 100151a:	f8d5 0088 	ldr.w	r0, [r5, #136]	; 0x88
 100151e:	b283      	uxth	r3, r0
 1001520:	f8d5 008c 	ldr.w	r0, [r5, #140]	; 0x8c
 1001524:	b282      	uxth	r2, r0
 1001526:	f8d5 0090 	ldr.w	r0, [r5, #144]	; 0x90
 100152a:	fa1f fc80 	uxth.w	ip, r0
 100152e:	f8d5 0094 	ldr.w	r0, [r5, #148]	; 0x94
 1001532:	b281      	uxth	r1, r0
 1001534:	f8d5 0098 	ldr.w	r0, [r5, #152]	; 0x98
 1001538:	2700      	movs	r7, #0
 100153a:	b280      	uxth	r0, r0
 100153c:	60a7      	str	r7, [r4, #8]
 100153e:	f410 7f80 	tst.w	r0, #256	; 0x100
 1001542:	f401 5800 	and.w	r8, r1, #8192	; 0x2000
 1001546:	d003      	beq.n	0x1001550
 1001548:	f1b8 0f00 	cmp.w	r8, #0
 100154c:	d003      	beq.n	0x1001556
 100154e:	e006      	b.n	0x100155e
 1001550:	f1b8 0f00 	cmp.w	r8, #0
 1001554:	d003      	beq.n	0x100155e
 1001556:	f04f 0840 	mov.w	r8, #64	; 0x40
 100155a:	f8c4 8008 	str.w	r8, [r4, #8]
 100155e:	f411 4f80 	tst.w	r1, #16384	; 0x4000
 1001562:	bf04      	itt	eq
 1001564:	f3c1 0c8a 	ubfxeq	ip, r1, #2, #11
 1001568:	f8c4 c000 	streq.w	ip, [r4]
 100156c:	d00b      	beq.n	0x1001586
 100156e:	f3c1 080c 	ubfx	r8, r1, #0, #13
 1001572:	ea4c 4c08 	orr.w	ip, ip, r8, lsl #16
 1001576:	f8c4 c000 	str.w	ip, [r4]
 100157a:	f8d4 c008 	ldr.w	ip, [r4, #8]
 100157e:	f04c 0c04 	orr.w	ip, ip, #4
 1001582:	f8c4 c008 	str.w	ip, [r4, #8]
 1001586:	f410 4f80 	tst.w	r0, #16384	; 0x4000
 100158a:	d005      	beq.n	0x1001598
 100158c:	f8d4 c008 	ldr.w	ip, [r4, #8]
 1001590:	f44c 7c80 	orr.w	ip, ip, #256	; 0x100
 1001594:	f8c4 c008 	str.w	ip, [r4, #8]
 1001598:	f410 5f80 	tst.w	r0, #4096	; 0x1000
 100159c:	d02d      	beq.n	0x10015fa
 100159e:	f411 4f80 	tst.w	r1, #16384	; 0x4000
 10015a2:	d00d      	beq.n	0x10015c0
 10015a4:	f3c2 010c 	ubfx	r1, r2, #0, #13
 10015a8:	ea43 4101 	orr.w	r1, r3, r1, lsl #16
 10015ac:	f06f 4360 	mvn.w	r3, #3758096384	; 0xe0000000
 10015b0:	6061      	str	r1, [r4, #4]
 10015b2:	4299      	cmp	r1, r3
 10015b4:	d10f      	bne.n	0x10015d6
 10015b6:	68a1      	ldr	r1, [r4, #8]
 10015b8:	f011 0f40 	tst.w	r1, #64	; 0x40
 10015bc:	d10f      	bne.n	0x10015de
 10015be:	e00a      	b.n	0x10015d6
 10015c0:	f3c2 018a 	ubfx	r1, r2, #2, #11
 10015c4:	f5a1 63e0 	sub.w	r3, r1, #1792	; 0x700
 10015c8:	6061      	str	r1, [r4, #4]
 10015ca:	3bff      	subs	r3, #255	; 0xff
 10015cc:	d103      	bne.n	0x10015d6
 10015ce:	68a1      	ldr	r1, [r4, #8]
 10015d0:	f011 0f40 	tst.w	r1, #64	; 0x40
 10015d4:	d103      	bne.n	0x10015de
 10015d6:	68a1      	ldr	r1, [r4, #8]
 10015d8:	f041 0108 	orr.w	r1, r1, #8
 10015dc:	60a1      	str	r1, [r4, #8]
 10015de:	f412 4f00 	tst.w	r2, #32768	; 0x8000
 10015e2:	d003      	beq.n	0x10015ec
 10015e4:	68a1      	ldr	r1, [r4, #8]
 10015e6:	f041 0128 	orr.w	r1, r1, #40	; 0x28
 10015ea:	60a1      	str	r1, [r4, #8]
 10015ec:	f412 4f80 	tst.w	r2, #16384	; 0x4000
 10015f0:	d003      	beq.n	0x10015fa
 10015f2:	68a1      	ldr	r1, [r4, #8]
 10015f4:	f041 0118 	orr.w	r1, r1, #24
 10015f8:	60a1      	str	r1, [r4, #8]
 10015fa:	f410 6f00 	tst.w	r0, #2048	; 0x800
 10015fe:	d003      	beq.n	0x1001608
 1001600:	68a1      	ldr	r1, [r4, #8]
 1001602:	f041 0101 	orr.w	r1, r1, #1
 1001606:	60a1      	str	r1, [r4, #8]
 1001608:	f410 6f80 	tst.w	r0, #1024	; 0x400
 100160c:	d003      	beq.n	0x1001616
 100160e:	68a1      	ldr	r1, [r4, #8]
 1001610:	f041 0102 	orr.w	r1, r1, #2
 1001614:	60a1      	str	r1, [r4, #8]
 1001616:	f410 4f00 	tst.w	r0, #32768	; 0x8000
 100161a:	bf04      	itt	eq
 100161c:	60e7      	streq	r7, [r4, #12]
 100161e:	e8bd 81f0 	ldmiaeq.w	sp!, {r4, r5, r6, r7, r8, pc}
 1001622:	f000 020f 	and.w	r2, r0, #15
 1001626:	60e2      	str	r2, [r4, #12]
 1001628:	68a0      	ldr	r0, [r4, #8]
 100162a:	f010 0f40 	tst.w	r0, #64	; 0x40
 100162e:	d104      	bne.n	0x100163a
 1001630:	f105 019c 	add.w	r1, r5, #156	; 0x9c
 1001634:	6920      	ldr	r0, [r4, #16]
 1001636:	f7ff fe1e 	bl	0x1001276
 100163a:	2004      	movs	r0, #4
 100163c:	f8c5 0084 	str.w	r0, [r5, #132]	; 0x84
 1001640:	f8c5 6080 	str.w	r6, [r5, #128]	; 0x80
 1001644:	f8d5 0080 	ldr.w	r0, [r5, #128]	; 0x80
 1001648:	f410 4f00 	tst.w	r0, #32768	; 0x8000
 100164c:	d1fa      	bne.n	0x1001644
 100164e:	68a0      	ldr	r0, [r4, #8]
 1001650:	f040 0080 	orr.w	r0, r0, #128	; 0x80
 1001654:	60a0      	str	r0, [r4, #8]
 1001656:	e8bd 81f0 	ldmia.w	sp!, {r4, r5, r6, r7, r8, pc}
 100165a:	b1c1      	cbz	r1, 0x100168e
 100165c:	2901      	cmp	r1, #1
 100165e:	bf04      	itt	eq
 1001660:	f8d0 1100 	ldreq.w	r1, [r0, #256]	; 0x100
 1001664:	f8d0 0104 	ldreq.w	r0, [r0, #260]	; 0x104
 1001668:	d016      	beq.n	0x1001698
 100166a:	2902      	cmp	r1, #2
 100166c:	bf04      	itt	eq
 100166e:	f8d0 1120 	ldreq.w	r1, [r0, #288]	; 0x120
 1001672:	f8d0 0124 	ldreq.w	r0, [r0, #292]	; 0x124
 1001676:	d00f      	beq.n	0x1001698
 1001678:	2903      	cmp	r1, #3
 100167a:	bf11      	iteee	ne
 100167c:	2100      	movne	r1, #0
 100167e:	f8d0 1160 	ldreq.w	r1, [r0, #352]	; 0x160
 1001682:	f8d0 0164 	ldreq.w	r0, [r0, #356]	; 0x164
 1001686:	ea41 4100 	orreq.w	r1, r1, r0, lsl #16
 100168a:	4608      	mov	r0, r1
 100168c:	4770      	bx	lr
 100168e:	6841      	ldr	r1, [r0, #4]
 1001690:	f06f 021f 	mvn.w	r2, #31
 1001694:	6042      	str	r2, [r0, #4]
 1001696:	e7f8      	b.n	0x100168a
 1001698:	ea41 4100 	orr.w	r1, r1, r0, lsl #16
 100169c:	e7f5      	b.n	0x100168a
 100169e:	6a02      	ldr	r2, [r0, #32]
 10016a0:	f412 4f00 	tst.w	r2, #32768	; 0x8000
 10016a4:	d1fb      	bne.n	0x100169e
 10016a6:	22a0      	movs	r2, #160	; 0xa0
 10016a8:	6242      	str	r2, [r0, #36]	; 0x24
 10016aa:	2200      	movs	r2, #0
 10016ac:	6302      	str	r2, [r0, #48]	; 0x30
 10016ae:	6342      	str	r2, [r0, #52]	; 0x34
 10016b0:	f001 013f 	and.w	r1, r1, #63	; 0x3f
 10016b4:	6201      	str	r1, [r0, #32]
 10016b6:	4770      	bx	lr
 10016b8:	6802      	ldr	r2, [r0, #0]
 10016ba:	4311      	orrs	r1, r2
 10016bc:	6001      	str	r1, [r0, #0]
 10016be:	4770      	bx	lr
 10016c0:	6802      	ldr	r2, [r0, #0]
 10016c2:	ea22 0101 	bic.w	r1, r2, r1
 10016c6:	6001      	str	r1, [r0, #0]
 10016c8:	4770      	bx	lr
 10016ca:	f5b1 4f00 	cmp.w	r1, #32768	; 0x8000
 10016ce:	bf04      	itt	eq
 10016d0:	6840      	ldreq	r0, [r0, #4]
 10016d2:	4770      	bxeq	lr
 10016d4:	6a02      	ldr	r2, [r0, #32]
 10016d6:	f412 4f00 	tst.w	r2, #32768	; 0x8000
 10016da:	d1fb      	bne.n	0x10016d4
 10016dc:	2208      	movs	r2, #8
 10016de:	6242      	str	r2, [r0, #36]	; 0x24
 10016e0:	f001 013f 	and.w	r1, r1, #63	; 0x3f
 10016e4:	6201      	str	r1, [r0, #32]
 10016e6:	6a01      	ldr	r1, [r0, #32]
 10016e8:	f411 4f00 	tst.w	r1, #32768	; 0x8000
 10016ec:	d1fb      	bne.n	0x10016e6
 10016ee:	4770      	bx	lr
 10016f0:	2900      	cmp	r1, #0
 10016f2:	bf04      	itt	eq
 10016f4:	6900      	ldreq	r0, [r0, #16]
 10016f6:	4770      	bxeq	lr
 10016f8:	2901      	cmp	r1, #1
 10016fa:	bf1c      	itt	ne
 10016fc:	2000      	movne	r0, #0
 10016fe:	4770      	bxne	lr
 1001700:	f8d0 1140 	ldr.w	r1, [r0, #320]	; 0x140
 1001704:	f8d0 0144 	ldr.w	r0, [r0, #324]	; 0x144
 1001708:	b289      	uxth	r1, r1
 100170a:	ea41 4000 	orr.w	r0, r1, r0, lsl #16
 100170e:	4770      	bx	lr
 1001710:	6800      	ldr	r0, [r0, #0]
 1001712:	f010 0f20 	tst.w	r0, #32
 1001716:	bf14      	ite	ne
 1001718:	2000      	movne	r0, #0
 100171a:	2001      	moveq	r0, #1
 100171c:	4770      	bx	lr
 100171e:	6802      	ldr	r2, [r0, #0]
 1001720:	2900      	cmp	r1, #0
 1001722:	bf14      	ite	ne
 1001724:	f022 0120 	bicne.w	r1, r2, #32
 1001728:	f042 0120 	orreq.w	r1, r2, #32
 100172c:	6001      	str	r1, [r0, #0]
 100172e:	4770      	bx	lr
 1001730:	6880      	ldr	r0, [r0, #8]
 1001732:	f3c0 2306 	ubfx	r3, r0, #8, #7
 1001736:	600b      	str	r3, [r1, #0]
 1001738:	b2c1      	uxtb	r1, r0
 100173a:	6011      	str	r1, [r2, #0]
 100173c:	f410 4000 	ands.w	r0, r0, #32768	; 0x8000
 1001740:	bf18      	it	ne
 1001742:	2001      	movne	r0, #1
 1001744:	4770      	bx	lr
 1001746:	fbb1 f3f2 	udiv	r3, r1, r2
 100174a:	fbb1 fcf3 	udiv	ip, r1, r3
 100174e:	b470      	push	{r4, r5, r6}
 1001750:	4594      	cmp	ip, r2
 1001752:	bf88      	it	hi
 1001754:	1c5b      	addhi	r3, r3, #1
 1001756:	f5b3 4f98 	cmp.w	r3, #19456	; 0x4c00
 100175a:	d827      	bhi.n	0x10017ac
 100175c:	2213      	movs	r2, #19
 100175e:	fbb3 fcf2 	udiv	ip, r3, r2
 1001762:	fb0c f402 	mul.w	r4, ip, r2
 1001766:	429c      	cmp	r4, r3
 1001768:	d119      	bne.n	0x100179e
 100176a:	4bfa      	ldr	r3, [pc, #1000]	; (0x1001b54)
 100176c:	eb03 0342 	add.w	r3, r3, r2, lsl #1
 1001770:	f833 5c08 	ldrh.w	r5, [r3, #-8]
 1001774:	6803      	ldr	r3, [r0, #0]
 1001776:	b29b      	uxth	r3, r3
 1001778:	f043 0441 	orr.w	r4, r3, #65	; 0x41
 100177c:	6004      	str	r4, [r0, #0]
 100177e:	f1ac 0401 	sub.w	r4, ip, #1
 1001782:	f004 063f 	and.w	r6, r4, #63	; 0x3f
 1001786:	4335      	orrs	r5, r6
 1001788:	60c5      	str	r5, [r0, #12]
 100178a:	f3c4 1483 	ubfx	r4, r4, #6, #4
 100178e:	6184      	str	r4, [r0, #24]
 1001790:	6003      	str	r3, [r0, #0]
 1001792:	fb0c f002 	mul.w	r0, ip, r2
 1001796:	fbb1 f0f0 	udiv	r0, r1, r0
 100179a:	bc70      	pop	{r4, r5, r6}
 100179c:	4770      	bx	lr
 100179e:	1e52      	subs	r2, r2, #1
 10017a0:	2a04      	cmp	r2, #4
 10017a2:	d2dc      	bcs.n	0x100175e
 10017a4:	1c5b      	adds	r3, r3, #1
 10017a6:	f5b3 4f98 	cmp.w	r3, #19456	; 0x4c00
 10017aa:	d9d7      	bls.n	0x100175c
 10017ac:	bc70      	pop	{r4, r5, r6}
 10017ae:	2000      	movs	r0, #0
 10017b0:	4770      	bx	lr
 10017b2:	eb00 1041 	add.w	r0, r0, r1, lsl #5
 10017b6:	6242      	str	r2, [r0, #36]	; 0x24
 10017b8:	4770      	bx	lr
 10017ba:	6101      	str	r1, [r0, #16]
 10017bc:	4770      	bx	lr
 10017be:	eb00 1041 	add.w	r0, r0, r1, lsl #5
 10017c2:	6a00      	ldr	r0, [r0, #32]
 10017c4:	f010 0002 	ands.w	r0, r0, #2
 10017c8:	bf18      	it	ne
 10017ca:	2001      	movne	r0, #1
 10017cc:	4770      	bx	lr
 10017ce:	6882      	ldr	r2, [r0, #8]
 10017d0:	2301      	movs	r3, #1
 10017d2:	fa03 f101 	lsl.w	r1, r3, r1
 10017d6:	4311      	orrs	r1, r2
 10017d8:	6081      	str	r1, [r0, #8]
 10017da:	4770      	bx	lr
 10017dc:	6882      	ldr	r2, [r0, #8]
 10017de:	2301      	movs	r3, #1
 10017e0:	fa03 f101 	lsl.w	r1, r3, r1
 10017e4:	ea22 0101 	bic.w	r1, r2, r1
 10017e8:	6081      	str	r1, [r0, #8]
 10017ea:	4770      	bx	lr
 10017ec:	2a00      	cmp	r2, #0
 10017ee:	bf14      	ite	ne
 10017f0:	6800      	ldrne	r0, [r0, #0]
 10017f2:	6840      	ldreq	r0, [r0, #4]
 10017f4:	fa20 f001 	lsr.w	r0, r0, r1
 10017f8:	f000 0001 	and.w	r0, r0, #1
 10017fc:	4770      	bx	lr
 10017fe:	2201      	movs	r2, #1
 1001800:	fa02 f101 	lsl.w	r1, r2, r1
 1001804:	6001      	str	r1, [r0, #0]
 1001806:	4770      	bx	lr
 1001808:	f8df c34c 	ldr.w	ip, [pc, #844]	; 0x1001b58
 100180c:	f011 0f01 	tst.w	r1, #1
 1001810:	d005      	beq.n	0x100181e
 1001812:	f811 3b01 	ldrb.w	r3, [r1], #1
 1001816:	4058      	eors	r0, r3
 1001818:	1e52      	subs	r2, r2, #1
 100181a:	f81c 0000 	ldrb.w	r0, [ip, r0]
 100181e:	f001 0302 	and.w	r3, r1, #2
 1001822:	2b00      	cmp	r3, #0
 1001824:	bf18      	it	ne
 1001826:	2a01      	cmpne	r2, #1
 1001828:	d90a      	bls.n	0x1001840
 100182a:	f831 3b02 	ldrh.w	r3, [r1], #2
 100182e:	4058      	eors	r0, r3
 1001830:	b2c0      	uxtb	r0, r0
 1001832:	1e92      	subs	r2, r2, #2
 1001834:	f81c 0000 	ldrb.w	r0, [ip, r0]
 1001838:	ea80 2013 	eor.w	r0, r0, r3, lsr #8
 100183c:	f81c 0000 	ldrb.w	r0, [ip, r0]
 1001840:	2a03      	cmp	r2, #3
 1001842:	d916      	bls.n	0x1001872
 1001844:	f851 3b04 	ldr.w	r3, [r1], #4
 1001848:	1f12      	subs	r2, r2, #4
 100184a:	4058      	eors	r0, r3
 100184c:	b2c0      	uxtb	r0, r0
 100184e:	2a03      	cmp	r2, #3
 1001850:	f81c 0000 	ldrb.w	r0, [ip, r0]
 1001854:	ea80 2013 	eor.w	r0, r0, r3, lsr #8
 1001858:	b2c0      	uxtb	r0, r0
 100185a:	f81c 0000 	ldrb.w	r0, [ip, r0]
 100185e:	ea80 4013 	eor.w	r0, r0, r3, lsr #16
 1001862:	b2c0      	uxtb	r0, r0
 1001864:	f81c 0000 	ldrb.w	r0, [ip, r0]
 1001868:	ea80 6013 	eor.w	r0, r0, r3, lsr #24
 100186c:	f81c 0000 	ldrb.w	r0, [ip, r0]
 1001870:	d8e8      	bhi.n	0x1001844
 1001872:	2a01      	cmp	r2, #1
 1001874:	d90a      	bls.n	0x100188c
 1001876:	f831 3b02 	ldrh.w	r3, [r1], #2
 100187a:	4058      	eors	r0, r3
 100187c:	b2c0      	uxtb	r0, r0
 100187e:	1e92      	subs	r2, r2, #2
 1001880:	f81c 0000 	ldrb.w	r0, [ip, r0]
 1001884:	ea80 2013 	eor.w	r0, r0, r3, lsr #8
 1001888:	f81c 0000 	ldrb.w	r0, [ip, r0]
 100188c:	2a00      	cmp	r2, #0
 100188e:	bf08      	it	eq
 1001890:	4770      	bxeq	lr
 1001892:	7809      	ldrb	r1, [r1, #0]
 1001894:	4048      	eors	r0, r1
 1001896:	f81c 0000 	ldrb.w	r0, [ip, r0]
 100189a:	4770      	bx	lr
 100189c:	b410      	push	{r4}
 100189e:	f8df c2bc 	ldr.w	ip, [pc, #700]	; 0x1001b5c
 10018a2:	f011 0f01 	tst.w	r1, #1
 10018a6:	d009      	beq.n	0x10018bc
 10018a8:	f811 3b01 	ldrb.w	r3, [r1], #1
 10018ac:	4043      	eors	r3, r0
 10018ae:	061b      	lsls	r3, r3, #24
 10018b0:	0ddb      	lsrs	r3, r3, #23
 10018b2:	f83c 3003 	ldrh.w	r3, [ip, r3]
 10018b6:	1e52      	subs	r2, r2, #1
 10018b8:	ea83 2010 	eor.w	r0, r3, r0, lsr #8
 10018bc:	f001 0302 	and.w	r3, r1, #2
 10018c0:	2b00      	cmp	r3, #0
 10018c2:	bf18      	it	ne
 10018c4:	2a01      	cmpne	r2, #1
 10018c6:	d912      	bls.n	0x10018ee
 10018c8:	f831 3b02 	ldrh.w	r3, [r1], #2
 10018cc:	ea80 0403 	eor.w	r4, r0, r3
 10018d0:	0624      	lsls	r4, r4, #24
 10018d2:	0de4      	lsrs	r4, r4, #23
 10018d4:	f83c 4004 	ldrh.w	r4, [ip, r4]
 10018d8:	ea84 2010 	eor.w	r0, r4, r0, lsr #8
 10018dc:	ea80 2313 	eor.w	r3, r0, r3, lsr #8
 10018e0:	061b      	lsls	r3, r3, #24
 10018e2:	0ddb      	lsrs	r3, r3, #23
 10018e4:	f83c 3003 	ldrh.w	r3, [ip, r3]
 10018e8:	1e92      	subs	r2, r2, #2
 10018ea:	ea83 2010 	eor.w	r0, r3, r0, lsr #8
 10018ee:	2a03      	cmp	r2, #3
 10018f0:	d924      	bls.n	0x100193c
 10018f2:	680b      	ldr	r3, [r1, #0]
 10018f4:	1d09      	adds	r1, r1, #4
 10018f6:	ea80 0403 	eor.w	r4, r0, r3
 10018fa:	0624      	lsls	r4, r4, #24
 10018fc:	0de4      	lsrs	r4, r4, #23
 10018fe:	f83c 4004 	ldrh.w	r4, [ip, r4]
 1001902:	1f12      	subs	r2, r2, #4
 1001904:	ea84 2010 	eor.w	r0, r4, r0, lsr #8
 1001908:	ea80 2413 	eor.w	r4, r0, r3, lsr #8
 100190c:	0624      	lsls	r4, r4, #24
 100190e:	0de4      	lsrs	r4, r4, #23
 1001910:	f83c 4004 	ldrh.w	r4, [ip, r4]
 1001914:	ea84 2010 	eor.w	r0, r4, r0, lsr #8
 1001918:	ea80 4413 	eor.w	r4, r0, r3, lsr #16
 100191c:	0624      	lsls	r4, r4, #24
 100191e:	0de4      	lsrs	r4, r4, #23
 1001920:	f83c 4004 	ldrh.w	r4, [ip, r4]
 1001924:	ea84 2010 	eor.w	r0, r4, r0, lsr #8
 1001928:	ea80 6313 	eor.w	r3, r0, r3, lsr #24
 100192c:	061b      	lsls	r3, r3, #24
 100192e:	0ddb      	lsrs	r3, r3, #23
 1001930:	f83c 3003 	ldrh.w	r3, [ip, r3]
 1001934:	2a03      	cmp	r2, #3
 1001936:	ea83 2010 	eor.w	r0, r3, r0, lsr #8
 100193a:	d8da      	bhi.n	0x10018f2
 100193c:	2a01      	cmp	r2, #1
 100193e:	d912      	bls.n	0x1001966
 1001940:	f831 3b02 	ldrh.w	r3, [r1], #2
 1001944:	ea80 0403 	eor.w	r4, r0, r3
 1001948:	0624      	lsls	r4, r4, #24
 100194a:	0de4      	lsrs	r4, r4, #23
 100194c:	f83c 4004 	ldrh.w	r4, [ip, r4]
 1001950:	ea84 2010 	eor.w	r0, r4, r0, lsr #8
 1001954:	ea80 2313 	eor.w	r3, r0, r3, lsr #8
 1001958:	061b      	lsls	r3, r3, #24
 100195a:	0ddb      	lsrs	r3, r3, #23
 100195c:	f83c 3003 	ldrh.w	r3, [ip, r3]
 1001960:	1e92      	subs	r2, r2, #2
 1001962:	ea83 2010 	eor.w	r0, r3, r0, lsr #8
 1001966:	2a00      	cmp	r2, #0
 1001968:	bf04      	itt	eq
 100196a:	bc10      	popeq	{r4}
 100196c:	4770      	bxeq	lr
 100196e:	7809      	ldrb	r1, [r1, #0]
 1001970:	4041      	eors	r1, r0
 1001972:	0609      	lsls	r1, r1, #24
 1001974:	0dc9      	lsrs	r1, r1, #23
 1001976:	f83c 1001 	ldrh.w	r1, [ip, r1]
 100197a:	bc10      	pop	{r4}
 100197c:	ea81 2010 	eor.w	r0, r1, r0, lsr #8
 1001980:	4770      	bx	lr
 1001982:	0082      	lsls	r2, r0, #2
 1001984:	2000      	movs	r0, #0
 1001986:	e789      	b.n	0x100189c
 1001988:	b4f0      	push	{r4, r5, r6, r7}
 100198a:	f04f 0c00 	mov.w	ip, #0
 100198e:	1e46      	subs	r6, r0, #1
 1001990:	4664      	mov	r4, ip
 1001992:	4665      	mov	r5, ip
 1001994:	2800      	cmp	r0, #0
 1001996:	bf18      	it	ne
 1001998:	4b70      	ldrne	r3, [pc, #448]	; (0x1001b5c)
 100199a:	d03b      	beq.n	0x1001a14
 100199c:	f851 0b04 	ldr.w	r0, [r1], #4
 10019a0:	ea8c 0700 	eor.w	r7, ip, r0
 10019a4:	063f      	lsls	r7, r7, #24
 10019a6:	0dff      	lsrs	r7, r7, #23
 10019a8:	5bdf      	ldrh	r7, [r3, r7]
 10019aa:	ea87 2c1c 	eor.w	ip, r7, ip, lsr #8
 10019ae:	ea8c 2710 	eor.w	r7, ip, r0, lsr #8
 10019b2:	063f      	lsls	r7, r7, #24
 10019b4:	0dff      	lsrs	r7, r7, #23
 10019b6:	5bdf      	ldrh	r7, [r3, r7]
 10019b8:	ea87 2c1c 	eor.w	ip, r7, ip, lsr #8
 10019bc:	ea8c 4710 	eor.w	r7, ip, r0, lsr #16
 10019c0:	063f      	lsls	r7, r7, #24
 10019c2:	0dff      	lsrs	r7, r7, #23
 10019c4:	5bdf      	ldrh	r7, [r3, r7]
 10019c6:	ea87 2c1c 	eor.w	ip, r7, ip, lsr #8
 10019ca:	ea8c 6710 	eor.w	r7, ip, r0, lsr #24
 10019ce:	063f      	lsls	r7, r7, #24
 10019d0:	0dff      	lsrs	r7, r7, #23
 10019d2:	5bdf      	ldrh	r7, [r3, r7]
 10019d4:	ea87 2c1c 	eor.w	ip, r7, ip, lsr #8
 10019d8:	ea85 0700 	eor.w	r7, r5, r0
 10019dc:	063f      	lsls	r7, r7, #24
 10019de:	0dff      	lsrs	r7, r7, #23
 10019e0:	5bdf      	ldrh	r7, [r3, r7]
 10019e2:	ea87 2515 	eor.w	r5, r7, r5, lsr #8
 10019e6:	ea85 4710 	eor.w	r7, r5, r0, lsr #16
 10019ea:	063f      	lsls	r7, r7, #24
 10019ec:	0dff      	lsrs	r7, r7, #23
 10019ee:	5bdf      	ldrh	r7, [r3, r7]
 10019f0:	ea87 2515 	eor.w	r5, r7, r5, lsr #8
 10019f4:	ea84 2710 	eor.w	r7, r4, r0, lsr #8
 10019f8:	063f      	lsls	r7, r7, #24
 10019fa:	0dff      	lsrs	r7, r7, #23
 10019fc:	5bdf      	ldrh	r7, [r3, r7]
 10019fe:	ea87 2414 	eor.w	r4, r7, r4, lsr #8
 1001a02:	ea84 6010 	eor.w	r0, r4, r0, lsr #24
 1001a06:	0600      	lsls	r0, r0, #24
 1001a08:	0dc0      	lsrs	r0, r0, #23
 1001a0a:	5a18      	ldrh	r0, [r3, r0]
 1001a0c:	1e76      	subs	r6, r6, #1
 1001a0e:	ea80 2414 	eor.w	r4, r0, r4, lsr #8
 1001a12:	d2c3      	bcs.n	0x100199c
 1001a14:	f8a2 c000 	strh.w	ip, [r2]
 1001a18:	8055      	strh	r5, [r2, #2]
 1001a1a:	8094      	strh	r4, [r2, #4]
 1001a1c:	bcf0      	pop	{r4, r5, r6, r7}
 1001a1e:	4770      	bx	lr
 1001a20:	484f      	ldr	r0, [pc, #316]	; (0x1001b60)
 1001a22:	6981      	ldr	r1, [r0, #24]
 1001a24:	f011 0f01 	tst.w	r1, #1
 1001a28:	d1fb      	bne.n	0x1001a22
 1001a2a:	4770      	bx	lr
 1001a2c:	484c      	ldr	r0, [pc, #304]	; (0x1001b60)
 1001a2e:	6800      	ldr	r0, [r0, #0]
 1001a30:	f3c0 400a 	ubfx	r0, r0, #16, #11
 1001a34:	4770      	bx	lr
 1001a36:	2101      	movs	r1, #1
 1001a38:	fa01 f000 	lsl.w	r0, r1, r0
 1001a3c:	4948      	ldr	r1, [pc, #288]	; (0x1001b60)
 1001a3e:	6508      	str	r0, [r1, #80]	; 0x50
 1001a40:	4770      	bx	lr
 1001a42:	4947      	ldr	r1, [pc, #284]	; (0x1001b60)
 1001a44:	6048      	str	r0, [r1, #4]
 1001a46:	f04f 30ff 	mov.w	r0, #4294967295	; 0xffffffff
 1001a4a:	6208      	str	r0, [r1, #32]
 1001a4c:	6a08      	ldr	r0, [r1, #32]
 1001a4e:	4770      	bx	lr
 1001a50:	4b43      	ldr	r3, [pc, #268]	; (0x1001b60)
 1001a52:	6058      	str	r0, [r3, #4]
 1001a54:	f8df c10c 	ldr.w	ip, [pc, #268]	; 0x1001b64
 1001a58:	b152      	cbz	r2, 0x1001a70
 1001a5a:	f851 0b04 	ldr.w	r0, [r1], #4
 1001a5e:	f84c 0b04 	str.w	r0, [ip], #4
 1001a62:	1e52      	subs	r2, r2, #1
 1001a64:	6998      	ldr	r0, [r3, #24]
 1001a66:	f010 0f01 	tst.w	r0, #1
 1001a6a:	d1fb      	bne.n	0x1001a64
 1001a6c:	2a00      	cmp	r2, #0
 1001a6e:	d1f4      	bne.n	0x1001a5a
 1001a70:	6998      	ldr	r0, [r3, #24]
 1001a72:	4770      	bx	lr
 1001a74:	493a      	ldr	r1, [pc, #232]	; (0x1001b60)
 1001a76:	6048      	str	r0, [r1, #4]
 1001a78:	6b08      	ldr	r0, [r1, #48]	; 0x30
 1001a7a:	4770      	bx	lr
 1001a7c:	4a38      	ldr	r2, [pc, #224]	; (0x1001b60)
 1001a7e:	6050      	str	r0, [r2, #4]
 1001a80:	6311      	str	r1, [r2, #48]	; 0x30
 1001a82:	6990      	ldr	r0, [r2, #24]
 1001a84:	f010 0f01 	tst.w	r0, #1
 1001a88:	d1fb      	bne.n	0x1001a82
 1001a8a:	6990      	ldr	r0, [r2, #24]
 1001a8c:	4770      	bx	lr
 1001a8e:	4b34      	ldr	r3, [pc, #208]	; (0x1001b60)
 1001a90:	6058      	str	r0, [r3, #4]
 1001a92:	f04f 30ff 	mov.w	r0, #4294967295	; 0xffffffff
 1001a96:	6218      	str	r0, [r3, #32]
 1001a98:	eb01 0082 	add.w	r0, r1, r2, lsl #2
 1001a9c:	1f00      	subs	r0, r0, #4
 1001a9e:	b122      	cbz	r2, 0x1001aaa
 1001aa0:	f850 1904 	ldr.w	r1, [r0], #-4
 1001aa4:	6219      	str	r1, [r3, #32]
 1001aa6:	1e52      	subs	r2, r2, #1
 1001aa8:	d1fa      	bne.n	0x1001aa0
 1001aaa:	6a18      	ldr	r0, [r3, #32]
 1001aac:	4770      	bx	lr
 1001aae:	b410      	push	{r4}
 1001ab0:	f04f 4170 	mov.w	r1, #4026531840	; 0xf0000000
 1001ab4:	4381      	bics	r1, r0
 1001ab6:	d018      	beq.n	0x1001aea
 1001ab8:	f8df c0ac 	ldr.w	ip, [pc, #172]	; 0x1001b68
 1001abc:	0f03      	lsrs	r3, r0, #28
 1001abe:	f85c 2023 	ldr.w	r2, [ip, r3, lsl #2]
 1001ac2:	6814      	ldr	r4, [r2, #0]
 1001ac4:	b281      	uxth	r1, r0
 1001ac6:	f3c0 4004 	ubfx	r0, r0, #16, #5
 1001aca:	4081      	lsls	r1, r0
 1001acc:	ea44 0001 	orr.w	r0, r4, r1
 1001ad0:	6010      	str	r0, [r2, #0]
 1001ad2:	2000      	movs	r0, #0
 1001ad4:	1c40      	adds	r0, r0, #1
 1001ad6:	2810      	cmp	r0, #16
 1001ad8:	d3fc      	bcc.n	0x1001ad4
 1001ada:	f85c 0023 	ldr.w	r0, [ip, r3, lsl #2]
 1001ade:	6802      	ldr	r2, [r0, #0]
 1001ae0:	ea22 0101 	bic.w	r1, r2, r1
 1001ae4:	6001      	str	r1, [r0, #0]
 1001ae6:	bc10      	pop	{r4}
 1001ae8:	4770      	bx	lr
 1001aea:	f3c0 2307 	ubfx	r3, r0, #8, #8
 1001aee:	491f      	ldr	r1, [pc, #124]	; (0x1001b6c)
 1001af0:	b2c0      	uxtb	r0, r0
 1001af2:	4419      	add	r1, r3
 1001af4:	f001 4370 	and.w	r3, r1, #4026531840	; 0xf0000000
 1001af8:	f3c1 0113 	ubfx	r1, r1, #0, #20
 1001afc:	ea43 1141 	orr.w	r1, r3, r1, lsl #5
 1001b00:	ea41 0080 	orr.w	r0, r1, r0, lsl #2
 1001b04:	f040 7100 	orr.w	r1, r0, #33554432	; 0x2000000
 1001b08:	2201      	movs	r2, #1
 1001b0a:	600a      	str	r2, [r1, #0]
 1001b0c:	2000      	movs	r0, #0
 1001b0e:	1c40      	adds	r0, r0, #1
 1001b10:	2810      	cmp	r0, #16
 1001b12:	d3fc      	bcc.n	0x1001b0e
 1001b14:	2000      	movs	r0, #0
 1001b16:	6008      	str	r0, [r1, #0]
 1001b18:	bc10      	pop	{r4}
 1001b1a:	4770      	bx	lr
 1001b1c:	b510      	push	{r4, lr}
 1001b1e:	2002      	movs	r0, #2
 1001b20:	f7ff fa80 	bl	0x1001024
 1001b24:	f7ff ff7c 	bl	0x1001a20
 1001b28:	4c0d      	ldr	r4, [pc, #52]	; (0x1001b60)
 1001b2a:	69e0      	ldr	r0, [r4, #28]
 1001b2c:	f010 000c 	ands.w	r0, r0, #12
 1001b30:	bf08      	it	eq
 1001b32:	bd10      	popeq	{r4, pc}
 1001b34:	480e      	ldr	r0, [pc, #56]	; (0x1001b70)
 1001b36:	f7ff ffba 	bl	0x1001aae
 1001b3a:	2002      	movs	r0, #2
 1001b3c:	f7ff fa72 	bl	0x1001024
 1001b40:	f7ff ff6e 	bl	0x1001a20
 1001b44:	69e0      	ldr	r0, [r4, #28]
 1001b46:	f010 0f0c 	tst.w	r0, #12
 1001b4a:	bf14      	ite	ne
 1001b4c:	2002      	movne	r0, #2
 1001b4e:	2001      	moveq	r0, #1
 1001b50:	bd10      	pop	{r4, pc}
 1001b52:	0000      	movs	r0, r0
 1001b54:	75d8      	strb	r0, [r3, #23]
 1001b56:	0100      	lsls	r0, r0, #4
 1001b58:	75f8      	strb	r0, [r7, #23]
 1001b5a:	0100      	lsls	r0, r0, #4
 1001b5c:	76f8      	strb	r0, [r7, #27]
 1001b5e:	0100      	lsls	r0, r0, #4
 1001b60:	f000 400a 	and.w	r0, r0, #2315255808	; 0x8a000000
 1001b64:	f034 400a 	bics.w	r0, r4, #2315255808	; 0x8a000000
 1001b68:	7aac      	ldrb	r4, [r5, #10]
 1001b6a:	0100      	lsls	r0, r0, #4
 1001b6c:	e500      	b.n	0x1001570
 1001b6e:	400f      	ands	r7, r1
 1001b70:	5800      	ldr	r0, [r0, r0]
 1001b72:	f000 2004 	and.w	r0, r0, #67109888	; 0x4000400
 1001b76:	49fa      	ldr	r1, [pc, #1000]	; (0x1001f60)
 1001b78:	6148      	str	r0, [r1, #20]
 1001b7a:	4770      	bx	lr
 1001b7c:	48f8      	ldr	r0, [pc, #992]	; (0x1001f60)
 1001b7e:	6901      	ldr	r1, [r0, #16]
 1001b80:	f021 0104 	bic.w	r1, r1, #4
 1001b84:	6101      	str	r1, [r0, #16]
 1001b86:	48f7      	ldr	r0, [pc, #988]	; (0x1001f64)
 1001b88:	6c01      	ldr	r1, [r0, #64]	; 0x40
 1001b8a:	f021 0101 	bic.w	r1, r1, #1
 1001b8e:	6401      	str	r1, [r0, #64]	; 0x40
 1001b90:	4770      	bx	lr
 1001b92:	48f4      	ldr	r0, [pc, #976]	; (0x1001f64)
 1001b94:	6c01      	ldr	r1, [r0, #64]	; 0x40
 1001b96:	f041 0101 	orr.w	r1, r1, #1
 1001b9a:	6401      	str	r1, [r0, #64]	; 0x40
 1001b9c:	48f0      	ldr	r0, [pc, #960]	; (0x1001f60)
 1001b9e:	6901      	ldr	r1, [r0, #16]
 1001ba0:	f041 0104 	orr.w	r1, r1, #4
 1001ba4:	6101      	str	r1, [r0, #16]
 1001ba6:	4770      	bx	lr
 1001ba8:	b130      	cbz	r0, 0x1001bb8
 1001baa:	48ed      	ldr	r0, [pc, #948]	; (0x1001f60)
 1001bac:	6940      	ldr	r0, [r0, #20]
 1001bae:	f010 0004 	ands.w	r0, r0, #4
 1001bb2:	bf08      	it	eq
 1001bb4:	4770      	bxeq	lr
 1001bb6:	e006      	b.n	0x1001bc6
 1001bb8:	48ea      	ldr	r0, [pc, #936]	; (0x1001f64)
 1001bba:	6980      	ldr	r0, [r0, #24]
 1001bbc:	f010 0f01 	tst.w	r0, #1
 1001bc0:	bf1c      	itt	ne
 1001bc2:	2000      	movne	r0, #0
 1001bc4:	4770      	bxne	lr
 1001bc6:	2004      	movs	r0, #4
 1001bc8:	4770      	bx	lr
 1001bca:	b510      	push	{r4, lr}
 1001bcc:	4ce7      	ldr	r4, [pc, #924]	; (0x1001f6c)
 1001bce:	48e6      	ldr	r0, [pc, #920]	; (0x1001f68)
 1001bd0:	66e0      	str	r0, [r4, #108]	; 0x6c
 1001bd2:	f7ff ff25 	bl	0x1001a20
 1001bd6:	48e6      	ldr	r0, [pc, #920]	; (0x1001f70)
 1001bd8:	f7ff ff69 	bl	0x1001aae
 1001bdc:	2002      	movs	r0, #2
 1001bde:	f7ff fa21 	bl	0x1001024
 1001be2:	f7ff ff1d 	bl	0x1001a20
 1001be6:	6860      	ldr	r0, [r4, #4]
 1001be8:	bd10      	pop	{r4, pc}
 1001bea:	4bde      	ldr	r3, [pc, #888]	; (0x1001f64)
 1001bec:	4684      	mov	ip, r0
 1001bee:	6998      	ldr	r0, [r3, #24]
 1001bf0:	f010 0f01 	tst.w	r0, #1
 1001bf4:	d1fb      	bne.n	0x1001bee
 1001bf6:	0988      	lsrs	r0, r1, #6
 1001bf8:	6058      	str	r0, [r3, #4]
 1001bfa:	f3c1 0083 	ubfx	r0, r1, #2, #4
 1001bfe:	6098      	str	r0, [r3, #8]
 1001c00:	0892      	lsrs	r2, r2, #2
 1001c02:	d014      	beq.n	0x1001c2e
 1001c04:	f8dc 0000 	ldr.w	r0, [ip]
 1001c08:	6158      	str	r0, [r3, #20]
 1001c0a:	6998      	ldr	r0, [r3, #24]
 1001c0c:	f010 0f01 	tst.w	r0, #1
 1001c10:	d1fb      	bne.n	0x1001c0a
 1001c12:	f410 7f88 	tst.w	r0, #272	; 0x110
 1001c16:	bf18      	it	ne
 1001c18:	4770      	bxne	lr
 1001c1a:	f10c 0c04 	add.w	ip, ip, #4
 1001c1e:	6898      	ldr	r0, [r3, #8]
 1001c20:	1e52      	subs	r2, r2, #1
 1001c22:	b910      	cbnz	r0, 0x1001c2a
 1001c24:	6858      	ldr	r0, [r3, #4]
 1001c26:	1c40      	adds	r0, r0, #1
 1001c28:	6058      	str	r0, [r3, #4]
 1001c2a:	2a00      	cmp	r2, #0
 1001c2c:	d1ea      	bne.n	0x1001c04
 1001c2e:	6998      	ldr	r0, [r3, #24]
 1001c30:	4770      	bx	lr
 1001c32:	4acc      	ldr	r2, [pc, #816]	; (0x1001f64)
 1001c34:	098b      	lsrs	r3, r1, #6
 1001c36:	6053      	str	r3, [r2, #4]
 1001c38:	f3c1 0183 	ubfx	r1, r1, #2, #4
 1001c3c:	6091      	str	r1, [r2, #8]
 1001c3e:	6150      	str	r0, [r2, #20]
 1001c40:	6990      	ldr	r0, [r2, #24]
 1001c42:	4770      	bx	lr
 1001c44:	4bc7      	ldr	r3, [pc, #796]	; (0x1001f64)
 1001c46:	ea4f 1c91 	mov.w	ip, r1, lsr #6
 1001c4a:	f8c3 c004 	str.w	ip, [r3, #4]
 1001c4e:	f3c1 0183 	ubfx	r1, r1, #2, #4
 1001c52:	6099      	str	r1, [r3, #8]
 1001c54:	0891      	lsrs	r1, r2, #2
 1001c56:	bf08      	it	eq
 1001c58:	4770      	bxeq	lr
 1001c5a:	695a      	ldr	r2, [r3, #20]
 1001c5c:	f840 2b04 	str.w	r2, [r0], #4
 1001c60:	689a      	ldr	r2, [r3, #8]
 1001c62:	1e49      	subs	r1, r1, #1
 1001c64:	b912      	cbnz	r2, 0x1001c6c
 1001c66:	685a      	ldr	r2, [r3, #4]
 1001c68:	1c52      	adds	r2, r2, #1
 1001c6a:	605a      	str	r2, [r3, #4]
 1001c6c:	2900      	cmp	r1, #0
 1001c6e:	d1f4      	bne.n	0x1001c5a
 1001c70:	4770      	bx	lr
 1001c72:	48bc      	ldr	r0, [pc, #752]	; (0x1001f64)
 1001c74:	6800      	ldr	r0, [r0, #0]
 1001c76:	0400      	lsls	r0, r0, #16
 1001c78:	0b80      	lsrs	r0, r0, #14
 1001c7a:	4770      	bx	lr
 1001c7c:	48b9      	ldr	r0, [pc, #740]	; (0x1001f64)
 1001c7e:	6980      	ldr	r0, [r0, #24]
 1001c80:	4770      	bx	lr
 1001c82:	eb00 1001 	add.w	r0, r0, r1, lsl #4
 1001c86:	f022 0201 	bic.w	r2, r2, #1
 1001c8a:	6102      	str	r2, [r0, #16]
 1001c8c:	4770      	bx	lr
 1001c8e:	eb00 1001 	add.w	r0, r0, r1, lsl #4
 1001c92:	f042 0201 	orr.w	r2, r2, #1
 1001c96:	6102      	str	r2, [r0, #16]
 1001c98:	4770      	bx	lr
 1001c9a:	6842      	ldr	r2, [r0, #4]
 1001c9c:	2301      	movs	r3, #1
 1001c9e:	fa03 f101 	lsl.w	r1, r3, r1
 1001ca2:	ea22 0101 	bic.w	r1, r2, r1
 1001ca6:	6041      	str	r1, [r0, #4]
 1001ca8:	4770      	bx	lr
 1001caa:	eb00 1001 	add.w	r0, r0, r1, lsl #4
 1001cae:	6940      	ldr	r0, [r0, #20]
 1001cb0:	49b0      	ldr	r1, [pc, #704]	; (0x1001f74)
 1001cb2:	4008      	ands	r0, r1
 1001cb4:	0c00      	lsrs	r0, r0, #16
 1001cb6:	4770      	bx	lr
 1001cb8:	f06f 437e 	mvn.w	r3, #4261412864	; 0xfe000000
 1001cbc:	eb00 1001 	add.w	r0, r0, r1, lsl #4
 1001cc0:	ea03 4202 	and.w	r2, r3, r2, lsl #16
 1001cc4:	6142      	str	r2, [r0, #20]
 1001cc6:	4770      	bx	lr
 1001cc8:	6842      	ldr	r2, [r0, #4]
 1001cca:	2301      	movs	r3, #1
 1001ccc:	fa03 f101 	lsl.w	r1, r3, r1
 1001cd0:	4311      	orrs	r1, r2
 1001cd2:	6041      	str	r1, [r0, #4]
 1001cd4:	4770      	bx	lr
 1001cd6:	eb00 1001 	add.w	r0, r0, r1, lsl #4
 1001cda:	6980      	ldr	r0, [r0, #24]
 1001cdc:	f3c0 000d 	ubfx	r0, r0, #0, #14
 1001ce0:	4770      	bx	lr
 1001ce2:	eb00 1001 	add.w	r0, r0, r1, lsl #4
 1001ce6:	6142      	str	r2, [r0, #20]
 1001ce8:	4770      	bx	lr
 1001cea:	6800      	ldr	r0, [r0, #0]
 1001cec:	0049      	lsls	r1, r1, #1
 1001cee:	40c8      	lsrs	r0, r1
 1001cf0:	f000 0003 	and.w	r0, r0, #3
 1001cf4:	4770      	bx	lr
 1001cf6:	f8d0 0fc0 	ldr.w	r0, [r0, #4032]	; 0xfc0
 1001cfa:	f000 000f 	and.w	r0, r0, #15
 1001cfe:	4770      	bx	lr
 1001d00:	f8c0 109c 	str.w	r1, [r0, #156]	; 0x9c
 1001d04:	4770      	bx	lr
 1001d06:	f8d0 2090 	ldr.w	r2, [r0, #144]	; 0x90
 1001d0a:	ea22 0101 	bic.w	r1, r2, r1
 1001d0e:	f8c0 1090 	str.w	r1, [r0, #144]	; 0x90
 1001d12:	4770      	bx	lr
 1001d14:	f8d0 2090 	ldr.w	r2, [r0, #144]	; 0x90
 1001d18:	4311      	orrs	r1, r2
 1001d1a:	f8c0 1090 	str.w	r1, [r0, #144]	; 0x90
 1001d1e:	4770      	bx	lr
 1001d20:	2900      	cmp	r1, #0
 1001d22:	bf14      	ite	ne
 1001d24:	f8d0 0098 	ldrne.w	r0, [r0, #152]	; 0x98
 1001d28:	f8d0 0094 	ldreq.w	r0, [r0, #148]	; 0x94
 1001d2c:	4770      	bx	lr
 1001d2e:	4892      	ldr	r0, [pc, #584]	; (0x1001f78)
 1001d30:	6800      	ldr	r0, [r0, #0]
 1001d32:	f100 0001 	add.w	r0, r0, #1
 1001d36:	4770      	bx	lr
 1001d38:	498f      	ldr	r1, [pc, #572]	; (0x1001f78)
 1001d3a:	1e40      	subs	r0, r0, #1
 1001d3c:	6008      	str	r0, [r1, #0]
 1001d3e:	4770      	bx	lr
 1001d40:	4987      	ldr	r1, [pc, #540]	; (0x1001f60)
 1001d42:	f640 2201 	movw	r2, #2561	; 0xa01
 1001d46:	614a      	str	r2, [r1, #20]
 1001d48:	6008      	str	r0, [r1, #0]
 1001d4a:	488c      	ldr	r0, [pc, #560]	; (0x1001f7c)
 1001d4c:	6088      	str	r0, [r1, #8]
 1001d4e:	6888      	ldr	r0, [r1, #8]
 1001d50:	f010 0f02 	tst.w	r0, #2
 1001d54:	d1fb      	bne.n	0x1001d4e
 1001d56:	68c8      	ldr	r0, [r1, #12]
 1001d58:	4010      	ands	r0, r2
 1001d5a:	bf18      	it	ne
 1001d5c:	f04f 30ff 	movne.w	r0, #4294967295	; 0xffffffff
 1001d60:	4770      	bx	lr
 1001d62:	b470      	push	{r4, r5, r6}
 1001d64:	4b7e      	ldr	r3, [pc, #504]	; (0x1001f60)
 1001d66:	f242 6401 	movw	r4, #9729	; 0x2601
 1001d6a:	615c      	str	r4, [r3, #20]
 1001d6c:	2a00      	cmp	r2, #0
 1001d6e:	bf18      	it	ne
 1001d70:	f8df c20c 	ldrne.w	ip, [pc, #524]	; 0x1001f80
 1001d74:	d01e      	beq.n	0x1001db4
 1001d76:	f021 057f 	bic.w	r5, r1, #127	; 0x7f
 1001d7a:	601d      	str	r5, [r3, #0]
 1001d7c:	e00b      	b.n	0x1001d96
 1001d7e:	f001 067c 	and.w	r6, r1, #124	; 0x7c
 1001d82:	f106 4680 	add.w	r6, r6, #1073741824	; 0x40000000
 1001d86:	f506 267d 	add.w	r6, r6, #1036288	; 0xfd000
 1001d8a:	f850 5b04 	ldr.w	r5, [r0], #4
 1001d8e:	f8c6 5100 	str.w	r5, [r6, #256]	; 0x100
 1001d92:	1d09      	adds	r1, r1, #4
 1001d94:	1f12      	subs	r2, r2, #4
 1001d96:	f011 0f7c 	tst.w	r1, #124	; 0x7c
 1001d9a:	d101      	bne.n	0x1001da0
 1001d9c:	6b1d      	ldr	r5, [r3, #48]	; 0x30
 1001d9e:	b90d      	cbnz	r5, 0x1001da4
 1001da0:	2a00      	cmp	r2, #0
 1001da2:	d1ec      	bne.n	0x1001d7e
 1001da4:	f8c3 c020 	str.w	ip, [r3, #32]
 1001da8:	6a1d      	ldr	r5, [r3, #32]
 1001daa:	f015 0f01 	tst.w	r5, #1
 1001dae:	d1fb      	bne.n	0x1001da8
 1001db0:	2a00      	cmp	r2, #0
 1001db2:	d1e0      	bne.n	0x1001d76
 1001db4:	68d8      	ldr	r0, [r3, #12]
 1001db6:	4020      	ands	r0, r4
 1001db8:	bf18      	it	ne
 1001dba:	f04f 30ff 	movne.w	r0, #4294967295	; 0xffffffff
 1001dbe:	bc70      	pop	{r4, r5, r6}
 1001dc0:	4770      	bx	lr
 1001dc2:	4a70      	ldr	r2, [pc, #448]	; (0x1001f84)
 1001dc4:	f3c0 4101 	ubfx	r1, r0, #16, #2
 1001dc8:	f852 2021 	ldr.w	r2, [r2, r1, lsl #2]
 1001dcc:	6812      	ldr	r2, [r2, #0]
 1001dce:	4b6e      	ldr	r3, [pc, #440]	; (0x1001f88)
 1001dd0:	f853 1021 	ldr.w	r1, [r3, r1, lsl #2]
 1001dd4:	6809      	ldr	r1, [r1, #0]
 1001dd6:	f3c0 20c4 	ubfx	r0, r0, #11, #5
 1001dda:	40c2      	lsrs	r2, r0
 1001ddc:	f002 0201 	and.w	r2, r2, #1
 1001de0:	fa21 f000 	lsr.w	r0, r1, r0
 1001de4:	f362 005f 	bfi	r0, r2, #1, #31
 1001de8:	2800      	cmp	r0, #0
 1001dea:	bf12      	itee	ne
 1001dec:	2801      	cmpne	r0, #1
 1001dee:	2002      	moveq	r0, #2
 1001df0:	4770      	bxeq	lr
 1001df2:	2802      	cmp	r0, #2
 1001df4:	bf14      	ite	ne
 1001df6:	2000      	movne	r0, #0
 1001df8:	2001      	moveq	r0, #1
 1001dfa:	4770      	bx	lr
 1001dfc:	0ac0      	lsrs	r0, r0, #11
 1001dfe:	f3c0 1341 	ubfx	r3, r0, #5, #2
 1001e02:	f000 021f 	and.w	r2, r0, #31
 1001e06:	b470      	push	{r4, r5, r6}
 1001e08:	485e      	ldr	r0, [pc, #376]	; (0x1001f84)
 1001e0a:	f850 4023 	ldr.w	r4, [r0, r3, lsl #2]
 1001e0e:	6820      	ldr	r0, [r4, #0]
 1001e10:	4e5d      	ldr	r6, [pc, #372]	; (0x1001f88)
 1001e12:	f856 c023 	ldr.w	ip, [r6, r3, lsl #2]
 1001e16:	f8dc c000 	ldr.w	ip, [ip]
 1001e1a:	2501      	movs	r5, #1
 1001e1c:	2901      	cmp	r1, #1
 1001e1e:	d012      	beq.n	0x1001e46
 1001e20:	2902      	cmp	r1, #2
 1001e22:	bf04      	itt	eq
 1001e24:	fa05 f102 	lsleq.w	r1, r5, r2
 1001e28:	4388      	biceq	r0, r1
 1001e2a:	d014      	beq.n	0x1001e56
 1001e2c:	40d0      	lsrs	r0, r2
 1001e2e:	f010 0f01 	tst.w	r0, #1
 1001e32:	d019      	beq.n	0x1001e68
 1001e34:	fa2c f002 	lsr.w	r0, ip, r2
 1001e38:	f010 0f01 	tst.w	r0, #1
 1001e3c:	bf18      	it	ne
 1001e3e:	2000      	movne	r0, #0
 1001e40:	d012      	beq.n	0x1001e68
 1001e42:	bc70      	pop	{r4, r5, r6}
 1001e44:	4770      	bx	lr
 1001e46:	fa20 f102 	lsr.w	r1, r0, r2
 1001e4a:	f011 0f01 	tst.w	r1, #1
 1001e4e:	bf18      	it	ne
 1001e50:	fa05 f102 	lslne.w	r1, r5, r2
 1001e54:	d008      	beq.n	0x1001e68
 1001e56:	ea2c 0101 	bic.w	r1, ip, r1
 1001e5a:	6020      	str	r0, [r4, #0]
 1001e5c:	f856 0023 	ldr.w	r0, [r6, r3, lsl #2]
 1001e60:	6001      	str	r1, [r0, #0]
 1001e62:	bc70      	pop	{r4, r5, r6}
 1001e64:	2000      	movs	r0, #0
 1001e66:	4770      	bx	lr
 1001e68:	bc70      	pop	{r4, r5, r6}
 1001e6a:	f04f 30ff 	mov.w	r0, #4294967295	; 0xffffffff
 1001e6e:	4770      	bx	lr
 1001e70:	2308      	movs	r3, #8
 1001e72:	f8df c118 	ldr.w	ip, [pc, #280]	; 0x1001f8c
 1001e76:	483a      	ldr	r0, [pc, #232]	; (0x1001f60)
 1001e78:	2200      	movs	r2, #0
 1001e7a:	6002      	str	r2, [r0, #0]
 1001e7c:	f8c0 c008 	str.w	ip, [r0, #8]
 1001e80:	6881      	ldr	r1, [r0, #8]
 1001e82:	f011 0f08 	tst.w	r1, #8
 1001e86:	d1fb      	bne.n	0x1001e80
 1001e88:	1c52      	adds	r2, r2, #1
 1001e8a:	429a      	cmp	r2, r3
 1001e8c:	d3f5      	bcc.n	0x1001e7a
 1001e8e:	2000      	movs	r0, #0
 1001e90:	4770      	bx	lr
 1001e92:	4a3f      	ldr	r2, [pc, #252]	; (0x1001f90)
 1001e94:	6813      	ldr	r3, [r2, #0]
 1001e96:	6003      	str	r3, [r0, #0]
 1001e98:	6850      	ldr	r0, [r2, #4]
 1001e9a:	6008      	str	r0, [r1, #0]
 1001e9c:	f04f 0000 	mov.w	r0, #0
 1001ea0:	4770      	bx	lr
 1001ea2:	4a3b      	ldr	r2, [pc, #236]	; (0x1001f90)
 1001ea4:	6010      	str	r0, [r2, #0]
 1001ea6:	6051      	str	r1, [r2, #4]
 1001ea8:	f04f 0000 	mov.w	r0, #0
 1001eac:	4770      	bx	lr
 1001eae:	482c      	ldr	r0, [pc, #176]	; (0x1001f60)
 1001eb0:	f04f 4100 	mov.w	r1, #2147483648	; 0x80000000
 1001eb4:	6001      	str	r1, [r0, #0]
 1001eb6:	4a35      	ldr	r2, [pc, #212]	; (0x1001f8c)
 1001eb8:	6082      	str	r2, [r0, #8]
 1001eba:	6881      	ldr	r1, [r0, #8]
 1001ebc:	f011 0f08 	tst.w	r1, #8
 1001ec0:	d1fb      	bne.n	0x1001eba
 1001ec2:	4934      	ldr	r1, [pc, #208]	; (0x1001f94)
 1001ec4:	6001      	str	r1, [r0, #0]
 1001ec6:	6082      	str	r2, [r0, #8]
 1001ec8:	6881      	ldr	r1, [r0, #8]
 1001eca:	f011 0f08 	tst.w	r1, #8
 1001ece:	d1fb      	bne.n	0x1001ec8
 1001ed0:	2000      	movs	r0, #0
 1001ed2:	4770      	bx	lr
 1001ed4:	4922      	ldr	r1, [pc, #136]	; (0x1001f60)
 1001ed6:	690a      	ldr	r2, [r1, #16]
 1001ed8:	4310      	orrs	r0, r2
 1001eda:	6108      	str	r0, [r1, #16]
 1001edc:	4770      	bx	lr
 1001ede:	4920      	ldr	r1, [pc, #128]	; (0x1001f60)
 1001ee0:	690a      	ldr	r2, [r1, #16]
 1001ee2:	ea22 0000 	bic.w	r0, r2, r0
 1001ee6:	6108      	str	r0, [r1, #16]
 1001ee8:	4770      	bx	lr
 1001eea:	491d      	ldr	r1, [pc, #116]	; (0x1001f60)
 1001eec:	2800      	cmp	r0, #0
 1001eee:	bf14      	ite	ne
 1001ef0:	6948      	ldrne	r0, [r1, #20]
 1001ef2:	68c8      	ldreq	r0, [r1, #12]
 1001ef4:	4770      	bx	lr
 1001ef6:	491a      	ldr	r1, [pc, #104]	; (0x1001f60)
 1001ef8:	6148      	str	r0, [r1, #20]
 1001efa:	4770      	bx	lr
 1001efc:	4826      	ldr	r0, [pc, #152]	; (0x1001f98)
 1001efe:	6801      	ldr	r1, [r0, #0]
 1001f00:	f421 0170 	bic.w	r1, r1, #15728640	; 0xf00000
 1001f04:	6001      	str	r1, [r0, #0]
 1001f06:	4770      	bx	lr
 1001f08:	4823      	ldr	r0, [pc, #140]	; (0x1001f98)
 1001f0a:	6801      	ldr	r1, [r0, #0]
 1001f0c:	f441 0170 	orr.w	r1, r1, #15728640	; 0xf00000
 1001f10:	6001      	str	r1, [r0, #0]
 1001f12:	4770      	bx	lr
 1001f14:	4921      	ldr	r1, [pc, #132]	; (0x1001f9c)
 1001f16:	680a      	ldr	r2, [r1, #0]
 1001f18:	f022 7280 	bic.w	r2, r2, #16777216	; 0x1000000
 1001f1c:	ea42 0000 	orr.w	r0, r2, r0
 1001f20:	6008      	str	r0, [r1, #0]
 1001f22:	4770      	bx	lr
 1001f24:	491d      	ldr	r1, [pc, #116]	; (0x1001f9c)
 1001f26:	680a      	ldr	r2, [r1, #0]
 1001f28:	f022 6280 	bic.w	r2, r2, #67108864	; 0x4000000
 1001f2c:	ea42 0000 	orr.w	r0, r2, r0
 1001f30:	6008      	str	r0, [r1, #0]
 1001f32:	4770      	bx	lr
 1001f34:	481a      	ldr	r0, [pc, #104]	; (0x1001fa0)
 1001f36:	6801      	ldr	r1, [r0, #0]
 1001f38:	f041 4140 	orr.w	r1, r1, #3221225472	; 0xc0000000
 1001f3c:	6001      	str	r1, [r0, #0]
 1001f3e:	4770      	bx	lr
 1001f40:	4916      	ldr	r1, [pc, #88]	; (0x1001f9c)
 1001f42:	680a      	ldr	r2, [r1, #0]
 1001f44:	f022 7200 	bic.w	r2, r2, #33554432	; 0x2000000
 1001f48:	ea42 0000 	orr.w	r0, r2, r0
 1001f4c:	6008      	str	r0, [r1, #0]
 1001f4e:	4770      	bx	lr
 1001f50:	4912      	ldr	r1, [pc, #72]	; (0x1001f9c)
 1001f52:	680a      	ldr	r2, [r1, #0]
 1001f54:	f422 0240 	bic.w	r2, r2, #12582912	; 0xc00000
 1001f58:	ea42 0000 	orr.w	r0, r2, r0
 1001f5c:	6008      	str	r0, [r1, #0]
 1001f5e:	4770      	bx	lr
 1001f60:	d000      	beq.n	0x1001f64
 1001f62:	400f      	ands	r7, r1
 1001f64:	f000 400a 	and.w	r0, r0, #2315255808	; 0x8a000000
 1001f68:	0001      	movs	r1, r0
 1001f6a:	e37b      	b.n	0x1002664
 1001f6c:	f014 400a 	ands.w	r0, r4, #2315255808	; 0x8a000000
 1001f70:	5800      	ldr	r0, [r0, r0]
 1001f72:	f000 0000 	and.w	r0, r0, #0
 1001f76:	01ff      	lsls	r7, r7, #7
 1001f78:	e140      	b.n	0x10021fc
 1001f7a:	400f      	ands	r7, r1
 1001f7c:	0002      	movs	r2, r0
 1001f7e:	a442      	add	r4, pc, #264	; (adr r4, 0x1002088)
 1001f80:	0001      	movs	r1, r0
 1001f82:	a442      	add	r4, pc, #264	; (adr r4, 0x100208c)
 1001f84:	7908      	ldrb	r0, [r1, #4]
 1001f86:	0100      	lsls	r0, r0, #4
 1001f88:	78f8      	ldrb	r0, [r7, #3]
 1001f8a:	0100      	lsls	r0, r0, #4
 1001f8c:	0008      	movs	r0, r1
 1001f8e:	a442      	add	r4, pc, #264	; (adr r4, 0x1002098)
 1001f90:	e1e0      	b.n	0x1002354
 1001f92:	400f      	ands	r7, r1
 1001f94:	0001      	movs	r1, r0
 1001f96:	8000      	strh	r0, [r0, #0]
 1001f98:	ed88 e000 	stc	0, cr14, [r8]
 1001f9c:	ef3c e000 	vhadd.s<illegal width 64>	d14, d12, d0
 1001fa0:	ef34 e000 	vhadd.s<illegal width 64>	d14, d4, d0
 1001fa4:	48fa      	ldr	r0, [pc, #1000]	; (0x1002390)
 1001fa6:	6801      	ldr	r1, [r0, #0]
 1001fa8:	f021 4140 	bic.w	r1, r1, #3221225472	; 0xc0000000
 1001fac:	6001      	str	r1, [r0, #0]
 1001fae:	4770      	bx	lr
 1001fb0:	48f7      	ldr	r0, [pc, #988]	; (0x1002390)
 1001fb2:	6801      	ldr	r1, [r0, #0]
 1001fb4:	f021 4180 	bic.w	r1, r1, #1073741824	; 0x40000000
 1001fb8:	f041 4100 	orr.w	r1, r1, #2147483648	; 0x80000000
 1001fbc:	6001      	str	r1, [r0, #0]
 1001fbe:	4770      	bx	lr
 1001fc0:	f8d0 2530 	ldr.w	r2, [r0, #1328]	; 0x530
 1001fc4:	ea22 0101 	bic.w	r1, r2, r1
 1001fc8:	f8c0 1530 	str.w	r1, [r0, #1328]	; 0x530
 1001fcc:	4770      	bx	lr
 1001fce:	f8d0 2530 	ldr.w	r2, [r0, #1328]	; 0x530
 1001fd2:	4311      	orrs	r1, r2
 1001fd4:	f8c0 1530 	str.w	r1, [r0, #1328]	; 0x530
 1001fd8:	4770      	bx	lr
 1001fda:	2201      	movs	r2, #1
 1001fdc:	fa02 f101 	lsl.w	r1, r2, r1
 1001fe0:	f8d0 3400 	ldr.w	r3, [r0, #1024]	; 0x400
 1001fe4:	b2c9      	uxtb	r1, r1
 1001fe6:	f8d0 2420 	ldr.w	r2, [r0, #1056]	; 0x420
 1001fea:	ea13 0001 	ands.w	r0, r3, r1
 1001fee:	bf18      	it	ne
 1001ff0:	2001      	movne	r0, #1
 1001ff2:	4011      	ands	r1, r2
 1001ff4:	bf18      	it	ne
 1001ff6:	2102      	movne	r1, #2
 1001ff8:	4308      	orrs	r0, r1
 1001ffa:	4770      	bx	lr
 1001ffc:	f8d0 3400 	ldr.w	r3, [r0, #1024]	; 0x400
 1002000:	f012 0f01 	tst.w	r2, #1
 1002004:	bf14      	ite	ne
 1002006:	430b      	orrne	r3, r1
 1002008:	438b      	biceq	r3, r1
 100200a:	f8c0 3400 	str.w	r3, [r0, #1024]	; 0x400
 100200e:	f012 0f02 	tst.w	r2, #2
 1002012:	f8d0 2420 	ldr.w	r2, [r0, #1056]	; 0x420
 1002016:	bf14      	ite	ne
 1002018:	4311      	orrne	r1, r2
 100201a:	ea22 0101 	biceq.w	r1, r2, r1
 100201e:	f8c0 1420 	str.w	r1, [r0, #1056]	; 0x420
 1002022:	4770      	bx	lr
 1002024:	f8d0 2534 	ldr.w	r2, [r0, #1332]	; 0x534
 1002028:	ea22 0101 	bic.w	r1, r2, r1
 100202c:	f8c0 1534 	str.w	r1, [r0, #1332]	; 0x534
 1002030:	4770      	bx	lr
 1002032:	f8d0 2534 	ldr.w	r2, [r0, #1332]	; 0x534
 1002036:	4311      	orrs	r1, r2
 1002038:	f8c0 1534 	str.w	r1, [r0, #1332]	; 0x534
 100203c:	4770      	bx	lr
 100203e:	2201      	movs	r2, #1
 1002040:	fa02 f101 	lsl.w	r1, r2, r1
 1002044:	f8d0 c408 	ldr.w	ip, [r0, #1032]	; 0x408
 1002048:	b2c9      	uxtb	r1, r1
 100204a:	f8d0 2404 	ldr.w	r2, [r0, #1028]	; 0x404
 100204e:	f8d0 340c 	ldr.w	r3, [r0, #1036]	; 0x40c
 1002052:	ea1c 0001 	ands.w	r0, ip, r1
 1002056:	bf18      	it	ne
 1002058:	2001      	movne	r0, #1
 100205a:	400a      	ands	r2, r1
 100205c:	bf18      	it	ne
 100205e:	2202      	movne	r2, #2
 1002060:	4302      	orrs	r2, r0
 1002062:	ea13 0001 	ands.w	r0, r3, r1
 1002066:	bf18      	it	ne
 1002068:	2004      	movne	r0, #4
 100206a:	4310      	orrs	r0, r2
 100206c:	4770      	bx	lr
 100206e:	f8d0 3408 	ldr.w	r3, [r0, #1032]	; 0x408
 1002072:	f012 0f01 	tst.w	r2, #1
 1002076:	bf14      	ite	ne
 1002078:	430b      	orrne	r3, r1
 100207a:	438b      	biceq	r3, r1
 100207c:	f8c0 3408 	str.w	r3, [r0, #1032]	; 0x408
 1002080:	f8d0 3404 	ldr.w	r3, [r0, #1028]	; 0x404
 1002084:	f012 0f02 	tst.w	r2, #2
 1002088:	bf14      	ite	ne
 100208a:	430b      	orrne	r3, r1
 100208c:	438b      	biceq	r3, r1
 100208e:	f8c0 3404 	str.w	r3, [r0, #1028]	; 0x404
 1002092:	f012 0f04 	tst.w	r2, #4
 1002096:	f8d0 240c 	ldr.w	r2, [r0, #1036]	; 0x40c
 100209a:	bf14      	ite	ne
 100209c:	4311      	orrne	r1, r2
 100209e:	ea22 0101 	biceq.w	r1, r2, r1
 10020a2:	f8c0 140c 	str.w	r1, [r0, #1036]	; 0x40c
 10020a6:	4770      	bx	lr
 10020a8:	b410      	push	{r4}
 10020aa:	f04f 0c01 	mov.w	ip, #1
 10020ae:	fa0c f101 	lsl.w	r1, ip, r1
 10020b2:	f8d0 c500 	ldr.w	ip, [r0, #1280]	; 0x500
 10020b6:	b2c9      	uxtb	r1, r1
 10020b8:	ea1c 0c01 	ands.w	ip, ip, r1
 10020bc:	bf18      	it	ne
 10020be:	f04f 0c01 	movne.w	ip, #1
 10020c2:	f8d0 4504 	ldr.w	r4, [r0, #1284]	; 0x504
 10020c6:	400c      	ands	r4, r1
 10020c8:	bf18      	it	ne
 10020ca:	2402      	movne	r4, #2
 10020cc:	ea44 040c 	orr.w	r4, r4, ip
 10020d0:	f8d0 c508 	ldr.w	ip, [r0, #1288]	; 0x508
 10020d4:	ea1c 0c01 	ands.w	ip, ip, r1
 10020d8:	bf18      	it	ne
 10020da:	f04f 0c04 	movne.w	ip, #4
 10020de:	ea4c 0404 	orr.w	r4, ip, r4
 10020e2:	f8d0 c518 	ldr.w	ip, [r0, #1304]	; 0x518
 10020e6:	ea1c 0c01 	ands.w	ip, ip, r1
 10020ea:	bf18      	it	ne
 10020ec:	f04f 0c08 	movne.w	ip, #8
 10020f0:	ea4c 0c04 	orr.w	ip, ip, r4
 10020f4:	f8c2 c000 	str.w	ip, [r2]
 10020f8:	f8d0 250c 	ldr.w	r2, [r0, #1292]	; 0x50c
 10020fc:	400a      	ands	r2, r1
 10020fe:	bf18      	it	ne
 1002100:	2201      	movne	r2, #1
 1002102:	f8d0 c510 	ldr.w	ip, [r0, #1296]	; 0x510
 1002106:	ea1c 0c01 	ands.w	ip, ip, r1
 100210a:	bf18      	it	ne
 100210c:	f04f 0c02 	movne.w	ip, #2
 1002110:	ea4c 0c02 	orr.w	ip, ip, r2
 1002114:	f8d0 2514 	ldr.w	r2, [r0, #1300]	; 0x514
 1002118:	400a      	ands	r2, r1
 100211a:	bf18      	it	ne
 100211c:	2204      	movne	r2, #4
 100211e:	ea42 020c 	orr.w	r2, r2, ip
 1002122:	f8d0 051c 	ldr.w	r0, [r0, #1308]	; 0x51c
 1002126:	4008      	ands	r0, r1
 1002128:	bf18      	it	ne
 100212a:	2008      	movne	r0, #8
 100212c:	4310      	orrs	r0, r2
 100212e:	6018      	str	r0, [r3, #0]
 1002130:	bc10      	pop	{r4}
 1002132:	4770      	bx	lr
 1002134:	f8d0 c500 	ldr.w	ip, [r0, #1280]	; 0x500
 1002138:	f012 0f01 	tst.w	r2, #1
 100213c:	bf14      	ite	ne
 100213e:	ea4c 0c01 	orrne.w	ip, ip, r1
 1002142:	ea2c 0c01 	biceq.w	ip, ip, r1
 1002146:	f8c0 c500 	str.w	ip, [r0, #1280]	; 0x500
 100214a:	f8d0 c504 	ldr.w	ip, [r0, #1284]	; 0x504
 100214e:	f012 0f02 	tst.w	r2, #2
 1002152:	bf14      	ite	ne
 1002154:	ea4c 0c01 	orrne.w	ip, ip, r1
 1002158:	ea2c 0c01 	biceq.w	ip, ip, r1
 100215c:	f8c0 c504 	str.w	ip, [r0, #1284]	; 0x504
 1002160:	f8d0 c508 	ldr.w	ip, [r0, #1288]	; 0x508
 1002164:	f012 0f04 	tst.w	r2, #4
 1002168:	bf14      	ite	ne
 100216a:	ea4c 0c01 	orrne.w	ip, ip, r1
 100216e:	ea2c 0c01 	biceq.w	ip, ip, r1
 1002172:	f8c0 c508 	str.w	ip, [r0, #1288]	; 0x508
 1002176:	f012 0f08 	tst.w	r2, #8
 100217a:	f8d0 2518 	ldr.w	r2, [r0, #1304]	; 0x518
 100217e:	bf14      	ite	ne
 1002180:	430a      	orrne	r2, r1
 1002182:	438a      	biceq	r2, r1
 1002184:	f8c0 2518 	str.w	r2, [r0, #1304]	; 0x518
 1002188:	f8d0 250c 	ldr.w	r2, [r0, #1292]	; 0x50c
 100218c:	f013 0f01 	tst.w	r3, #1
 1002190:	bf14      	ite	ne
 1002192:	430a      	orrne	r2, r1
 1002194:	438a      	biceq	r2, r1
 1002196:	f8c0 250c 	str.w	r2, [r0, #1292]	; 0x50c
 100219a:	f8d0 2510 	ldr.w	r2, [r0, #1296]	; 0x510
 100219e:	f013 0f02 	tst.w	r3, #2
 10021a2:	bf14      	ite	ne
 10021a4:	430a      	orrne	r2, r1
 10021a6:	438a      	biceq	r2, r1
 10021a8:	f8c0 2510 	str.w	r2, [r0, #1296]	; 0x510
 10021ac:	f8d0 2514 	ldr.w	r2, [r0, #1300]	; 0x514
 10021b0:	f013 0f04 	tst.w	r3, #4
 10021b4:	bf14      	ite	ne
 10021b6:	430a      	orrne	r2, r1
 10021b8:	438a      	biceq	r2, r1
 10021ba:	f8c0 2514 	str.w	r2, [r0, #1300]	; 0x514
 10021be:	f8d0 251c 	ldr.w	r2, [r0, #1308]	; 0x51c
 10021c2:	f013 0f08 	tst.w	r3, #8
 10021c6:	bf14      	ite	ne
 10021c8:	430a      	orrne	r2, r1
 10021ca:	438a      	biceq	r2, r1
 10021cc:	f8c0 251c 	str.w	r2, [r0, #1308]	; 0x51c
 10021d0:	f8d0 2528 	ldr.w	r2, [r0, #1320]	; 0x528
 10021d4:	2b00      	cmp	r3, #0
 10021d6:	bf0c      	ite	eq
 10021d8:	4311      	orreq	r1, r2
 10021da:	ea22 0101 	bicne.w	r1, r2, r1
 10021de:	f8c0 1528 	str.w	r1, [r0, #1320]	; 0x528
 10021e2:	4770      	bx	lr
 10021e4:	4a6b      	ldr	r2, [pc, #428]	; (0x1002394)
 10021e6:	f3c0 4107 	ubfx	r1, r0, #16, #8
 10021ea:	6ed2      	ldr	r2, [r2, #108]	; 0x6c
 10021ec:	2301      	movs	r3, #1
 10021ee:	408b      	lsls	r3, r1
 10021f0:	421a      	tst	r2, r3
 10021f2:	4a69      	ldr	r2, [pc, #420]	; (0x1002398)
 10021f4:	bf1a      	itte	ne
 10021f6:	eb02 01c1 	addne.w	r1, r2, r1, lsl #3
 10021fa:	6849      	ldrne	r1, [r1, #4]
 10021fc:	f852 1031 	ldreq.w	r1, [r2, r1, lsl #3]
 1002200:	f3c0 2207 	ubfx	r2, r0, #8, #8
 1002204:	f8d1 352c 	ldr.w	r3, [r1, #1324]	; 0x52c
 1002208:	f04f 0c0f 	mov.w	ip, #15
 100220c:	fa0c fc02 	lsl.w	ip, ip, r2
 1002210:	f000 000f 	and.w	r0, r0, #15
 1002214:	ea23 030c 	bic.w	r3, r3, ip
 1002218:	4090      	lsls	r0, r2
 100221a:	4318      	orrs	r0, r3
 100221c:	f8c1 052c 	str.w	r0, [r1, #1324]	; 0x52c
 1002220:	4770      	bx	lr
 1002222:	f8c0 141c 	str.w	r1, [r0, #1052]	; 0x41c
 1002226:	4770      	bx	lr
 1002228:	f8d0 2410 	ldr.w	r2, [r0, #1040]	; 0x410
 100222c:	ea22 0101 	bic.w	r1, r2, r1
 1002230:	f8c0 1410 	str.w	r1, [r0, #1040]	; 0x410
 1002234:	4770      	bx	lr
 1002236:	f8d0 2410 	ldr.w	r2, [r0, #1040]	; 0x410
 100223a:	4311      	orrs	r1, r2
 100223c:	f8c0 1410 	str.w	r1, [r0, #1040]	; 0x410
 1002240:	4770      	bx	lr
 1002242:	2900      	cmp	r1, #0
 1002244:	bf14      	ite	ne
 1002246:	f8d0 0418 	ldrne.w	r0, [r0, #1048]	; 0x418
 100224a:	f8d0 0414 	ldreq.w	r0, [r0, #1044]	; 0x414
 100224e:	4770      	bx	lr
 1002250:	f850 0021 	ldr.w	r0, [r0, r1, lsl #2]
 1002254:	4770      	bx	lr
 1002256:	b510      	push	{r4, lr}
 1002258:	4684      	mov	ip, r0
 100225a:	460c      	mov	r4, r1
 100225c:	2200      	movs	r2, #0
 100225e:	f7ff fecd 	bl	0x1001ffc
 1002262:	4621      	mov	r1, r4
 1002264:	2300      	movs	r3, #0
 1002266:	e8bd 4010 	ldmia.w	sp!, {r4, lr}
 100226a:	2201      	movs	r2, #1
 100226c:	4660      	mov	r0, ip
 100226e:	e761      	b.n	0x1002134
 1002270:	b510      	push	{r4, lr}
 1002272:	4684      	mov	ip, r0
 1002274:	460c      	mov	r4, r1
 1002276:	2202      	movs	r2, #2
 1002278:	f7ff fec0 	bl	0x1001ffc
 100227c:	4621      	mov	r1, r4
 100227e:	2308      	movs	r3, #8
 1002280:	e8bd 4010 	ldmia.w	sp!, {r4, lr}
 1002284:	2204      	movs	r2, #4
 1002286:	4660      	mov	r0, ip
 1002288:	e754      	b.n	0x1002134
 100228a:	b510      	push	{r4, lr}
 100228c:	4684      	mov	ip, r0
 100228e:	460c      	mov	r4, r1
 1002290:	2200      	movs	r2, #0
 1002292:	f7ff feb3 	bl	0x1001ffc
 1002296:	4621      	mov	r1, r4
 1002298:	2300      	movs	r3, #0
 100229a:	e8bd 4010 	ldmia.w	sp!, {r4, lr}
 100229e:	2201      	movs	r2, #1
 10022a0:	4660      	mov	r0, ip
 10022a2:	e747      	b.n	0x1002134
 10022a4:	b510      	push	{r4, lr}
 10022a6:	4684      	mov	ip, r0
 10022a8:	460c      	mov	r4, r1
 10022aa:	2202      	movs	r2, #2
 10022ac:	f7ff fea6 	bl	0x1001ffc
 10022b0:	4621      	mov	r1, r4
 10022b2:	2308      	movs	r3, #8
 10022b4:	e8bd 4010 	ldmia.w	sp!, {r4, lr}
 10022b8:	2201      	movs	r2, #1
 10022ba:	4660      	mov	r0, ip
 10022bc:	e73a      	b.n	0x1002134
 10022be:	b510      	push	{r4, lr}
 10022c0:	4684      	mov	ip, r0
 10022c2:	460c      	mov	r4, r1
 10022c4:	2200      	movs	r2, #0
 10022c6:	f7ff fe99 	bl	0x1001ffc
 10022ca:	4621      	mov	r1, r4
 10022cc:	2308      	movs	r3, #8
 10022ce:	e8bd 4010 	ldmia.w	sp!, {r4, lr}
 10022d2:	2201      	movs	r2, #1
 10022d4:	4660      	mov	r0, ip
 10022d6:	e72d      	b.n	0x1002134
 10022d8:	b530      	push	{r4, r5, lr}
 10022da:	4604      	mov	r4, r0
 10022dc:	460d      	mov	r5, r1
 10022de:	2308      	movs	r3, #8
 10022e0:	2201      	movs	r2, #1
 10022e2:	f7ff ff27 	bl	0x1002134
 10022e6:	4629      	mov	r1, r5
 10022e8:	4620      	mov	r0, r4
 10022ea:	e8bd 4030 	ldmia.w	sp!, {r4, r5, lr}
 10022ee:	2201      	movs	r2, #1
 10022f0:	e684      	b.n	0x1001ffc
 10022f2:	b530      	push	{r4, r5, lr}
 10022f4:	4604      	mov	r4, r0
 10022f6:	460d      	mov	r5, r1
 10022f8:	2309      	movs	r3, #9
 10022fa:	2201      	movs	r2, #1
 10022fc:	f7ff ff1a 	bl	0x1002134
 1002300:	4629      	mov	r1, r5
 1002302:	4620      	mov	r0, r4
 1002304:	e8bd 4030 	ldmia.w	sp!, {r4, r5, lr}
 1002308:	2201      	movs	r2, #1
 100230a:	e677      	b.n	0x1001ffc
 100230c:	b510      	push	{r4, lr}
 100230e:	4684      	mov	ip, r0
 1002310:	460c      	mov	r4, r1
 1002312:	2202      	movs	r2, #2
 1002314:	f7ff fe72 	bl	0x1001ffc
 1002318:	4621      	mov	r1, r4
 100231a:	230b      	movs	r3, #11
 100231c:	e8bd 4010 	ldmia.w	sp!, {r4, lr}
 1002320:	2201      	movs	r2, #1
 1002322:	4660      	mov	r0, ip
 1002324:	e706      	b.n	0x1002134
 1002326:	b510      	push	{r4, lr}
 1002328:	4684      	mov	ip, r0
 100232a:	460c      	mov	r4, r1
 100232c:	2202      	movs	r2, #2
 100232e:	f7ff fe65 	bl	0x1001ffc
 1002332:	4621      	mov	r1, r4
 1002334:	2308      	movs	r3, #8
 1002336:	e8bd 4010 	ldmia.w	sp!, {r4, lr}
 100233a:	2201      	movs	r2, #1
 100233c:	4660      	mov	r0, ip
 100233e:	e6f9      	b.n	0x1002134
 1002340:	b510      	push	{r4, lr}
 1002342:	4684      	mov	ip, r0
 1002344:	460c      	mov	r4, r1
 1002346:	2202      	movs	r2, #2
 1002348:	f7ff fe58 	bl	0x1001ffc
 100234c:	4621      	mov	r1, r4
 100234e:	2308      	movs	r3, #8
 1002350:	e8bd 4010 	ldmia.w	sp!, {r4, lr}
 1002354:	2204      	movs	r2, #4
 1002356:	4660      	mov	r0, ip
 1002358:	e6ec      	b.n	0x1002134
 100235a:	b510      	push	{r4, lr}
 100235c:	4684      	mov	ip, r0
 100235e:	460c      	mov	r4, r1
 1002360:	2200      	movs	r2, #0
 1002362:	f7ff fe4b 	bl	0x1001ffc
 1002366:	4621      	mov	r1, r4
 1002368:	2300      	movs	r3, #0
 100236a:	e8bd 4010 	ldmia.w	sp!, {r4, lr}
 100236e:	2201      	movs	r2, #1
 1002370:	4660      	mov	r0, ip
 1002372:	e6df      	b.n	0x1002134
 1002374:	b510      	push	{r4, lr}
 1002376:	4684      	mov	ip, r0
 1002378:	460c      	mov	r4, r1
 100237a:	2202      	movs	r2, #2
 100237c:	f7ff fe3e 	bl	0x1001ffc
 1002380:	4621      	mov	r1, r4
 1002382:	2308      	movs	r3, #8
 1002384:	e8bd 4010 	ldmia.w	sp!, {r4, lr}
 1002388:	2201      	movs	r2, #1
 100238a:	4660      	mov	r0, ip
 100238c:	e6d2      	b.n	0x1002134
 100238e:	0000      	movs	r0, r0
 1002390:	ef34 e000 	vhadd.s<illegal width 64>	d14, d4, d0
 1002394:	e000      	b.n	0x1002398
 1002396:	400f      	ands	r7, r1
 1002398:	7918      	ldrb	r0, [r3, #4]
 100239a:	0100      	lsls	r0, r0, #4
 100239c:	b510      	push	{r4, lr}
 100239e:	4684      	mov	ip, r0
 10023a0:	460c      	mov	r4, r1
 10023a2:	2202      	movs	r2, #2
 10023a4:	f7ff fe2a 	bl	0x1001ffc
 10023a8:	4621      	mov	r1, r4
 10023aa:	2308      	movs	r3, #8
 10023ac:	e8bd 4010 	ldmia.w	sp!, {r4, lr}
 10023b0:	2201      	movs	r2, #1
 10023b2:	4660      	mov	r0, ip
 10023b4:	e6be      	b.n	0x1002134
 10023b6:	b510      	push	{r4, lr}
 10023b8:	4684      	mov	ip, r0
 10023ba:	460c      	mov	r4, r1
 10023bc:	2202      	movs	r2, #2
 10023be:	f7ff fe1d 	bl	0x1001ffc
 10023c2:	4621      	mov	r1, r4
 10023c4:	230a      	movs	r3, #10
 10023c6:	e8bd 4010 	ldmia.w	sp!, {r4, lr}
 10023ca:	2201      	movs	r2, #1
 10023cc:	4660      	mov	r0, ip
 10023ce:	e6b1      	b.n	0x1002134
 10023d0:	b510      	push	{r4, lr}
 10023d2:	4684      	mov	ip, r0
 10023d4:	460c      	mov	r4, r1
 10023d6:	2202      	movs	r2, #2
 10023d8:	f7ff fe10 	bl	0x1001ffc
 10023dc:	4621      	mov	r1, r4
 10023de:	2308      	movs	r3, #8
 10023e0:	e8bd 4010 	ldmia.w	sp!, {r4, lr}
 10023e4:	2201      	movs	r2, #1
 10023e6:	4660      	mov	r0, ip
 10023e8:	e6a4      	b.n	0x1002134
 10023ea:	b510      	push	{r4, lr}
 10023ec:	4684      	mov	ip, r0
 10023ee:	460c      	mov	r4, r1
 10023f0:	2202      	movs	r2, #2
 10023f2:	f7ff fe03 	bl	0x1001ffc
 10023f6:	4621      	mov	r1, r4
 10023f8:	2308      	movs	r3, #8
 10023fa:	e8bd 4010 	ldmia.w	sp!, {r4, lr}
 10023fe:	2201      	movs	r2, #1
 1002400:	4660      	mov	r0, ip
 1002402:	e697      	b.n	0x1002134
 1002404:	b510      	push	{r4, lr}
 1002406:	4684      	mov	ip, r0
 1002408:	460c      	mov	r4, r1
 100240a:	2202      	movs	r2, #2
 100240c:	f7ff fdf6 	bl	0x1001ffc
 1002410:	4621      	mov	r1, r4
 1002412:	2308      	movs	r3, #8
 1002414:	e8bd 4010 	ldmia.w	sp!, {r4, lr}
 1002418:	2201      	movs	r2, #1
 100241a:	4660      	mov	r0, ip
 100241c:	e68a      	b.n	0x1002134
 100241e:	b510      	push	{r4, lr}
 1002420:	4684      	mov	ip, r0
 1002422:	460c      	mov	r4, r1
 1002424:	2200      	movs	r2, #0
 1002426:	f7ff fde9 	bl	0x1001ffc
 100242a:	4621      	mov	r1, r4
 100242c:	2300      	movs	r3, #0
 100242e:	e8bd 4010 	ldmia.w	sp!, {r4, lr}
 1002432:	2201      	movs	r2, #1
 1002434:	4660      	mov	r0, ip
 1002436:	e67d      	b.n	0x1002134
 1002438:	b510      	push	{r4, lr}
 100243a:	4684      	mov	ip, r0
 100243c:	460c      	mov	r4, r1
 100243e:	2202      	movs	r2, #2
 1002440:	f7ff fddc 	bl	0x1001ffc
 1002444:	4621      	mov	r1, r4
 1002446:	2308      	movs	r3, #8
 1002448:	e8bd 4010 	ldmia.w	sp!, {r4, lr}
 100244c:	2201      	movs	r2, #1
 100244e:	4660      	mov	r0, ip
 1002450:	e670      	b.n	0x1002134
 1002452:	f840 2021 	str.w	r2, [r0, r1, lsl #2]
 1002456:	4770      	bx	lr
 1002458:	48f9      	ldr	r0, [pc, #996]	; (0x1002840)
 100245a:	6901      	ldr	r1, [r0, #16]
 100245c:	f011 4f00 	tst.w	r1, #2147483648	; 0x80000000
 1002460:	d0fb      	beq.n	0x100245a
 1002462:	4770      	bx	lr
 1002464:	48f6      	ldr	r0, [pc, #984]	; (0x1002840)
 1002466:	6901      	ldr	r1, [r0, #16]
 1002468:	f041 0140 	orr.w	r1, r1, #64	; 0x40
 100246c:	6101      	str	r1, [r0, #16]
 100246e:	e7f3      	b.n	0x1002458
 1002470:	48f3      	ldr	r0, [pc, #972]	; (0x1002840)
 1002472:	6901      	ldr	r1, [r0, #16]
 1002474:	f021 0140 	bic.w	r1, r1, #64	; 0x40
 1002478:	6101      	str	r1, [r0, #16]
 100247a:	e7ed      	b.n	0x1002458
 100247c:	49f0      	ldr	r1, [pc, #960]	; (0x1002840)
 100247e:	690a      	ldr	r2, [r1, #16]
 1002480:	f022 0204 	bic.w	r2, r2, #4
 1002484:	f422 2200 	bic.w	r2, r2, #524288	; 0x80000
 1002488:	4310      	orrs	r0, r2
 100248a:	6108      	str	r0, [r1, #16]
 100248c:	e7e4      	b.n	0x1002458
 100248e:	48ec      	ldr	r0, [pc, #944]	; (0x1002840)
 1002490:	6901      	ldr	r1, [r0, #16]
 1002492:	f041 0101 	orr.w	r1, r1, #1
 1002496:	6101      	str	r1, [r0, #16]
 1002498:	e7de      	b.n	0x1002458
 100249a:	48e9      	ldr	r0, [pc, #932]	; (0x1002840)
 100249c:	6901      	ldr	r1, [r0, #16]
 100249e:	f021 0101 	bic.w	r1, r1, #1
 10024a2:	6101      	str	r1, [r0, #16]
 10024a4:	e7d8      	b.n	0x1002458
 10024a6:	49e6      	ldr	r1, [pc, #920]	; (0x1002840)
 10024a8:	690a      	ldr	r2, [r1, #16]
 10024aa:	f422 7206 	bic.w	r2, r2, #536	; 0x218
 10024ae:	4310      	orrs	r0, r2
 10024b0:	6108      	str	r0, [r1, #16]
 10024b2:	e7d1      	b.n	0x1002458
 10024b4:	48e2      	ldr	r0, [pc, #904]	; (0x1002840)
 10024b6:	6900      	ldr	r0, [r0, #16]
 10024b8:	f400 7006 	and.w	r0, r0, #536	; 0x218
 10024bc:	4770      	bx	lr
 10024be:	49e0      	ldr	r1, [pc, #896]	; (0x1002840)
 10024c0:	690a      	ldr	r2, [r1, #16]
 10024c2:	f022 02a0 	bic.w	r2, r2, #160	; 0xa0
 10024c6:	f422 42c0 	bic.w	r2, r2, #24576	; 0x6000
 10024ca:	4310      	orrs	r0, r2
 10024cc:	6108      	str	r0, [r1, #16]
 10024ce:	e7c3      	b.n	0x1002458
 10024d0:	48db      	ldr	r0, [pc, #876]	; (0x1002840)
 10024d2:	6900      	ldr	r0, [r0, #16]
 10024d4:	f246 01a0 	movw	r1, #24736	; 0x60a0
 10024d8:	4008      	ands	r0, r1
 10024da:	4770      	bx	lr
 10024dc:	49d8      	ldr	r1, [pc, #864]	; (0x1002840)
 10024de:	60c8      	str	r0, [r1, #12]
 10024e0:	e7ba      	b.n	0x1002458
 10024e2:	48d7      	ldr	r0, [pc, #860]	; (0x1002840)
 10024e4:	6800      	ldr	r0, [r0, #0]
 10024e6:	4770      	bx	lr
 10024e8:	49d5      	ldr	r1, [pc, #852]	; (0x1002840)
 10024ea:	6048      	str	r0, [r1, #4]
 10024ec:	e7b4      	b.n	0x1002458
 10024ee:	48d4      	ldr	r0, [pc, #848]	; (0x1002840)
 10024f0:	6840      	ldr	r0, [r0, #4]
 10024f2:	4770      	bx	lr
 10024f4:	49d2      	ldr	r1, [pc, #840]	; (0x1002840)
 10024f6:	6248      	str	r0, [r1, #36]	; 0x24
 10024f8:	e7ae      	b.n	0x1002458
 10024fa:	48d1      	ldr	r0, [pc, #836]	; (0x1002840)
 10024fc:	6a40      	ldr	r0, [r0, #36]	; 0x24
 10024fe:	4770      	bx	lr
 1002500:	2200      	movs	r2, #0
 1002502:	2900      	cmp	r1, #0
 1002504:	bf98      	it	ls
 1002506:	4770      	bxls	lr
 1002508:	b510      	push	{r4, lr}
 100250a:	4684      	mov	ip, r0
 100250c:	4ccc      	ldr	r4, [pc, #816]	; (0x1002840)
 100250e:	460b      	mov	r3, r1
 1002510:	eb04 0182 	add.w	r1, r4, r2, lsl #2
 1002514:	f85c 0022 	ldr.w	r0, [ip, r2, lsl #2]
 1002518:	6308      	str	r0, [r1, #48]	; 0x30
 100251a:	f7ff ff9d 	bl	0x1002458
 100251e:	1c52      	adds	r2, r2, #1
 1002520:	429a      	cmp	r2, r3
 1002522:	d3f5      	bcc.n	0x1002510
 1002524:	bd10      	pop	{r4, pc}
 1002526:	2200      	movs	r2, #0
 1002528:	2900      	cmp	r1, #0
 100252a:	bf8c      	ite	hi
 100252c:	4bc4      	ldrhi	r3, [pc, #784]	; (0x1002840)
 100252e:	4770      	bxls	lr
 1002530:	eb03 0c82 	add.w	ip, r3, r2, lsl #2
 1002534:	f8dc c030 	ldr.w	ip, [ip, #48]	; 0x30
 1002538:	f840 c022 	str.w	ip, [r0, r2, lsl #2]
 100253c:	1c52      	adds	r2, r2, #1
 100253e:	428a      	cmp	r2, r1
 1002540:	d3f6      	bcc.n	0x1002530
 1002542:	4770      	bx	lr
 1002544:	48be      	ldr	r0, [pc, #760]	; (0x1002840)
 1002546:	6901      	ldr	r1, [r0, #16]
 1002548:	f041 0102 	orr.w	r1, r1, #2
 100254c:	6101      	str	r1, [r0, #16]
 100254e:	e783      	b.n	0x1002458
 1002550:	49bb      	ldr	r1, [pc, #748]	; (0x1002840)
 1002552:	694a      	ldr	r2, [r1, #20]
 1002554:	4310      	orrs	r0, r2
 1002556:	6148      	str	r0, [r1, #20]
 1002558:	e77e      	b.n	0x1002458
 100255a:	49b9      	ldr	r1, [pc, #740]	; (0x1002840)
 100255c:	694a      	ldr	r2, [r1, #20]
 100255e:	ea22 0000 	bic.w	r0, r2, r0
 1002562:	6148      	str	r0, [r1, #20]
 1002564:	e778      	b.n	0x1002458
 1002566:	49b6      	ldr	r1, [pc, #728]	; (0x1002840)
 1002568:	2801      	cmp	r0, #1
 100256a:	bf0c      	ite	eq
 100256c:	69c8      	ldreq	r0, [r1, #28]
 100256e:	6988      	ldrne	r0, [r1, #24]
 1002570:	f000 007f 	and.w	r0, r0, #127	; 0x7f
 1002574:	4770      	bx	lr
 1002576:	49b2      	ldr	r1, [pc, #712]	; (0x1002840)
 1002578:	6a0a      	ldr	r2, [r1, #32]
 100257a:	4310      	orrs	r0, r2
 100257c:	6208      	str	r0, [r1, #32]
 100257e:	e76b      	b.n	0x1002458
 1002580:	48af      	ldr	r0, [pc, #700]	; (0x1002840)
 1002582:	6900      	ldr	r0, [r0, #16]
 1002584:	f3c0 1080 	ubfx	r0, r0, #6, #1
 1002588:	4770      	bx	lr
 100258a:	49ad      	ldr	r1, [pc, #692]	; (0x1002840)
 100258c:	0400      	lsls	r0, r0, #16
 100258e:	6288      	str	r0, [r1, #40]	; 0x28
 1002590:	e762      	b.n	0x1002458
 1002592:	48ab      	ldr	r0, [pc, #684]	; (0x1002840)
 1002594:	6a80      	ldr	r0, [r0, #40]	; 0x28
 1002596:	0c00      	lsrs	r0, r0, #16
 1002598:	4770      	bx	lr
 100259a:	48a9      	ldr	r0, [pc, #676]	; (0x1002840)
 100259c:	6a80      	ldr	r0, [r0, #40]	; 0x28
 100259e:	f3c0 000e 	ubfx	r0, r0, #0, #15
 10025a2:	4770      	bx	lr
 10025a4:	4aa6      	ldr	r2, [pc, #664]	; (0x1002840)
 10025a6:	6911      	ldr	r1, [r2, #16]
 10025a8:	f400 20e0 	and.w	r0, r0, #458752	; 0x70000
 10025ac:	f421 21e0 	bic.w	r1, r1, #458752	; 0x70000
 10025b0:	4308      	orrs	r0, r1
 10025b2:	6110      	str	r0, [r2, #16]
 10025b4:	e750      	b.n	0x1002458
 10025b6:	48a2      	ldr	r0, [pc, #648]	; (0x1002840)
 10025b8:	6900      	ldr	r0, [r0, #16]
 10025ba:	f400 6080 	and.w	r0, r0, #1024	; 0x400
 10025be:	4770      	bx	lr
 10025c0:	489f      	ldr	r0, [pc, #636]	; (0x1002840)
 10025c2:	6901      	ldr	r1, [r0, #16]
 10025c4:	f441 6180 	orr.w	r1, r1, #1024	; 0x400
 10025c8:	6101      	str	r1, [r0, #16]
 10025ca:	e745      	b.n	0x1002458
 10025cc:	6840      	ldr	r0, [r0, #4]
 10025ce:	f010 0040 	ands.w	r0, r0, #64	; 0x40
 10025d2:	bf18      	it	ne
 10025d4:	2001      	movne	r0, #1
 10025d6:	4770      	bx	lr
 10025d8:	6840      	ldr	r0, [r0, #4]
 10025da:	f010 0001 	ands.w	r0, r0, #1
 10025de:	bf18      	it	ne
 10025e0:	2001      	movne	r0, #1
 10025e2:	4770      	bx	lr
 10025e4:	6041      	str	r1, [r0, #4]
 10025e6:	4770      	bx	lr
 10025e8:	6880      	ldr	r0, [r0, #8]
 10025ea:	4770      	bx	lr
 10025ec:	6081      	str	r1, [r0, #8]
 10025ee:	4770      	bx	lr
 10025f0:	6a01      	ldr	r1, [r0, #32]
 10025f2:	f021 0110 	bic.w	r1, r1, #16
 10025f6:	6201      	str	r1, [r0, #32]
 10025f8:	4770      	bx	lr
 10025fa:	6a01      	ldr	r1, [r0, #32]
 10025fc:	f041 0110 	orr.w	r1, r1, #16
 1002600:	6201      	str	r1, [r0, #32]
 1002602:	4770      	bx	lr
 1002604:	6840      	ldr	r0, [r0, #4]
 1002606:	f010 0f01 	tst.w	r0, #1
 100260a:	d105      	bne.n	0x1002618
 100260c:	f010 0f12 	tst.w	r0, #18
 1002610:	bf1c      	itt	ne
 1002612:	f000 001c 	andne.w	r0, r0, #28
 1002616:	4770      	bxne	lr
 1002618:	2000      	movs	r0, #0
 100261a:	4770      	bx	lr
 100261c:	b500      	push	{lr}
 100261e:	4603      	mov	r3, r0
 1002620:	468c      	mov	ip, r1
 1002622:	f7ff ffea 	bl	0x10025fa
 1002626:	2a01      	cmp	r2, #1
 1002628:	bf0c      	ite	eq
 100262a:	4a86      	ldreq	r2, [pc, #536]	; (0x1002844)
 100262c:	4a86      	ldrne	r2, [pc, #536]	; (0x1002848)
 100262e:	eb02 0082 	add.w	r0, r2, r2, lsl #2
 1002632:	eb0c 0080 	add.w	r0, ip, r0, lsl #2
 1002636:	eb02 0182 	add.w	r1, r2, r2, lsl #2
 100263a:	1e40      	subs	r0, r0, #1
 100263c:	0089      	lsls	r1, r1, #2
 100263e:	fbb0 f0f1 	udiv	r0, r0, r1
 1002642:	1e40      	subs	r0, r0, #1
 1002644:	60d8      	str	r0, [r3, #12]
 1002646:	f8d3 0fc0 	ldr.w	r0, [r3, #4032]	; 0xfc0
 100264a:	f010 0f01 	tst.w	r0, #1
 100264e:	bf08      	it	eq
 1002650:	bd00      	popeq	{pc}
 1002652:	487e      	ldr	r0, [pc, #504]	; (0x100284c)
 1002654:	497e      	ldr	r1, [pc, #504]	; (0x1002850)
 1002656:	4460      	add	r0, ip
 1002658:	fbb0 f0f1 	udiv	r0, r0, r1
 100265c:	1e40      	subs	r0, r0, #1
 100265e:	f040 0080 	orr.w	r0, r0, #128	; 0x80
 1002662:	60d8      	str	r0, [r3, #12]
 1002664:	bd00      	pop	{pc}
 1002666:	2101      	movs	r1, #1
 1002668:	61c1      	str	r1, [r0, #28]
 100266a:	6181      	str	r1, [r0, #24]
 100266c:	4770      	bx	lr
 100266e:	61c1      	str	r1, [r0, #28]
 1002670:	4770      	bx	lr
 1002672:	2100      	movs	r1, #0
 1002674:	6101      	str	r1, [r0, #16]
 1002676:	4770      	bx	lr
 1002678:	6902      	ldr	r2, [r0, #16]
 100267a:	ea22 0101 	bic.w	r1, r2, r1
 100267e:	6101      	str	r1, [r0, #16]
 1002680:	4770      	bx	lr
 1002682:	2101      	movs	r1, #1
 1002684:	6101      	str	r1, [r0, #16]
 1002686:	4770      	bx	lr
 1002688:	6902      	ldr	r2, [r0, #16]
 100268a:	4311      	orrs	r1, r2
 100268c:	6101      	str	r1, [r0, #16]
 100268e:	4770      	bx	lr
 1002690:	b121      	cbz	r1, 0x100269c
 1002692:	6980      	ldr	r0, [r0, #24]
 1002694:	2800      	cmp	r0, #0
 1002696:	bf08      	it	eq
 1002698:	4770      	bxeq	lr
 100269a:	e003      	b.n	0x10026a4
 100269c:	6940      	ldr	r0, [r0, #20]
 100269e:	2800      	cmp	r0, #0
 10026a0:	bf08      	it	eq
 10026a2:	4770      	bxeq	lr
 10026a4:	2001      	movs	r0, #1
 10026a6:	4770      	bx	lr
 10026a8:	2900      	cmp	r1, #0
 10026aa:	bf14      	ite	ne
 10026ac:	6980      	ldrne	r0, [r0, #24]
 10026ae:	6940      	ldreq	r0, [r0, #20]
 10026b0:	4770      	bx	lr
 10026b2:	6ac0      	ldr	r0, [r0, #44]	; 0x2c
 10026b4:	4770      	bx	lr
 10026b6:	ea42 0141 	orr.w	r1, r2, r1, lsl #1
 10026ba:	6001      	str	r1, [r0, #0]
 10026bc:	4770      	bx	lr
 10026be:	6241      	str	r1, [r0, #36]	; 0x24
 10026c0:	4770      	bx	lr
 10026c2:	2900      	cmp	r1, #0
 10026c4:	6a01      	ldr	r1, [r0, #32]
 10026c6:	bf14      	ite	ne
 10026c8:	f041 0101 	orrne.w	r1, r1, #1
 10026cc:	f021 0101 	biceq.w	r1, r1, #1
 10026d0:	6201      	str	r1, [r0, #32]
 10026d2:	4770      	bx	lr
 10026d4:	2900      	cmp	r1, #0
 10026d6:	6a01      	ldr	r1, [r0, #32]
 10026d8:	bf14      	ite	ne
 10026da:	f021 0102 	bicne.w	r1, r1, #2
 10026de:	f041 0102 	orreq.w	r1, r1, #2
 10026e2:	6201      	str	r1, [r0, #32]
 10026e4:	4770      	bx	lr
 10026e6:	2900      	cmp	r1, #0
 10026e8:	bf04      	itt	eq
 10026ea:	6002      	streq	r2, [r0, #0]
 10026ec:	4770      	bxeq	lr
 10026ee:	2901      	cmp	r1, #1
 10026f0:	bf04      	itt	eq
 10026f2:	f042 0180 	orreq.w	r1, r2, #128	; 0x80
 10026f6:	61c1      	streq	r1, [r0, #28]
 10026f8:	4770      	bx	lr
 10026fa:	6880      	ldr	r0, [r0, #8]
 10026fc:	4770      	bx	lr
 10026fe:	6081      	str	r1, [r0, #8]
 1002700:	4770      	bx	lr
 1002702:	2100      	movs	r1, #0
 1002704:	6041      	str	r1, [r0, #4]
 1002706:	f5a0 5080 	sub.w	r0, r0, #4096	; 0x1000
 100270a:	f8d0 1820 	ldr.w	r1, [r0, #2080]	; 0x820
 100270e:	f021 0120 	bic.w	r1, r1, #32
 1002712:	f8c0 1820 	str.w	r1, [r0, #2080]	; 0x820
 1002716:	4770      	bx	lr
 1002718:	f5a0 5180 	sub.w	r1, r0, #4096	; 0x1000
 100271c:	f8d1 2820 	ldr.w	r2, [r1, #2080]	; 0x820
 1002720:	f042 0220 	orr.w	r2, r2, #32
 1002724:	f8c1 2820 	str.w	r2, [r1, #2080]	; 0x820
 1002728:	2101      	movs	r1, #1
 100272a:	6041      	str	r1, [r0, #4]
 100272c:	4770      	bx	lr
 100272e:	b500      	push	{lr}
 1002730:	460b      	mov	r3, r1
 1002732:	4684      	mov	ip, r0
 1002734:	f7ff fff0 	bl	0x1002718
 1002738:	f8cc 3000 	str.w	r3, [ip]
 100273c:	bd00      	pop	{pc}
 100273e:	2101      	movs	r1, #1
 1002740:	6181      	str	r1, [r0, #24]
 1002742:	4770      	bx	lr
 1002744:	6181      	str	r1, [r0, #24]
 1002746:	4770      	bx	lr
 1002748:	68c1      	ldr	r1, [r0, #12]
 100274a:	f021 0101 	bic.w	r1, r1, #1
 100274e:	60c1      	str	r1, [r0, #12]
 1002750:	4770      	bx	lr
 1002752:	68c2      	ldr	r2, [r0, #12]
 1002754:	ea22 0101 	bic.w	r1, r2, r1
 1002758:	60c1      	str	r1, [r0, #12]
 100275a:	4770      	bx	lr
 100275c:	68c1      	ldr	r1, [r0, #12]
 100275e:	f041 0101 	orr.w	r1, r1, #1
 1002762:	60c1      	str	r1, [r0, #12]
 1002764:	4770      	bx	lr
 1002766:	68c2      	ldr	r2, [r0, #12]
 1002768:	4311      	orrs	r1, r2
 100276a:	60c1      	str	r1, [r0, #12]
 100276c:	4770      	bx	lr
 100276e:	b121      	cbz	r1, 0x100277a
 1002770:	6940      	ldr	r0, [r0, #20]
 1002772:	2800      	cmp	r0, #0
 1002774:	bf08      	it	eq
 1002776:	4770      	bxeq	lr
 1002778:	e003      	b.n	0x1002782
 100277a:	6900      	ldr	r0, [r0, #16]
 100277c:	2800      	cmp	r0, #0
 100277e:	bf08      	it	eq
 1002780:	4770      	bxeq	lr
 1002782:	2001      	movs	r0, #1
 1002784:	4770      	bx	lr
 1002786:	2900      	cmp	r1, #0
 1002788:	bf14      	ite	ne
 100278a:	6940      	ldrne	r0, [r0, #20]
 100278c:	6900      	ldreq	r0, [r0, #16]
 100278e:	4770      	bx	lr
 1002790:	6840      	ldr	r0, [r0, #4]
 1002792:	4770      	bx	lr
 1002794:	f04f 21e0 	mov.w	r1, #3758153728	; 0xe000e000
 1002798:	2804      	cmp	r0, #4
 100279a:	bf04      	itt	eq
 100279c:	f8d1 0d24 	ldreq.w	r0, [r1, #3364]	; 0xd24
 10027a0:	f440 3080 	orreq.w	r0, r0, #65536	; 0x10000
 10027a4:	d019      	beq.n	0x10027da
 10027a6:	2805      	cmp	r0, #5
 10027a8:	bf04      	itt	eq
 10027aa:	f8d1 0d24 	ldreq.w	r0, [r1, #3364]	; 0xd24
 10027ae:	f440 3000 	orreq.w	r0, r0, #131072	; 0x20000
 10027b2:	d012      	beq.n	0x10027da
 10027b4:	2806      	cmp	r0, #6
 10027b6:	d013      	beq.n	0x10027e0
 10027b8:	280f      	cmp	r0, #15
 10027ba:	d018      	beq.n	0x10027ee
 10027bc:	2810      	cmp	r0, #16
 10027be:	bf38      	it	cc
 10027c0:	4770      	bxcc	lr
 10027c2:	3810      	subs	r0, #16
 10027c4:	f000 011f 	and.w	r1, r0, #31
 10027c8:	2201      	movs	r2, #1
 10027ca:	fa02 f101 	lsl.w	r1, r2, r1
 10027ce:	0942      	lsrs	r2, r0, #5
 10027d0:	4820      	ldr	r0, [pc, #128]	; (0x1002854)
 10027d2:	f850 0022 	ldr.w	r0, [r0, r2, lsl #2]
 10027d6:	6001      	str	r1, [r0, #0]
 10027d8:	4770      	bx	lr
 10027da:	f8c1 0d24 	str.w	r0, [r1, #3364]	; 0xd24
 10027de:	4770      	bx	lr
 10027e0:	f8d1 0d24 	ldr.w	r0, [r1, #3364]	; 0xd24
 10027e4:	f440 2080 	orr.w	r0, r0, #262144	; 0x40000
 10027e8:	f8c1 0d24 	str.w	r0, [r1, #3364]	; 0xd24
 10027ec:	4770      	bx	lr
 10027ee:	6908      	ldr	r0, [r1, #16]
 10027f0:	f040 0002 	orr.w	r0, r0, #2
 10027f4:	6108      	str	r0, [r1, #16]
 10027f6:	4770      	bx	lr
 10027f8:	f04f 21e0 	mov.w	r1, #3758153728	; 0xe000e000
 10027fc:	2804      	cmp	r0, #4
 10027fe:	bf04      	itt	eq
 1002800:	f8d1 0d24 	ldreq.w	r0, [r1, #3364]	; 0xd24
 1002804:	f420 3080 	biceq.w	r0, r0, #65536	; 0x10000
 1002808:	d028      	beq.n	0x100285c
 100280a:	2805      	cmp	r0, #5
 100280c:	bf04      	itt	eq
 100280e:	f8d1 0d24 	ldreq.w	r0, [r1, #3364]	; 0xd24
 1002812:	f420 3000 	biceq.w	r0, r0, #131072	; 0x20000
 1002816:	d021      	beq.n	0x100285c
 1002818:	2806      	cmp	r0, #6
 100281a:	d022      	beq.n	0x1002862
 100281c:	280f      	cmp	r0, #15
 100281e:	d027      	beq.n	0x1002870
 1002820:	2810      	cmp	r0, #16
 1002822:	bf38      	it	cc
 1002824:	4770      	bxcc	lr
 1002826:	3810      	subs	r0, #16
 1002828:	f000 011f 	and.w	r1, r0, #31
 100282c:	2201      	movs	r2, #1
 100282e:	fa02 f101 	lsl.w	r1, r2, r1
 1002832:	0942      	lsrs	r2, r0, #5
 1002834:	4808      	ldr	r0, [pc, #32]	; (0x1002858)
 1002836:	f850 0022 	ldr.w	r0, [r0, r2, lsl #2]
 100283a:	6001      	str	r1, [r0, #0]
 100283c:	4770      	bx	lr
 100283e:	0000      	movs	r0, r0
 1002840:	c000      	stmia	r0!, {}
 1002842:	400f      	ands	r7, r1
 1002844:	1a80      	subs	r0, r0, r2
 1002846:	0006      	movs	r6, r0
 1002848:	86a0      	strh	r0, [r4, #52]	; 0x34
 100284a:	0001      	movs	r1, r0
 100284c:	477f      	bx	pc
 100284e:	0137      	lsls	r7, r6, #4
 1002850:	4780      	blx	r0
 1002852:	0137      	lsls	r7, r6, #4
 1002854:	7a4c      	ldrb	r4, [r1, #9]
 1002856:	0100      	lsls	r0, r0, #4
 1002858:	7a60      	ldrb	r0, [r4, #9]
 100285a:	0100      	lsls	r0, r0, #4
 100285c:	f8c1 0d24 	str.w	r0, [r1, #3364]	; 0xd24
 1002860:	e7ec      	b.n	0x100283c
 1002862:	f8d1 0d24 	ldr.w	r0, [r1, #3364]	; 0xd24
 1002866:	f420 2080 	bic.w	r0, r0, #262144	; 0x40000
 100286a:	f8c1 0d24 	str.w	r0, [r1, #3364]	; 0xd24
 100286e:	e7e5      	b.n	0x100283c
 1002870:	6908      	ldr	r0, [r1, #16]
 1002872:	f020 0002 	bic.w	r0, r0, #2
 1002876:	6108      	str	r0, [r1, #16]
 1002878:	e7e0      	b.n	0x100283c
 100287a:	2100      	movs	r1, #0
 100287c:	f04f 22e0 	mov.w	r2, #3758153728	; 0xe000e000
 1002880:	2804      	cmp	r0, #4
 1002882:	bf04      	itt	eq
 1002884:	f8d2 0d24 	ldreq.w	r0, [r2, #3364]	; 0xd24
 1002888:	f400 3180 	andeq.w	r1, r0, #65536	; 0x10000
 100288c:	d021      	beq.n	0x10028d2
 100288e:	2805      	cmp	r0, #5
 1002890:	bf04      	itt	eq
 1002892:	f8d2 0d24 	ldreq.w	r0, [r2, #3364]	; 0xd24
 1002896:	f400 3100 	andeq.w	r1, r0, #131072	; 0x20000
 100289a:	d01a      	beq.n	0x10028d2
 100289c:	2806      	cmp	r0, #6
 100289e:	bf04      	itt	eq
 10028a0:	f8d2 0d24 	ldreq.w	r0, [r2, #3364]	; 0xd24
 10028a4:	f400 2180 	andeq.w	r1, r0, #262144	; 0x40000
 10028a8:	d013      	beq.n	0x10028d2
 10028aa:	280f      	cmp	r0, #15
 10028ac:	bf04      	itt	eq
 10028ae:	6910      	ldreq	r0, [r2, #16]
 10028b0:	f000 0102 	andeq.w	r1, r0, #2
 10028b4:	d00d      	beq.n	0x10028d2
 10028b6:	2810      	cmp	r0, #16
 10028b8:	d30b      	bcc.n	0x10028d2
 10028ba:	3810      	subs	r0, #16
 10028bc:	4afa      	ldr	r2, [pc, #1000]	; (0x1002ca8)
 10028be:	0941      	lsrs	r1, r0, #5
 10028c0:	f852 1021 	ldr.w	r1, [r2, r1, lsl #2]
 10028c4:	6809      	ldr	r1, [r1, #0]
 10028c6:	f000 001f 	and.w	r0, r0, #31
 10028ca:	2201      	movs	r2, #1
 10028cc:	fa02 f000 	lsl.w	r0, r2, r0
 10028d0:	4001      	ands	r1, r0
 10028d2:	4608      	mov	r0, r1
 10028d4:	4770      	bx	lr
 10028d6:	4af5      	ldr	r2, [pc, #980]	; (0x1002cac)
 10028d8:	f020 0103 	bic.w	r1, r0, #3
 10028dc:	5851      	ldr	r1, [r2, r1]
 10028de:	6809      	ldr	r1, [r1, #0]
 10028e0:	0780      	lsls	r0, r0, #30
 10028e2:	0ec0      	lsrs	r0, r0, #27
 10028e4:	fa21 f000 	lsr.w	r0, r1, r0
 10028e8:	b2c0      	uxtb	r0, r0
 10028ea:	4770      	bx	lr
 10028ec:	4aef      	ldr	r2, [pc, #956]	; (0x1002cac)
 10028ee:	f020 0303 	bic.w	r3, r0, #3
 10028f2:	58d2      	ldr	r2, [r2, r3]
 10028f4:	6813      	ldr	r3, [r2, #0]
 10028f6:	0780      	lsls	r0, r0, #30
 10028f8:	0ec0      	lsrs	r0, r0, #27
 10028fa:	f04f 0cff 	mov.w	ip, #255	; 0xff
 10028fe:	fa0c fc00 	lsl.w	ip, ip, r0
 1002902:	ea23 030c 	bic.w	r3, r3, ip
 1002906:	fa01 f000 	lsl.w	r0, r1, r0
 100290a:	4318      	orrs	r0, r3
 100290c:	6010      	str	r0, [r2, #0]
 100290e:	4770      	bx	lr
 1002910:	48e7      	ldr	r0, [pc, #924]	; (0x1002cb0)
 1002912:	6800      	ldr	r0, [r0, #0]
 1002914:	4ae7      	ldr	r2, [pc, #924]	; (0x1002cb4)
 1002916:	f400 61e0 	and.w	r1, r0, #1792	; 0x700
 100291a:	f04f 0000 	mov.w	r0, #0
 100291e:	f852 3020 	ldr.w	r3, [r2, r0, lsl #2]
 1002922:	428b      	cmp	r3, r1
 1002924:	bf08      	it	eq
 1002926:	4770      	bxeq	lr
 1002928:	1c40      	adds	r0, r0, #1
 100292a:	2808      	cmp	r0, #8
 100292c:	d3f7      	bcc.n	0x100291e
 100292e:	4770      	bx	lr
 1002930:	49e0      	ldr	r1, [pc, #896]	; (0x1002cb4)
 1002932:	f851 0020 	ldr.w	r0, [r1, r0, lsl #2]
 1002936:	49de      	ldr	r1, [pc, #888]	; (0x1002cb0)
 1002938:	f040 70fd 	orr.w	r0, r0, #33161216	; 0x1fa0000
 100293c:	f040 6080 	orr.w	r0, r0, #67108864	; 0x4000000
 1002940:	6008      	str	r0, [r1, #0]
 1002942:	4770      	bx	lr
 1002944:	f04f 21e0 	mov.w	r1, #3758153728	; 0xe000e000
 1002948:	2802      	cmp	r0, #2
 100294a:	bf04      	itt	eq
 100294c:	f8d1 0d04 	ldreq.w	r0, [r1, #3332]	; 0xd04
 1002950:	f040 4000 	orreq.w	r0, r0, #2147483648	; 0x80000000
 1002954:	d017      	beq.n	0x1002986
 1002956:	280e      	cmp	r0, #14
 1002958:	bf04      	itt	eq
 100295a:	f8d1 0d04 	ldreq.w	r0, [r1, #3332]	; 0xd04
 100295e:	f040 5080 	orreq.w	r0, r0, #268435456	; 0x10000000
 1002962:	d010      	beq.n	0x1002986
 1002964:	280f      	cmp	r0, #15
 1002966:	d011      	beq.n	0x100298c
 1002968:	2810      	cmp	r0, #16
 100296a:	bf38      	it	cc
 100296c:	4770      	bxcc	lr
 100296e:	3810      	subs	r0, #16
 1002970:	f000 011f 	and.w	r1, r0, #31
 1002974:	2201      	movs	r2, #1
 1002976:	fa02 f101 	lsl.w	r1, r2, r1
 100297a:	4acf      	ldr	r2, [pc, #828]	; (0x1002cb8)
 100297c:	0940      	lsrs	r0, r0, #5
 100297e:	f852 0020 	ldr.w	r0, [r2, r0, lsl #2]
 1002982:	6001      	str	r1, [r0, #0]
 1002984:	4770      	bx	lr
 1002986:	f8c1 0d04 	str.w	r0, [r1, #3332]	; 0xd04
 100298a:	4770      	bx	lr
 100298c:	f8d1 0d04 	ldr.w	r0, [r1, #3332]	; 0xd04
 1002990:	f040 6080 	orr.w	r0, r0, #67108864	; 0x4000000
 1002994:	f8c1 0d04 	str.w	r0, [r1, #3332]	; 0xd04
 1002998:	4770      	bx	lr
 100299a:	f04f 21e0 	mov.w	r1, #3758153728	; 0xe000e000
 100299e:	280e      	cmp	r0, #14
 10029a0:	bf04      	itt	eq
 10029a2:	f8d1 0d04 	ldreq.w	r0, [r1, #3332]	; 0xd04
 10029a6:	f040 6000 	orreq.w	r0, r0, #134217728	; 0x8000000
 10029aa:	d015      	beq.n	0x10029d8
 10029ac:	280f      	cmp	r0, #15
 10029ae:	bf04      	itt	eq
 10029b0:	f8d1 0d04 	ldreq.w	r0, [r1, #3332]	; 0xd04
 10029b4:	f040 7000 	orreq.w	r0, r0, #33554432	; 0x2000000
 10029b8:	d00e      	beq.n	0x10029d8
 10029ba:	2810      	cmp	r0, #16
 10029bc:	bf38      	it	cc
 10029be:	4770      	bxcc	lr
 10029c0:	3810      	subs	r0, #16
 10029c2:	f000 011f 	and.w	r1, r0, #31
 10029c6:	2201      	movs	r2, #1
 10029c8:	fa02 f101 	lsl.w	r1, r2, r1
 10029cc:	0942      	lsrs	r2, r0, #5
 10029ce:	48bb      	ldr	r0, [pc, #748]	; (0x1002cbc)
 10029d0:	f850 0022 	ldr.w	r0, [r0, r2, lsl #2]
 10029d4:	6001      	str	r1, [r0, #0]
 10029d6:	4770      	bx	lr
 10029d8:	f8c1 0d04 	str.w	r0, [r1, #3332]	; 0xd04
 10029dc:	4770      	bx	lr
 10029de:	4408      	add	r0, r1
 10029e0:	f890 0400 	ldrb.w	r0, [r0, #1024]	; 0x400
 10029e4:	4770      	bx	lr
 10029e6:	4408      	add	r0, r1
 10029e8:	f880 2400 	strb.w	r2, [r0, #1024]	; 0x400
 10029ec:	4770      	bx	lr
 10029ee:	b430      	push	{r4, r5}
 10029f0:	f643 75ff 	movw	r5, #16383	; 0x3fff
 10029f4:	e9dd 4c02 	ldrd	r4, ip, [sp, #8]
 10029f8:	0864      	lsrs	r4, r4, #1
 10029fa:	ea05 1444 	and.w	r4, r5, r4, lsl #5
 10029fe:	eb00 1101 	add.w	r1, r0, r1, lsl #4
 1002a02:	4322      	orrs	r2, r4
 1002a04:	610a      	str	r2, [r1, #16]
 1002a06:	618b      	str	r3, [r1, #24]
 1002a08:	f8d0 1120 	ldr.w	r1, [r0, #288]	; 0x120
 1002a0c:	f421 21c0 	bic.w	r1, r1, #393216	; 0x60000
 1002a10:	ea41 010c 	orr.w	r1, r1, ip
 1002a14:	f441 3180 	orr.w	r1, r1, #65536	; 0x10000
 1002a18:	f8c0 1120 	str.w	r1, [r0, #288]	; 0x120
 1002a1c:	bc30      	pop	{r4, r5}
 1002a1e:	4770      	bx	lr
 1002a20:	b470      	push	{r4, r5, r6}
 1002a22:	eb00 1c01 	add.w	ip, r0, r1, lsl #4
 1002a26:	9c03      	ldr	r4, [sp, #12]
 1002a28:	f8dc 5010 	ldr.w	r5, [ip, #16]
 1002a2c:	b123      	cbz	r3, 0x1002a38
 1002a2e:	f643 76e0 	movw	r6, #16352	; 0x3fe0
 1002a32:	402e      	ands	r6, r5
 1002a34:	0936      	lsrs	r6, r6, #4
 1002a36:	601e      	str	r6, [r3, #0]
 1002a38:	2a00      	cmp	r2, #0
 1002a3a:	bf1c      	itt	ne
 1002a3c:	f8dc 3018 	ldrne.w	r3, [ip, #24]
 1002a40:	6013      	strne	r3, [r2, #0]
 1002a42:	b134      	cbz	r4, 0x1002a52
 1002a44:	2907      	cmp	r1, #7
 1002a46:	d104      	bne.n	0x1002a52
 1002a48:	f8d0 0120 	ldr.w	r0, [r0, #288]	; 0x120
 1002a4c:	f400 20e0 	and.w	r0, r0, #458752	; 0x70000
 1002a50:	6020      	str	r0, [r4, #0]
 1002a52:	4628      	mov	r0, r5
 1002a54:	bc70      	pop	{r4, r5, r6}
 1002a56:	4770      	bx	lr
 1002a58:	b410      	push	{r4}
 1002a5a:	f643 74ff 	movw	r4, #16383	; 0x3fff
 1002a5e:	f8dd c004 	ldr.w	ip, [sp, #4]
 1002a62:	eb00 1001 	add.w	r0, r0, r1, lsl #4
 1002a66:	ea4f 0c5c 	mov.w	ip, ip, lsr #1
 1002a6a:	ea04 1c4c 	and.w	ip, r4, ip, lsl #5
 1002a6e:	ea4c 0202 	orr.w	r2, ip, r2
 1002a72:	6102      	str	r2, [r0, #16]
 1002a74:	6183      	str	r3, [r0, #24]
 1002a76:	bc10      	pop	{r4}
 1002a78:	4770      	bx	lr
 1002a7a:	b410      	push	{r4}
 1002a7c:	f643 74ff 	movw	r4, #16383	; 0x3fff
 1002a80:	f8dd c004 	ldr.w	ip, [sp, #4]
 1002a84:	eb00 1001 	add.w	r0, r0, r1, lsl #4
 1002a88:	ea4f 0c5c 	mov.w	ip, ip, lsr #1
 1002a8c:	ea04 1c4c 	and.w	ip, r4, ip, lsl #5
 1002a90:	ea4c 0202 	orr.w	r2, ip, r2
 1002a94:	f042 0201 	orr.w	r2, r2, #1
 1002a98:	6102      	str	r2, [r0, #16]
 1002a9a:	6183      	str	r3, [r0, #24]
 1002a9c:	bc10      	pop	{r4}
 1002a9e:	4770      	bx	lr
 1002aa0:	f8d0 0120 	ldr.w	r0, [r0, #288]	; 0x120
 1002aa4:	b2c0      	uxtb	r0, r0
 1002aa6:	4770      	bx	lr
 1002aa8:	f8d0 3120 	ldr.w	r3, [r0, #288]	; 0x120
 1002aac:	4011      	ands	r1, r2
 1002aae:	4393      	bics	r3, r2
 1002ab0:	4319      	orrs	r1, r3
 1002ab2:	f8c0 1120 	str.w	r1, [r0, #288]	; 0x120
 1002ab6:	4770      	bx	lr
 1002ab8:	6802      	ldr	r2, [r0, #0]
 1002aba:	2301      	movs	r3, #1
 1002abc:	fa03 f101 	lsl.w	r1, r3, r1
 1002ac0:	ea22 0101 	bic.w	r1, r2, r1
 1002ac4:	6001      	str	r1, [r0, #0]
 1002ac6:	4770      	bx	lr
 1002ac8:	6802      	ldr	r2, [r0, #0]
 1002aca:	2301      	movs	r3, #1
 1002acc:	fa03 f101 	lsl.w	r1, r3, r1
 1002ad0:	4311      	orrs	r1, r2
 1002ad2:	6001      	str	r1, [r0, #0]
 1002ad4:	4770      	bx	lr
 1002ad6:	eb00 1101 	add.w	r1, r0, r1, lsl #4
 1002ada:	6909      	ldr	r1, [r1, #16]
 1002adc:	f643 72e0 	movw	r2, #16352	; 0x3fe0
 1002ae0:	4011      	ands	r1, r2
 1002ae2:	eb00 1011 	add.w	r0, r0, r1, lsr #4
 1002ae6:	f500 6080 	add.w	r0, r0, #1024	; 0x400
 1002aea:	4770      	bx	lr
 1002aec:	eb00 1001 	add.w	r0, r0, r1, lsl #4
 1002af0:	6941      	ldr	r1, [r0, #20]
 1002af2:	4391      	bics	r1, r2
 1002af4:	6141      	str	r1, [r0, #20]
 1002af6:	4770      	bx	lr
 1002af8:	eb00 1001 	add.w	r0, r0, r1, lsl #4
 1002afc:	6940      	ldr	r0, [r0, #20]
 1002afe:	4770      	bx	lr
 1002b00:	eb00 1001 	add.w	r0, r0, r1, lsl #4
 1002b04:	6941      	ldr	r1, [r0, #20]
 1002b06:	4311      	orrs	r1, r2
 1002b08:	6141      	str	r1, [r0, #20]
 1002b0a:	4770      	bx	lr
 1002b0c:	f8d0 2120 	ldr.w	r2, [r0, #288]	; 0x120
 1002b10:	4311      	orrs	r1, r2
 1002b12:	f8c0 1120 	str.w	r1, [r0, #288]	; 0x120
 1002b16:	4770      	bx	lr
 1002b18:	f8d0 2120 	ldr.w	r2, [r0, #288]	; 0x120
 1002b1c:	ea22 0101 	bic.w	r1, r2, r1
 1002b20:	f8c0 1120 	str.w	r1, [r0, #288]	; 0x120
 1002b24:	4770      	bx	lr
 1002b26:	f8d0 2120 	ldr.w	r2, [r0, #288]	; 0x120
 1002b2a:	4311      	orrs	r1, r2
 1002b2c:	f8c0 1120 	str.w	r1, [r0, #288]	; 0x120
 1002b30:	4770      	bx	lr
 1002b32:	f8d0 0120 	ldr.w	r0, [r0, #288]	; 0x120
 1002b36:	2900      	cmp	r1, #0
 1002b38:	bf18      	it	ne
 1002b3a:	ea00 1000 	andne.w	r0, r0, r0, lsl #4
 1002b3e:	f000 7060 	and.w	r0, r0, #58720256	; 0x3800000
 1002b42:	4770      	bx	lr
 1002b44:	6800      	ldr	r0, [r0, #0]
 1002b46:	f400 7080 	and.w	r0, r0, #256	; 0x100
 1002b4a:	4770      	bx	lr
 1002b4c:	6802      	ldr	r2, [r0, #0]
 1002b4e:	f401 7180 	and.w	r1, r1, #256	; 0x100
 1002b52:	f422 7280 	bic.w	r2, r2, #256	; 0x100
 1002b56:	4311      	orrs	r1, r2
 1002b58:	6001      	str	r1, [r0, #0]
 1002b5a:	4770      	bx	lr
 1002b5c:	4408      	add	r0, r1
 1002b5e:	f8b0 0400 	ldrh.w	r0, [r0, #1024]	; 0x400
 1002b62:	4770      	bx	lr
 1002b64:	4408      	add	r0, r1
 1002b66:	f8a0 2400 	strh.w	r2, [r0, #1024]	; 0x400
 1002b6a:	4770      	bx	lr
 1002b6c:	6882      	ldr	r2, [r0, #8]
 1002b6e:	f36f 010f 	bfc	r1, #0, #16
 1002b72:	ea22 0101 	bic.w	r1, r2, r1
 1002b76:	6081      	str	r1, [r0, #8]
 1002b78:	4770      	bx	lr
 1002b7a:	2900      	cmp	r1, #0
 1002b7c:	6881      	ldr	r1, [r0, #8]
 1002b7e:	bf14      	ite	ne
 1002b80:	f041 0104 	orrne.w	r1, r1, #4
 1002b84:	f021 0104 	biceq.w	r1, r1, #4
 1002b88:	6081      	str	r1, [r0, #8]
 1002b8a:	6881      	ldr	r1, [r0, #8]
 1002b8c:	2a00      	cmp	r2, #0
 1002b8e:	bf14      	ite	ne
 1002b90:	f041 0102 	orrne.w	r1, r1, #2
 1002b94:	f021 0102 	biceq.w	r1, r1, #2
 1002b98:	6081      	str	r1, [r0, #8]
 1002b9a:	4770      	bx	lr
 1002b9c:	68c0      	ldr	r0, [r0, #12]
 1002b9e:	4770      	bx	lr
 1002ba0:	6881      	ldr	r1, [r0, #8]
 1002ba2:	f041 0101 	orr.w	r1, r1, #1
 1002ba6:	6081      	str	r1, [r0, #8]
 1002ba8:	4770      	bx	lr
 1002baa:	6882      	ldr	r2, [r0, #8]
 1002bac:	f36f 010f 	bfc	r1, #0, #16
 1002bb0:	4311      	orrs	r1, r2
 1002bb2:	6081      	str	r1, [r0, #8]
 1002bb4:	4770      	bx	lr
 1002bb6:	f8c0 110c 	str.w	r1, [r0, #268]	; 0x10c
 1002bba:	4770      	bx	lr
 1002bbc:	f8d0 2100 	ldr.w	r2, [r0, #256]	; 0x100
 1002bc0:	ea22 0101 	bic.w	r1, r2, r1
 1002bc4:	f8c0 1100 	str.w	r1, [r0, #256]	; 0x100
 1002bc8:	4770      	bx	lr
 1002bca:	f8d0 2100 	ldr.w	r2, [r0, #256]	; 0x100
 1002bce:	4311      	orrs	r1, r2
 1002bd0:	f8c0 1100 	str.w	r1, [r0, #256]	; 0x100
 1002bd4:	4770      	bx	lr
 1002bd6:	2900      	cmp	r1, #0
 1002bd8:	bf14      	ite	ne
 1002bda:	f8d0 0108 	ldrne.w	r0, [r0, #264]	; 0x108
 1002bde:	f8d0 0104 	ldreq.w	r0, [r0, #260]	; 0x104
 1002be2:	4770      	bx	lr
 1002be4:	6802      	ldr	r2, [r0, #0]
 1002be6:	f412 7f00 	tst.w	r2, #512	; 0x200
 1002bea:	d1fb      	bne.n	0x1002be4
 1002bec:	6802      	ldr	r2, [r0, #0]
 1002bee:	f422 6240 	bic.w	r2, r2, #3072	; 0xc00
 1002bf2:	6002      	str	r2, [r0, #0]
 1002bf4:	6802      	ldr	r2, [r0, #0]
 1002bf6:	ea42 2181 	orr.w	r1, r2, r1, lsl #10
 1002bfa:	6001      	str	r1, [r0, #0]
 1002bfc:	6801      	ldr	r1, [r0, #0]
 1002bfe:	f441 7100 	orr.w	r1, r1, #512	; 0x200
 1002c02:	6001      	str	r1, [r0, #0]
 1002c04:	4770      	bx	lr
 1002c06:	f8d0 00a0 	ldr.w	r0, [r0, #160]	; 0xa0
 1002c0a:	4770      	bx	lr
 1002c0c:	2a00      	cmp	r2, #0
 1002c0e:	bf18      	it	ne
 1002c10:	2201      	movne	r2, #1
 1002c12:	4311      	orrs	r1, r2
 1002c14:	f8c0 10a0 	str.w	r1, [r0, #160]	; 0xa0
 1002c18:	4770      	bx	lr
 1002c1a:	6840      	ldr	r0, [r0, #4]
 1002c1c:	b119      	cbz	r1, 0x1002c26
 1002c1e:	f3c0 5302 	ubfx	r3, r0, #20, #3
 1002c22:	1c5b      	adds	r3, r3, #1
 1002c24:	600b      	str	r3, [r1, #0]
 1002c26:	2a00      	cmp	r2, #0
 1002c28:	bf08      	it	eq
 1002c2a:	4770      	bxeq	lr
 1002c2c:	f3c0 4102 	ubfx	r1, r0, #16, #3
 1002c30:	0209      	lsls	r1, r1, #8
 1002c32:	6011      	str	r1, [r2, #0]
 1002c34:	4770      	bx	lr
 1002c36:	4408      	add	r0, r1
 1002c38:	f8d0 0400 	ldr.w	r0, [r0, #1024]	; 0x400
 1002c3c:	4770      	bx	lr
 1002c3e:	4408      	add	r0, r1
 1002c40:	f8c0 2400 	str.w	r2, [r0, #1024]	; 0x400
 1002c44:	4770      	bx	lr
 1002c46:	491e      	ldr	r1, [pc, #120]	; (0x1002cc0)
 1002c48:	f040 0001 	orr.w	r0, r0, #1
 1002c4c:	6008      	str	r0, [r1, #0]
 1002c4e:	4770      	bx	lr
 1002c50:	481b      	ldr	r0, [pc, #108]	; (0x1002cc0)
 1002c52:	6801      	ldr	r1, [r0, #0]
 1002c54:	f021 0101 	bic.w	r1, r1, #1
 1002c58:	6001      	str	r1, [r0, #0]
 1002c5a:	4770      	bx	lr
 1002c5c:	4819      	ldr	r0, [pc, #100]	; (0x1002cc4)
 1002c5e:	6800      	ldr	r0, [r0, #0]
 1002c60:	f3c0 2007 	ubfx	r0, r0, #8, #8
 1002c64:	4770      	bx	lr
 1002c66:	4918      	ldr	r1, [pc, #96]	; (0x1002cc8)
 1002c68:	6008      	str	r0, [r1, #0]
 1002c6a:	6888      	ldr	r0, [r1, #8]
 1002c6c:	f040 0001 	orr.w	r0, r0, #1
 1002c70:	6088      	str	r0, [r1, #8]
 1002c72:	4770      	bx	lr
 1002c74:	4914      	ldr	r1, [pc, #80]	; (0x1002cc8)
 1002c76:	6008      	str	r0, [r1, #0]
 1002c78:	6888      	ldr	r0, [r1, #8]
 1002c7a:	f020 0001 	bic.w	r0, r0, #1
 1002c7e:	6088      	str	r0, [r1, #8]
 1002c80:	4770      	bx	lr
 1002c82:	4308      	orrs	r0, r1
 1002c84:	f040 0110 	orr.w	r1, r0, #16
 1002c88:	4810      	ldr	r0, [pc, #64]	; (0x1002ccc)
 1002c8a:	6001      	str	r1, [r0, #0]
 1002c8c:	f422 1168 	bic.w	r1, r2, #3801088	; 0x3a0000
 1002c90:	f441 21a0 	orr.w	r1, r1, #327680	; 0x50000
 1002c94:	6041      	str	r1, [r0, #4]
 1002c96:	4770      	bx	lr
 1002c98:	4b0b      	ldr	r3, [pc, #44]	; (0x1002cc8)
 1002c9a:	6018      	str	r0, [r3, #0]
 1002c9c:	6858      	ldr	r0, [r3, #4]
 1002c9e:	6008      	str	r0, [r1, #0]
 1002ca0:	6898      	ldr	r0, [r3, #8]
 1002ca2:	6010      	str	r0, [r2, #0]
 1002ca4:	4770      	bx	lr
 1002ca6:	0000      	movs	r0, r0
 1002ca8:	7a4c      	ldrb	r4, [r1, #9]
 1002caa:	0100      	lsls	r0, r0, #4
 1002cac:	79b0      	ldrb	r0, [r6, #6]
 1002cae:	0100      	lsls	r0, r0, #4
 1002cb0:	ed0c e000 	stc	0, cr14, [ip, #-0]
 1002cb4:	7990      	ldrb	r0, [r2, #6]
 1002cb6:	0100      	lsls	r0, r0, #4
 1002cb8:	7a74      	ldrb	r4, [r6, #9]
 1002cba:	0100      	lsls	r0, r0, #4
 1002cbc:	7a88      	ldrb	r0, [r1, #10]
 1002cbe:	0100      	lsls	r0, r0, #4
 1002cc0:	ed94 e000 	ldc	0, cr14, [r4]
 1002cc4:	ed90 e000 	ldc	0, cr14, [r0]
 1002cc8:	ed98 e000 	ldc	0, cr14, [r8]
 1002ccc:	ed9c e000 	ldc	0, cr14, [ip]
 1002cd0:	e92d 01f0 	stmdb	sp!, {r4, r5, r6, r7, r8}
 1002cd4:	e9dd 4508 	ldrd	r4, r5, [sp, #32]
 1002cd8:	e9dd 7605 	ldrd	r7, r6, [sp, #20]
 1002cdc:	f8dd 801c 	ldr.w	r8, [sp, #28]
 1002ce0:	f8d0 c114 	ldr.w	ip, [r0, #276]	; 0x114
 1002ce4:	f11c 0c01 	adds.w	ip, ip, #1
 1002ce8:	d0fa      	beq.n	0x1002ce0
 1002cea:	f8c0 6104 	str.w	r6, [r0, #260]	; 0x104
 1002cee:	f8c0 4108 	str.w	r4, [r0, #264]	; 0x108
 1002cf2:	f8c0 510c 	str.w	r5, [r0, #268]	; 0x10c
 1002cf6:	0612      	lsls	r2, r2, #24
 1002cf8:	ea42 4208 	orr.w	r2, r2, r8, lsl #16
 1002cfc:	ea42 2203 	orr.w	r2, r2, r3, lsl #8
 1002d00:	433a      	orrs	r2, r7
 1002d02:	f8c0 2100 	str.w	r2, [r0, #256]	; 0x100
 1002d06:	f8c0 1110 	str.w	r1, [r0, #272]	; 0x110
 1002d0a:	e8bd 01f0 	ldmia.w	sp!, {r4, r5, r6, r7, r8}
 1002d0e:	4770      	bx	lr
 1002d10:	e92d 41f0 	stmdb	sp!, {r4, r5, r6, r7, r8, lr}
 1002d14:	b085      	sub	sp, #20
 1002d16:	ac0c      	add	r4, sp, #48	; 0x30
 1002d18:	4684      	mov	ip, r0
 1002d1a:	460e      	mov	r6, r1
 1002d1c:	4617      	mov	r7, r2
 1002d1e:	4698      	mov	r8, r3
 1002d20:	cc0f      	ldmia	r4!, {r0, r1, r2, r3}
 1002d22:	9d0b      	ldr	r5, [sp, #44]	; 0x2c
 1002d24:	f8dc 4114 	ldr.w	r4, [ip, #276]	; 0x114
 1002d28:	1c64      	adds	r4, r4, #1
 1002d2a:	bf02      	ittt	eq
 1002d2c:	2000      	moveq	r0, #0
 1002d2e:	b005      	addeq	sp, #20
 1002d30:	e8bd 81f0 	ldmiaeq.w	sp!, {r4, r5, r6, r7, r8, pc}
 1002d34:	ac01      	add	r4, sp, #4
 1002d36:	9500      	str	r5, [sp, #0]
 1002d38:	c40f      	stmia	r4!, {r0, r1, r2, r3}
 1002d3a:	4643      	mov	r3, r8
 1002d3c:	463a      	mov	r2, r7
 1002d3e:	4631      	mov	r1, r6
 1002d40:	4660      	mov	r0, ip
 1002d42:	f7ff ffc5 	bl	0x1002cd0
 1002d46:	b005      	add	sp, #20
 1002d48:	2001      	movs	r0, #1
 1002d4a:	e8bd 81f0 	ldmia.w	sp!, {r4, r5, r6, r7, r8, pc}
 1002d4e:	f8d0 3114 	ldr.w	r3, [r0, #276]	; 0x114
 1002d52:	f113 0c01 	adds.w	ip, r3, #1
 1002d56:	d00a      	beq.n	0x1002d6e
 1002d58:	2900      	cmp	r1, #0
 1002d5a:	bf1c      	itt	ne
 1002d5c:	f8d0 c108 	ldrne.w	ip, [r0, #264]	; 0x108
 1002d60:	f8c1 c000 	strne.w	ip, [r1]
 1002d64:	2a00      	cmp	r2, #0
 1002d66:	bf1c      	itt	ne
 1002d68:	f8d0 010c 	ldrne.w	r0, [r0, #268]	; 0x10c
 1002d6c:	6010      	strne	r0, [r2, #0]
 1002d6e:	4618      	mov	r0, r3
 1002d70:	4770      	bx	lr
 1002d72:	6801      	ldr	r1, [r0, #0]
 1002d74:	f421 6100 	bic.w	r1, r1, #2048	; 0x800
 1002d78:	6001      	str	r1, [r0, #0]
 1002d7a:	4770      	bx	lr
 1002d7c:	6801      	ldr	r1, [r0, #0]
 1002d7e:	f441 6100 	orr.w	r1, r1, #2048	; 0x800
 1002d82:	6001      	str	r1, [r0, #0]
 1002d84:	4770      	bx	lr
 1002d86:	b470      	push	{r4, r5, r6}
 1002d88:	e9dd 4503 	ldrd	r4, r5, [sp, #12]
 1002d8c:	f8d0 c000 	ldr.w	ip, [r0]
 1002d90:	ea4f 461c 	mov.w	r6, ip, lsr #16
 1002d94:	f3cc 3c02 	ubfx	ip, ip, #12, #3
 1002d98:	6026      	str	r6, [r4, #0]
 1002d9a:	f8c5 c000 	str.w	ip, [r5]
 1002d9e:	6840      	ldr	r0, [r0, #4]
 1002da0:	ea4f 4c10 	mov.w	ip, r0, lsr #16
 1002da4:	ea4f 0c8c 	mov.w	ip, ip, lsl #2
 1002da8:	fbb1 fcfc 	udiv	ip, r1, ip
 1002dac:	f8c2 c000 	str.w	ip, [r2]
 1002db0:	b280      	uxth	r0, r0
 1002db2:	f44f 727a 	mov.w	r2, #1000	; 0x3e8
 1002db6:	4350      	muls	r0, r2
 1002db8:	0b09      	lsrs	r1, r1, #12
 1002dba:	fbb0 f0f1 	udiv	r0, r0, r1
 1002dbe:	6018      	str	r0, [r3, #0]
 1002dc0:	bc70      	pop	{r4, r5, r6}
 1002dc2:	4770      	bx	lr
 1002dc4:	b430      	push	{r4, r5}
 1002dc6:	f44f 45e0 	mov.w	r5, #28672	; 0x7000
 1002dca:	e9dd c402 	ldrd	ip, r4, [sp, #8]
 1002dce:	ea05 3404 	and.w	r4, r5, r4, lsl #12
 1002dd2:	ea44 4c0c 	orr.w	ip, r4, ip, lsl #16
 1002dd6:	f8c0 c000 	str.w	ip, [r0]
 1002dda:	eb01 0c82 	add.w	ip, r1, r2, lsl #2
 1002dde:	f1ac 0c01 	sub.w	ip, ip, #1
 1002de2:	0092      	lsls	r2, r2, #2
 1002de4:	fbbc f2f2 	udiv	r2, ip, r2
 1002de8:	2a0a      	cmp	r2, #10
 1002dea:	bf38      	it	cc
 1002dec:	220a      	movcc	r2, #10
 1002dee:	f5b2 3f80 	cmp.w	r2, #65536	; 0x10000
 1002df2:	bf28      	it	cs
 1002df4:	f64f 72ff 	movwcs	r2, #65535	; 0xffff
 1002df8:	0412      	lsls	r2, r2, #16
 1002dfa:	2b00      	cmp	r3, #0
 1002dfc:	bf08      	it	eq
 1002dfe:	2100      	moveq	r1, #0
 1002e00:	d007      	beq.n	0x1002e12
 1002e02:	f44f 7c7a 	mov.w	ip, #1000	; 0x3e8
 1002e06:	fbb1 f1fc 	udiv	r1, r1, ip
 1002e0a:	4359      	muls	r1, r3
 1002e0c:	f601 71ff 	addw	r1, r1, #4095	; 0xfff
 1002e10:	0b09      	lsrs	r1, r1, #12
 1002e12:	b289      	uxth	r1, r1
 1002e14:	4311      	orrs	r1, r2
 1002e16:	6041      	str	r1, [r0, #4]
 1002e18:	bc30      	pop	{r4, r5}
 1002e1a:	4770      	bx	lr
 1002e1c:	eb00 0081 	add.w	r0, r0, r1, lsl #2
 1002e20:	6900      	ldr	r0, [r0, #16]
 1002e22:	2100      	movs	r1, #0
 1002e24:	6011      	str	r1, [r2, #0]
 1002e26:	2800      	cmp	r0, #0
 1002e28:	bf18      	it	ne
 1002e2a:	2001      	movne	r0, #1
 1002e2c:	6018      	str	r0, [r3, #0]
 1002e2e:	4770      	bx	lr
 1002e30:	eb00 0081 	add.w	r0, r0, r1, lsl #2
 1002e34:	f362 431f 	bfi	r3, r2, #16, #16
 1002e38:	6103      	str	r3, [r0, #16]
 1002e3a:	4770      	bx	lr
 1002e3c:	6802      	ldr	r2, [r0, #0]
 1002e3e:	2301      	movs	r3, #1
 1002e40:	fa03 f101 	lsl.w	r1, r3, r1
 1002e44:	ea22 0101 	bic.w	r1, r2, r1
 1002e48:	6001      	str	r1, [r0, #0]
 1002e4a:	4770      	bx	lr
 1002e4c:	6802      	ldr	r2, [r0, #0]
 1002e4e:	2301      	movs	r3, #1
 1002e50:	fa03 f101 	lsl.w	r1, r3, r1
 1002e54:	4311      	orrs	r1, r2
 1002e56:	6001      	str	r1, [r0, #0]
 1002e58:	4770      	bx	lr
 1002e5a:	eb00 0081 	add.w	r0, r0, r1, lsl #2
 1002e5e:	6c01      	ldr	r1, [r0, #64]	; 0x40
 1002e60:	b289      	uxth	r1, r1
 1002e62:	6401      	str	r1, [r0, #64]	; 0x40
 1002e64:	4770      	bx	lr
 1002e66:	eb00 0081 	add.w	r0, r0, r1, lsl #2
 1002e6a:	6c00      	ldr	r0, [r0, #64]	; 0x40
 1002e6c:	0c00      	lsrs	r0, r0, #16
 1002e6e:	4770      	bx	lr
 1002e70:	eb00 0081 	add.w	r0, r0, r1, lsl #2
 1002e74:	6c01      	ldr	r1, [r0, #64]	; 0x40
 1002e76:	f36f 010f 	bfc	r1, #0, #16
 1002e7a:	6401      	str	r1, [r0, #64]	; 0x40
 1002e7c:	4770      	bx	lr
 1002e7e:	eb00 0081 	add.w	r0, r0, r1, lsl #2
 1002e82:	6c00      	ldr	r0, [r0, #64]	; 0x40
 1002e84:	b280      	uxth	r0, r0
 1002e86:	4770      	bx	lr
 1002e88:	f8c0 108c 	str.w	r1, [r0, #140]	; 0x8c
 1002e8c:	4770      	bx	lr
 1002e8e:	f8d0 2080 	ldr.w	r2, [r0, #128]	; 0x80
 1002e92:	ea22 0101 	bic.w	r1, r2, r1
 1002e96:	f8c0 1080 	str.w	r1, [r0, #128]	; 0x80
 1002e9a:	4770      	bx	lr
 1002e9c:	f8d0 3080 	ldr.w	r3, [r0, #128]	; 0x80
 1002ea0:	f36f 020f 	bfc	r2, #0, #16
 1002ea4:	438b      	bics	r3, r1
 1002ea6:	b289      	uxth	r1, r1
 1002ea8:	4319      	orrs	r1, r3
 1002eaa:	4311      	orrs	r1, r2
 1002eac:	f8c0 1080 	str.w	r1, [r0, #128]	; 0x80
 1002eb0:	4770      	bx	lr
 1002eb2:	2900      	cmp	r1, #0
 1002eb4:	bf14      	ite	ne
 1002eb6:	f8d0 0088 	ldrne.w	r0, [r0, #136]	; 0x88
 1002eba:	f8d0 0084 	ldreq.w	r0, [r0, #132]	; 0x84
 1002ebe:	4770      	bx	lr
 1002ec0:	4408      	add	r0, r1
 1002ec2:	6801      	ldr	r1, [r0, #0]
 1002ec4:	f36f 0152 	bfc	r1, #1, #18
 1002ec8:	4311      	orrs	r1, r2
 1002eca:	6001      	str	r1, [r0, #0]
 1002ecc:	f012 0f02 	tst.w	r2, #2
 1002ed0:	bf14      	ite	ne
 1002ed2:	21b0      	movne	r1, #176	; 0xb0
 1002ed4:	218c      	moveq	r1, #140	; 0x8c
 1002ed6:	6201      	str	r1, [r0, #32]
 1002ed8:	bf14      	ite	ne
 1002eda:	f44f 6130 	movne.w	r1, #2816	; 0xb00
 1002ede:	f640 010c 	movweq	r1, #2060	; 0x80c
 1002ee2:	6241      	str	r1, [r0, #36]	; 0x24
 1002ee4:	4770      	bx	lr
 1002ee6:	4408      	add	r0, r1
 1002ee8:	6801      	ldr	r1, [r0, #0]
 1002eea:	f011 0f02 	tst.w	r1, #2
 1002eee:	bf14      	ite	ne
 1002ef0:	0851      	lsrne	r1, r2, #1
 1002ef2:	1e51      	subeq	r1, r2, #1
 1002ef4:	6101      	str	r1, [r0, #16]
 1002ef6:	4770      	bx	lr
 1002ef8:	4408      	add	r0, r1
 1002efa:	6801      	ldr	r1, [r0, #0]
 1002efc:	6900      	ldr	r0, [r0, #16]
 1002efe:	f011 0f02 	tst.w	r1, #2
 1002f02:	bf14      	ite	ne
 1002f04:	0040      	lslne	r0, r0, #1
 1002f06:	1c40      	addeq	r0, r0, #1
 1002f08:	4770      	bx	lr
 1002f0a:	5842      	ldr	r2, [r0, r1]
 1002f0c:	f042 0201 	orr.w	r2, r2, #1
 1002f10:	5042      	str	r2, [r0, r1]
 1002f12:	4770      	bx	lr
 1002f14:	5842      	ldr	r2, [r0, r1]
 1002f16:	f022 0201 	bic.w	r2, r2, #1
 1002f1a:	5042      	str	r2, [r0, r1]
 1002f1c:	4770      	bx	lr
 1002f1e:	f021 033f 	bic.w	r3, r1, #63	; 0x3f
 1002f22:	4418      	add	r0, r3
 1002f24:	6803      	ldr	r3, [r0, #0]
 1002f26:	f013 0f02 	tst.w	r3, #2
 1002f2a:	bf18      	it	ne
 1002f2c:	0852      	lsrne	r2, r2, #1
 1002f2e:	6903      	ldr	r3, [r0, #16]
 1002f30:	1a9a      	subs	r2, r3, r2
 1002f32:	f011 0f01 	tst.w	r1, #1
 1002f36:	bf14      	ite	ne
 1002f38:	61c2      	strne	r2, [r0, #28]
 1002f3a:	6182      	streq	r2, [r0, #24]
 1002f3c:	4770      	bx	lr
 1002f3e:	f021 023f 	bic.w	r2, r1, #63	; 0x3f
 1002f42:	4402      	add	r2, r0
 1002f44:	6913      	ldr	r3, [r2, #16]
 1002f46:	f011 0f01 	tst.w	r1, #1
 1002f4a:	bf14      	ite	ne
 1002f4c:	69d0      	ldrne	r0, [r2, #28]
 1002f4e:	6990      	ldreq	r0, [r2, #24]
 1002f50:	1a18      	subs	r0, r3, r0
 1002f52:	6811      	ldr	r1, [r2, #0]
 1002f54:	f011 0f02 	tst.w	r1, #2
 1002f58:	bf18      	it	ne
 1002f5a:	0040      	lslne	r0, r0, #1
 1002f5c:	4770      	bx	lr
 1002f5e:	4408      	add	r0, r1
 1002f60:	62c2      	str	r2, [r0, #44]	; 0x2c
 1002f62:	6303      	str	r3, [r0, #48]	; 0x30
 1002f64:	6a81      	ldr	r1, [r0, #40]	; 0x28
 1002f66:	f041 0101 	orr.w	r1, r1, #1
 1002f6a:	6281      	str	r1, [r0, #40]	; 0x28
 1002f6c:	4770      	bx	lr
 1002f6e:	4408      	add	r0, r1
 1002f70:	6a81      	ldr	r1, [r0, #40]	; 0x28
 1002f72:	f021 0101 	bic.w	r1, r1, #1
 1002f76:	6281      	str	r1, [r0, #40]	; 0x28
 1002f78:	4770      	bx	lr
 1002f7a:	6001      	str	r1, [r0, #0]
 1002f7c:	4770      	bx	lr
 1002f7e:	6041      	str	r1, [r0, #4]
 1002f80:	4770      	bx	lr
 1002f82:	2a01      	cmp	r2, #1
 1002f84:	6882      	ldr	r2, [r0, #8]
 1002f86:	bf0c      	ite	eq
 1002f88:	4311      	orreq	r1, r2
 1002f8a:	ea22 0101 	bicne.w	r1, r2, r1
 1002f8e:	6081      	str	r1, [r0, #8]
 1002f90:	4770      	bx	lr
 1002f92:	2a01      	cmp	r2, #1
 1002f94:	68c2      	ldr	r2, [r0, #12]
 1002f96:	bf0c      	ite	eq
 1002f98:	4311      	orreq	r1, r2
 1002f9a:	ea22 0101 	bicne.w	r1, r2, r1
 1002f9e:	60c1      	str	r1, [r0, #12]
 1002fa0:	4770      	bx	lr
 1002fa2:	2a01      	cmp	r2, #1
 1002fa4:	6a42      	ldr	r2, [r0, #36]	; 0x24
 1002fa6:	bf0c      	ite	eq
 1002fa8:	4311      	orreq	r1, r2
 1002faa:	ea22 0101 	bicne.w	r1, r2, r1
 1002fae:	6241      	str	r1, [r0, #36]	; 0x24
 1002fb0:	4770      	bx	lr
 1002fb2:	2a01      	cmp	r2, #1
 1002fb4:	6902      	ldr	r2, [r0, #16]
 1002fb6:	bf0c      	ite	eq
 1002fb8:	4311      	orreq	r1, r2
 1002fba:	ea22 0101 	bicne.w	r1, r2, r1
 1002fbe:	6101      	str	r1, [r0, #16]
 1002fc0:	4770      	bx	lr
 1002fc2:	4408      	add	r0, r1
 1002fc4:	6841      	ldr	r1, [r0, #4]
 1002fc6:	4311      	orrs	r1, r2
 1002fc8:	6041      	str	r1, [r0, #4]
 1002fca:	4770      	bx	lr
 1002fcc:	4408      	add	r0, r1
 1002fce:	6841      	ldr	r1, [r0, #4]
 1002fd0:	4391      	bics	r1, r2
 1002fd2:	6041      	str	r1, [r0, #4]
 1002fd4:	4770      	bx	lr
 1002fd6:	4408      	add	r0, r1
 1002fd8:	2a01      	cmp	r2, #1
 1002fda:	bf0c      	ite	eq
 1002fdc:	68c0      	ldreq	r0, [r0, #12]
 1002fde:	6880      	ldrne	r0, [r0, #8]
 1002fe0:	4770      	bx	lr
 1002fe2:	4408      	add	r0, r1
 1002fe4:	60c2      	str	r2, [r0, #12]
 1002fe6:	4770      	bx	lr
 1002fe8:	6942      	ldr	r2, [r0, #20]
 1002fea:	4311      	orrs	r1, r2
 1002fec:	6141      	str	r1, [r0, #20]
 1002fee:	4770      	bx	lr
 1002ff0:	6942      	ldr	r2, [r0, #20]
 1002ff2:	ea22 0101 	bic.w	r1, r2, r1
 1002ff6:	6141      	str	r1, [r0, #20]
 1002ff8:	4770      	bx	lr
 1002ffa:	f44f 3180 	mov.w	r1, #65536	; 0x10000
 1002ffe:	61c1      	str	r1, [r0, #28]
 1003000:	4770      	bx	lr
 1003002:	2901      	cmp	r1, #1
 1003004:	bf0c      	ite	eq
 1003006:	69c0      	ldreq	r0, [r0, #28]
 1003008:	6980      	ldrne	r0, [r0, #24]
 100300a:	4770      	bx	lr
 100300c:	61c1      	str	r1, [r0, #28]
 100300e:	4770      	bx	lr
 1003010:	eb00 0c01 	add.w	ip, r0, r1
 1003014:	f8cc 203c 	str.w	r2, [ip, #60]	; 0x3c
 1003018:	eb00 0041 	add.w	r0, r0, r1, lsl #1
 100301c:	f8c0 3780 	str.w	r3, [r0, #1920]	; 0x780
 1003020:	4770      	bx	lr
 1003022:	4408      	add	r0, r1
 1003024:	2a00      	cmp	r2, #0
 1003026:	bf0c      	ite	eq
 1003028:	6343      	streq	r3, [r0, #52]	; 0x34
 100302a:	6383      	strne	r3, [r0, #56]	; 0x38
 100302c:	4770      	bx	lr
 100302e:	4408      	add	r0, r1
 1003030:	2a00      	cmp	r2, #0
 1003032:	bf0c      	ite	eq
 1003034:	6b40      	ldreq	r0, [r0, #52]	; 0x34
 1003036:	6b80      	ldrne	r0, [r0, #56]	; 0x38
 1003038:	4770      	bx	lr
 100303a:	eb00 0041 	add.w	r0, r0, r1, lsl #1
 100303e:	2a00      	cmp	r2, #0
 1003040:	bf0c      	ite	eq
 1003042:	f8d0 0784 	ldreq.w	r0, [r0, #1924]	; 0x784
 1003046:	f8d0 0788 	ldrne.w	r0, [r0, #1928]	; 0x788
 100304a:	4770      	bx	lr
 100304c:	eb00 0041 	add.w	r0, r0, r1, lsl #1
 1003050:	2a00      	cmp	r2, #0
 1003052:	bf0c      	ite	eq
 1003054:	f8c0 3784 	streq.w	r3, [r0, #1924]	; 0x784
 1003058:	f8c0 3788 	strne.w	r3, [r0, #1928]	; 0x788
 100305c:	4770      	bx	lr
 100305e:	6801      	ldr	r1, [r0, #0]
 1003060:	f041 0101 	orr.w	r1, r1, #1
 1003064:	6001      	str	r1, [r0, #0]
 1003066:	4770      	bx	lr
 1003068:	6801      	ldr	r1, [r0, #0]
 100306a:	f021 0101 	bic.w	r1, r1, #1
 100306e:	6001      	str	r1, [r0, #0]
 1003070:	4770      	bx	lr
 1003072:	6803      	ldr	r3, [r0, #0]
 1003074:	f023 031e 	bic.w	r3, r3, #30
 1003078:	4319      	orrs	r1, r3
 100307a:	6001      	str	r1, [r0, #0]
 100307c:	60c2      	str	r2, [r0, #12]
 100307e:	4770      	bx	lr
 1003080:	6880      	ldr	r0, [r0, #8]
 1003082:	4770      	bx	lr
 1003084:	6081      	str	r1, [r0, #8]
 1003086:	4770      	bx	lr
 1003088:	6840      	ldr	r0, [r0, #4]
 100308a:	f010 0f02 	tst.w	r0, #2
 100308e:	bf14      	ite	ne
 1003090:	f04f 30ff 	movne.w	r0, #4294967295	; 0xffffffff
 1003094:	2001      	moveq	r0, #1
 1003096:	4770      	bx	lr
 1003098:	6840      	ldr	r0, [r0, #4]
 100309a:	f000 0001 	and.w	r0, r0, #1
 100309e:	4770      	bx	lr
 10030a0:	6801      	ldr	r1, [r0, #0]
 10030a2:	f041 0120 	orr.w	r1, r1, #32
 10030a6:	6001      	str	r1, [r0, #0]
 10030a8:	4770      	bx	lr
 10030aa:	6801      	ldr	r1, [r0, #0]
 10030ac:	f021 0120 	bic.w	r1, r1, #32
 10030b0:	6001      	str	r1, [r0, #0]
 10030b2:	4770      	bx	lr
 10030b4:	6803      	ldr	r3, [r0, #0]
 10030b6:	f423 73e0 	bic.w	r3, r3, #448	; 0x1c0
 10030ba:	4319      	orrs	r1, r3
 10030bc:	6001      	str	r1, [r0, #0]
 10030be:	1e51      	subs	r1, r2, #1
 10030c0:	6101      	str	r1, [r0, #16]
 10030c2:	4770      	bx	lr
 10030c4:	69c0      	ldr	r0, [r0, #28]
 10030c6:	4770      	bx	lr
 10030c8:	6a02      	ldr	r2, [r0, #32]
 10030ca:	4311      	orrs	r1, r2
 10030cc:	6201      	str	r1, [r0, #32]
 10030ce:	4770      	bx	lr
 10030d0:	6a02      	ldr	r2, [r0, #32]
 10030d2:	ea22 0101 	bic.w	r1, r2, r1
 10030d6:	6201      	str	r1, [r0, #32]
 10030d8:	4770      	bx	lr
 10030da:	2900      	cmp	r1, #0
 10030dc:	bf14      	ite	ne
 10030de:	6a80      	ldrne	r0, [r0, #40]	; 0x28
 10030e0:	6a40      	ldreq	r0, [r0, #36]	; 0x24
 10030e2:	4770      	bx	lr
 10030e4:	6281      	str	r1, [r0, #40]	; 0x28
 10030e6:	4770      	bx	lr
 10030e8:	2100      	movs	r1, #0
 10030ea:	301c      	adds	r0, #28
 10030ec:	f000 4270 	and.w	r2, r0, #4026531840	; 0xf0000000
 10030f0:	f3c0 0013 	ubfx	r0, r0, #0, #20
 10030f4:	ea42 1040 	orr.w	r0, r2, r0, lsl #5
 10030f8:	f040 001c 	orr.w	r0, r0, #28
 10030fc:	f040 7000 	orr.w	r0, r0, #33554432	; 0x2000000
 1003100:	7001      	strb	r1, [r0, #0]
 1003102:	4770      	bx	lr
 1003104:	2101      	movs	r1, #1
 1003106:	301c      	adds	r0, #28
 1003108:	f000 4270 	and.w	r2, r0, #4026531840	; 0xf0000000
 100310c:	f3c0 0013 	ubfx	r0, r0, #0, #20
 1003110:	ea42 1040 	orr.w	r0, r2, r0, lsl #5
 1003114:	f040 001c 	orr.w	r0, r0, #28
 1003118:	f040 7000 	orr.w	r0, r0, #33554432	; 0x2000000
 100311c:	7001      	strb	r1, [r0, #0]
 100311e:	4770      	bx	lr
 1003120:	7813      	ldrb	r3, [r2, #0]
 1003122:	7003      	strb	r3, [r0, #0]
 1003124:	7853      	ldrb	r3, [r2, #1]
 1003126:	7043      	strb	r3, [r0, #1]
 1003128:	8853      	ldrh	r3, [r2, #2]
 100312a:	ba5b      	rev16	r3, r3
 100312c:	8043      	strh	r3, [r0, #2]
 100312e:	8893      	ldrh	r3, [r2, #4]
 1003130:	ba5b      	rev16	r3, r3
 1003132:	8083      	strh	r3, [r0, #4]
 1003134:	88d3      	ldrh	r3, [r2, #6]
 1003136:	ba5b      	rev16	r3, r3
 1003138:	80c3      	strh	r3, [r0, #6]
 100313a:	8913      	ldrh	r3, [r2, #8]
 100313c:	ba5b      	rev16	r3, r3
 100313e:	8103      	strh	r3, [r0, #8]
 1003140:	8953      	ldrh	r3, [r2, #10]
 1003142:	ba5b      	rev16	r3, r3
 1003144:	8143      	strh	r3, [r0, #10]
 1003146:	68d3      	ldr	r3, [r2, #12]
 1003148:	f892 c00f 	ldrb.w	ip, [r2, #15]
 100314c:	ba1b      	rev	r3, r3
 100314e:	f023 03ff 	bic.w	r3, r3, #255	; 0xff
 1003152:	ea43 030c 	orr.w	r3, r3, ip
 1003156:	60c3      	str	r3, [r0, #12]
 1003158:	7c10      	ldrb	r0, [r2, #16]
 100315a:	7008      	strb	r0, [r1, #0]
 100315c:	4770      	bx	lr
 100315e:	7803      	ldrb	r3, [r0, #0]
 1003160:	7013      	strb	r3, [r2, #0]
 1003162:	7843      	ldrb	r3, [r0, #1]
 1003164:	7053      	strb	r3, [r2, #1]
 1003166:	8843      	ldrh	r3, [r0, #2]
 1003168:	0a1b      	lsrs	r3, r3, #8
 100316a:	7093      	strb	r3, [r2, #2]
 100316c:	8843      	ldrh	r3, [r0, #2]
 100316e:	70d3      	strb	r3, [r2, #3]
 1003170:	8883      	ldrh	r3, [r0, #4]
 1003172:	0a1b      	lsrs	r3, r3, #8
 1003174:	7113      	strb	r3, [r2, #4]
 1003176:	8883      	ldrh	r3, [r0, #4]
 1003178:	7153      	strb	r3, [r2, #5]
 100317a:	88c3      	ldrh	r3, [r0, #6]
 100317c:	0a1b      	lsrs	r3, r3, #8
 100317e:	7193      	strb	r3, [r2, #6]
 1003180:	88c3      	ldrh	r3, [r0, #6]
 1003182:	71d3      	strb	r3, [r2, #7]
 1003184:	8903      	ldrh	r3, [r0, #8]
 1003186:	0a1b      	lsrs	r3, r3, #8
 1003188:	7213      	strb	r3, [r2, #8]
 100318a:	8903      	ldrh	r3, [r0, #8]
 100318c:	7253      	strb	r3, [r2, #9]
 100318e:	8943      	ldrh	r3, [r0, #10]
 1003190:	0a1b      	lsrs	r3, r3, #8
 1003192:	7293      	strb	r3, [r2, #10]
 1003194:	8943      	ldrh	r3, [r0, #10]
 1003196:	72d3      	strb	r3, [r2, #11]
 1003198:	68c3      	ldr	r3, [r0, #12]
 100319a:	0e1b      	lsrs	r3, r3, #24
 100319c:	7313      	strb	r3, [r2, #12]
 100319e:	68c3      	ldr	r3, [r0, #12]
 10031a0:	0c1b      	lsrs	r3, r3, #16
 10031a2:	7353      	strb	r3, [r2, #13]
 10031a4:	68c3      	ldr	r3, [r0, #12]
 10031a6:	0a1b      	lsrs	r3, r3, #8
 10031a8:	7393      	strb	r3, [r2, #14]
 10031aa:	68c0      	ldr	r0, [r0, #12]
 10031ac:	73d0      	strb	r0, [r2, #15]
 10031ae:	7411      	strb	r1, [r2, #16]
 10031b0:	4770      	bx	lr
 10031b2:	b578      	push	{r3, r4, r5, r6, lr}
 10031b4:	4604      	mov	r4, r0
 10031b6:	f8dd c014 	ldr.w	ip, [sp, #20]
 10031ba:	6840      	ldr	r0, [r0, #4]
 10031bc:	f7ff fa0c 	bl	0x10025d8
 10031c0:	2800      	cmp	r0, #0
 10031c2:	bf1c      	itt	ne
 10031c4:	2002      	movne	r0, #2
 10031c6:	bd78      	popne	{r3, r4, r5, r6, pc}
 10031c8:	f1bc 0f20 	cmp.w	ip, #32
 10031cc:	bf84      	itt	hi
 10031ce:	2008      	movhi	r0, #8
 10031d0:	bd78      	pophi	{r3, r4, r5, r6, pc}
 10031d2:	7561      	strb	r1, [r4, #21]
 10031d4:	75a2      	strb	r2, [r4, #22]
 10031d6:	f104 001c 	add.w	r0, r4, #28
 10031da:	f000 4270 	and.w	r2, r0, #4026531840	; 0xf0000000
 10031de:	60a3      	str	r3, [r4, #8]
 10031e0:	2100      	movs	r1, #0
 10031e2:	f3c0 0013 	ubfx	r0, r0, #0, #20
 10031e6:	f884 c010 	strb.w	ip, [r4, #16]
 10031ea:	ea42 1540 	orr.w	r5, r2, r0, lsl #5
 10031ee:	74a1      	strb	r1, [r4, #18]
 10031f0:	f045 0008 	orr.w	r0, r5, #8
 10031f4:	74e1      	strb	r1, [r4, #19]
 10031f6:	f040 7000 	orr.w	r0, r0, #33554432	; 0x2000000
 10031fa:	75e1      	strb	r1, [r4, #23]
 10031fc:	2601      	movs	r6, #1
 10031fe:	7006      	strb	r6, [r0, #0]
 1003200:	f045 0004 	orr.w	r0, r5, #4
 1003204:	f040 7000 	orr.w	r0, r0, #33554432	; 0x2000000
 1003208:	7001      	strb	r1, [r0, #0]
 100320a:	f045 0010 	orr.w	r0, r5, #16
 100320e:	f040 7000 	orr.w	r0, r0, #33554432	; 0x2000000
 1003212:	7001      	strb	r1, [r0, #0]
 1003214:	f045 7000 	orr.w	r0, r5, #33554432	; 0x2000000
 1003218:	7461      	strb	r1, [r4, #17]
 100321a:	7800      	ldrb	r0, [r0, #0]
 100321c:	b1e0      	cbz	r0, 0x1003258
 100321e:	7d60      	ldrb	r0, [r4, #21]
 1003220:	21fe      	movs	r1, #254	; 0xfe
 1003222:	ea01 0040 	and.w	r0, r1, r0, lsl #1
 1003226:	f88d 0000 	strb.w	r0, [sp]
 100322a:	2201      	movs	r2, #1
 100322c:	4669      	mov	r1, sp
 100322e:	2000      	movs	r0, #0
 1003230:	f7fe faea 	bl	0x1001808
 1003234:	75e0      	strb	r0, [r4, #23]
 1003236:	2201      	movs	r2, #1
 1003238:	f104 0116 	add.w	r1, r4, #22
 100323c:	f7fe fae4 	bl	0x1001808
 1003240:	75e0      	strb	r0, [r4, #23]
 1003242:	2201      	movs	r2, #1
 1003244:	f104 0110 	add.w	r1, r4, #16
 1003248:	f7fe fade 	bl	0x1001808
 100324c:	75e0      	strb	r0, [r4, #23]
 100324e:	7c22      	ldrb	r2, [r4, #16]
 1003250:	68a1      	ldr	r1, [r4, #8]
 1003252:	f7fe fad9 	bl	0x1001808
 1003256:	75e0      	strb	r0, [r4, #23]
 1003258:	7d61      	ldrb	r1, [r4, #21]
 100325a:	2200      	movs	r2, #0
 100325c:	6860      	ldr	r0, [r4, #4]
 100325e:	f7ff fa2a 	bl	0x10026b6
 1003262:	7da1      	ldrb	r1, [r4, #22]
 1003264:	6860      	ldr	r0, [r4, #4]
 1003266:	f7ff f9c1 	bl	0x10025ec
 100326a:	2002      	movs	r0, #2
 100326c:	7660      	strb	r0, [r4, #25]
 100326e:	6860      	ldr	r0, [r4, #4]
 1003270:	f7ff f9ac 	bl	0x10025cc
 1003274:	2800      	cmp	r0, #0
 1003276:	bf1c      	itt	ne
 1003278:	2003      	movne	r0, #3
 100327a:	bd78      	popne	{r3, r4, r5, r6, pc}
 100327c:	f045 000c 	orr.w	r0, r5, #12
 1003280:	f040 7000 	orr.w	r0, r0, #33554432	; 0x2000000
 1003284:	7006      	strb	r6, [r0, #0]
 1003286:	2103      	movs	r1, #3
 1003288:	6860      	ldr	r0, [r4, #4]
 100328a:	f7ff f9ab 	bl	0x10025e4
 100328e:	2000      	movs	r0, #0
 1003290:	bd78      	pop	{r3, r4, r5, r6, pc}
 1003292:	b508      	push	{r3, lr}
 1003294:	2311      	movs	r3, #17
 1003296:	9300      	str	r3, [sp, #0]
 1003298:	460b      	mov	r3, r1
 100329a:	2204      	movs	r2, #4
 100329c:	2161      	movs	r1, #97	; 0x61
 100329e:	f7ff ff88 	bl	0x10031b2
 10032a2:	bd08      	pop	{r3, pc}
 10032a4:	b578      	push	{r3, r4, r5, r6, lr}
 10032a6:	4604      	mov	r4, r0
 10032a8:	6840      	ldr	r0, [r0, #4]
 10032aa:	f7ff f995 	bl	0x10025d8
 10032ae:	2800      	cmp	r0, #0
 10032b0:	bf1c      	itt	ne
 10032b2:	2002      	movne	r0, #2
 10032b4:	bd78      	popne	{r3, r4, r5, r6, pc}
 10032b6:	7561      	strb	r1, [r4, #21]
 10032b8:	75a2      	strb	r2, [r4, #22]
 10032ba:	f104 001c 	add.w	r0, r4, #28
 10032be:	2100      	movs	r1, #0
 10032c0:	f000 4270 	and.w	r2, r0, #4026531840	; 0xf0000000
 10032c4:	60e3      	str	r3, [r4, #12]
 10032c6:	f3c0 0013 	ubfx	r0, r0, #0, #20
 10032ca:	74e1      	strb	r1, [r4, #19]
 10032cc:	ea42 1540 	orr.w	r5, r2, r0, lsl #5
 10032d0:	7421      	strb	r1, [r4, #16]
 10032d2:	f045 0008 	orr.w	r0, r5, #8
 10032d6:	7461      	strb	r1, [r4, #17]
 10032d8:	f040 7000 	orr.w	r0, r0, #33554432	; 0x2000000
 10032dc:	75e1      	strb	r1, [r4, #23]
 10032de:	2601      	movs	r6, #1
 10032e0:	7006      	strb	r6, [r0, #0]
 10032e2:	f045 0004 	orr.w	r0, r5, #4
 10032e6:	f040 7000 	orr.w	r0, r0, #33554432	; 0x2000000
 10032ea:	7001      	strb	r1, [r0, #0]
 10032ec:	f045 0010 	orr.w	r0, r5, #16
 10032f0:	f040 7000 	orr.w	r0, r0, #33554432	; 0x2000000
 10032f4:	7001      	strb	r1, [r0, #0]
 10032f6:	7d61      	ldrb	r1, [r4, #21]
 10032f8:	2200      	movs	r2, #0
 10032fa:	6860      	ldr	r0, [r4, #4]
 10032fc:	f7ff f9db 	bl	0x10026b6
 1003300:	7da1      	ldrb	r1, [r4, #22]
 1003302:	6860      	ldr	r0, [r4, #4]
 1003304:	f7ff f972 	bl	0x10025ec
 1003308:	2003      	movs	r0, #3
 100330a:	74a0      	strb	r0, [r4, #18]
 100330c:	f045 7000 	orr.w	r0, r5, #33554432	; 0x2000000
 1003310:	7800      	ldrb	r0, [r0, #0]
 1003312:	b178      	cbz	r0, 0x1003334
 1003314:	7d60      	ldrb	r0, [r4, #21]
 1003316:	2201      	movs	r2, #1
 1003318:	0040      	lsls	r0, r0, #1
 100331a:	f88d 0000 	strb.w	r0, [sp]
 100331e:	4669      	mov	r1, sp
 1003320:	2000      	movs	r0, #0
 1003322:	f7fe fa71 	bl	0x1001808
 1003326:	75e0      	strb	r0, [r4, #23]
 1003328:	2201      	movs	r2, #1
 100332a:	f104 0116 	add.w	r1, r4, #22
 100332e:	f7fe fa6b 	bl	0x1001808
 1003332:	75e0      	strb	r0, [r4, #23]
 1003334:	2007      	movs	r0, #7
 1003336:	7660      	strb	r0, [r4, #25]
 1003338:	6860      	ldr	r0, [r4, #4]
 100333a:	f7ff f947 	bl	0x10025cc
 100333e:	2800      	cmp	r0, #0
 1003340:	bf1c      	itt	ne
 1003342:	2003      	movne	r0, #3
 1003344:	bd78      	popne	{r3, r4, r5, r6, pc}
 1003346:	f045 000c 	orr.w	r0, r5, #12
 100334a:	f040 7000 	orr.w	r0, r0, #33554432	; 0x2000000
 100334e:	7006      	strb	r6, [r0, #0]
 1003350:	2103      	movs	r1, #3
 1003352:	6860      	ldr	r0, [r4, #4]
 1003354:	f7ff f946 	bl	0x10025e4
 1003358:	2000      	movs	r0, #0
 100335a:	bd78      	pop	{r3, r4, r5, r6, pc}
 100335c:	4613      	mov	r3, r2
 100335e:	2201      	movs	r2, #1
 1003360:	ea42 0141 	orr.w	r1, r2, r1, lsl #1
 1003364:	b2ca      	uxtb	r2, r1
 1003366:	2161      	movs	r1, #97	; 0x61
 1003368:	e79c      	b.n	0x10032a4
 100336a:	460b      	mov	r3, r1
 100336c:	2203      	movs	r2, #3
 100336e:	2161      	movs	r1, #97	; 0x61
 1003370:	e798      	b.n	0x10032a4
 1003372:	b510      	push	{r4, lr}
 1003374:	4603      	mov	r3, r0
 1003376:	460c      	mov	r4, r1
 1003378:	6840      	ldr	r0, [r0, #4]
 100337a:	f7ff f92d 	bl	0x10025d8
 100337e:	2800      	cmp	r0, #0
 1003380:	bf1c      	itt	ne
 1003382:	2002      	movne	r0, #2
 1003384:	bd10      	popne	{r4, pc}
 1003386:	2008      	movs	r0, #8
 1003388:	7558      	strb	r0, [r3, #21]
 100338a:	609a      	str	r2, [r3, #8]
 100338c:	f103 011c 	add.w	r1, r3, #28
 1003390:	2002      	movs	r0, #2
 1003392:	f001 4270 	and.w	r2, r1, #4026531840	; 0xf0000000
 1003396:	7418      	strb	r0, [r3, #16]
 1003398:	f3c1 0113 	ubfx	r1, r1, #0, #20
 100339c:	2000      	movs	r0, #0
 100339e:	ea42 1c41 	orr.w	ip, r2, r1, lsl #5
 10033a2:	7498      	strb	r0, [r3, #18]
 10033a4:	f04c 0108 	orr.w	r1, ip, #8
 10033a8:	74d8      	strb	r0, [r3, #19]
 10033aa:	f041 7100 	orr.w	r1, r1, #33554432	; 0x2000000
 10033ae:	75d8      	strb	r0, [r3, #23]
 10033b0:	7008      	strb	r0, [r1, #0]
 10033b2:	f04c 0104 	orr.w	r1, ip, #4
 10033b6:	f041 7100 	orr.w	r1, r1, #33554432	; 0x2000000
 10033ba:	7008      	strb	r0, [r1, #0]
 10033bc:	f04c 0110 	orr.w	r1, ip, #16
 10033c0:	f041 7100 	orr.w	r1, r1, #33554432	; 0x2000000
 10033c4:	7008      	strb	r0, [r1, #0]
 10033c6:	f04c 7100 	orr.w	r1, ip, #33554432	; 0x2000000
 10033ca:	7008      	strb	r0, [r1, #0]
 10033cc:	7458      	strb	r0, [r3, #17]
 10033ce:	2003      	movs	r0, #3
 10033d0:	7658      	strb	r0, [r3, #25]
 10033d2:	7d59      	ldrb	r1, [r3, #21]
 10033d4:	2200      	movs	r2, #0
 10033d6:	6858      	ldr	r0, [r3, #4]
 10033d8:	f7ff f96d 	bl	0x10026b6
 10033dc:	4621      	mov	r1, r4
 10033de:	6858      	ldr	r0, [r3, #4]
 10033e0:	f7ff f904 	bl	0x10025ec
 10033e4:	6858      	ldr	r0, [r3, #4]
 10033e6:	f7ff f8f1 	bl	0x10025cc
 10033ea:	2800      	cmp	r0, #0
 10033ec:	bf1c      	itt	ne
 10033ee:	2003      	movne	r0, #3
 10033f0:	bd10      	popne	{r4, pc}
 10033f2:	2103      	movs	r1, #3
 10033f4:	6858      	ldr	r0, [r3, #4]
 10033f6:	f7ff f8f5 	bl	0x10025e4
 10033fa:	f04c 010c 	orr.w	r1, ip, #12
 10033fe:	f041 7100 	orr.w	r1, r1, #33554432	; 0x2000000
 1003402:	2001      	movs	r0, #1
 1003404:	7008      	strb	r0, [r1, #0]
 1003406:	2000      	movs	r0, #0
 1003408:	bd10      	pop	{r4, pc}
 100340a:	460a      	mov	r2, r1
 100340c:	21c2      	movs	r1, #194	; 0xc2
 100340e:	e7b0      	b.n	0x1003372
 1003410:	b537      	push	{r0, r1, r2, r4, r5, lr}
 1003412:	4604      	mov	r4, r0
 1003414:	b081      	sub	sp, #4
 1003416:	6840      	ldr	r0, [r0, #4]
 1003418:	f7ff f8de 	bl	0x10025d8
 100341c:	2800      	cmp	r0, #0
 100341e:	bf1e      	ittt	ne
 1003420:	2002      	movne	r0, #2
 1003422:	b004      	addne	sp, #16
 1003424:	bd30      	popne	{r4, r5, pc}
 1003426:	7561      	strb	r1, [r4, #21]
 1003428:	f89d 000c 	ldrb.w	r0, [sp, #12]
 100342c:	75a0      	strb	r0, [r4, #22]
 100342e:	a803      	add	r0, sp, #12
 1003430:	60a0      	str	r0, [r4, #8]
 1003432:	f104 001c 	add.w	r0, r4, #28
 1003436:	2300      	movs	r3, #0
 1003438:	f000 4170 	and.w	r1, r0, #4026531840	; 0xf0000000
 100343c:	7423      	strb	r3, [r4, #16]
 100343e:	f3c0 0013 	ubfx	r0, r0, #0, #20
 1003442:	7463      	strb	r3, [r4, #17]
 1003444:	ea41 1540 	orr.w	r5, r1, r0, lsl #5
 1003448:	74a3      	strb	r3, [r4, #18]
 100344a:	f045 0008 	orr.w	r0, r5, #8
 100344e:	74e3      	strb	r3, [r4, #19]
 1003450:	f040 7000 	orr.w	r0, r0, #33554432	; 0x2000000
 1003454:	75e3      	strb	r3, [r4, #23]
 1003456:	7003      	strb	r3, [r0, #0]
 1003458:	f045 0004 	orr.w	r0, r5, #4
 100345c:	f040 7000 	orr.w	r0, r0, #33554432	; 0x2000000
 1003460:	7003      	strb	r3, [r0, #0]
 1003462:	f045 0010 	orr.w	r0, r5, #16
 1003466:	f040 7000 	orr.w	r0, r0, #33554432	; 0x2000000
 100346a:	7003      	strb	r3, [r0, #0]
 100346c:	7d61      	ldrb	r1, [r4, #21]
 100346e:	2200      	movs	r2, #0
 1003470:	6860      	ldr	r0, [r4, #4]
 1003472:	f7ff f920 	bl	0x10026b6
 1003476:	f89d 100c 	ldrb.w	r1, [sp, #12]
 100347a:	6860      	ldr	r0, [r4, #4]
 100347c:	f7ff f8b6 	bl	0x10025ec
 1003480:	f045 7000 	orr.w	r0, r5, #33554432	; 0x2000000
 1003484:	7800      	ldrb	r0, [r0, #0]
 1003486:	b1d8      	cbz	r0, 0x10034c0
 1003488:	7d60      	ldrb	r0, [r4, #21]
 100348a:	21fe      	movs	r1, #254	; 0xfe
 100348c:	ea01 0040 	and.w	r0, r1, r0, lsl #1
 1003490:	f88d 0000 	strb.w	r0, [sp]
 1003494:	2201      	movs	r2, #1
 1003496:	4669      	mov	r1, sp
 1003498:	2000      	movs	r0, #0
 100349a:	f7fe f9b5 	bl	0x1001808
 100349e:	75e0      	strb	r0, [r4, #23]
 10034a0:	2201      	movs	r2, #1
 10034a2:	68a1      	ldr	r1, [r4, #8]
 10034a4:	f7fe f9b0 	bl	0x1001808
 10034a8:	75e0      	strb	r0, [r4, #23]
 10034aa:	2004      	movs	r0, #4
 10034ac:	7660      	strb	r0, [r4, #25]
 10034ae:	6860      	ldr	r0, [r4, #4]
 10034b0:	f7ff f88c 	bl	0x10025cc
 10034b4:	2800      	cmp	r0, #0
 10034b6:	bf04      	itt	eq
 10034b8:	2103      	moveq	r1, #3
 10034ba:	6860      	ldreq	r0, [r4, #4]
 10034bc:	d109      	bne.n	0x10034d2
 10034be:	e00b      	b.n	0x10034d8
 10034c0:	7663      	strb	r3, [r4, #25]
 10034c2:	6860      	ldr	r0, [r4, #4]
 10034c4:	f7ff f882 	bl	0x10025cc
 10034c8:	2800      	cmp	r0, #0
 10034ca:	bf04      	itt	eq
 10034cc:	2107      	moveq	r1, #7
 10034ce:	6860      	ldreq	r0, [r4, #4]
 10034d0:	d002      	beq.n	0x10034d8
 10034d2:	b004      	add	sp, #16
 10034d4:	2003      	movs	r0, #3
 10034d6:	bd30      	pop	{r4, r5, pc}
 10034d8:	f7ff f884 	bl	0x10025e4
 10034dc:	f045 010c 	orr.w	r1, r5, #12
 10034e0:	f041 7100 	orr.w	r1, r1, #33554432	; 0x2000000
 10034e4:	2001      	movs	r0, #1
 10034e6:	7008      	strb	r0, [r1, #0]
 10034e8:	b004      	add	sp, #16
 10034ea:	2000      	movs	r0, #0
 10034ec:	bd30      	pop	{r4, r5, pc}
 10034ee:	2201      	movs	r2, #1
 10034f0:	2161      	movs	r1, #97	; 0x61
 10034f2:	e78d      	b.n	0x1003410
 10034f4:	0649      	lsls	r1, r1, #25
 10034f6:	0e0a      	lsrs	r2, r1, #24
 10034f8:	2161      	movs	r1, #97	; 0x61
 10034fa:	e789      	b.n	0x1003410
 10034fc:	2202      	movs	r2, #2
 10034fe:	2161      	movs	r1, #97	; 0x61
 1003500:	e786      	b.n	0x1003410
 1003502:	b578      	push	{r3, r4, r5, r6, lr}
 1003504:	4604      	mov	r4, r0
 1003506:	e9dd c505 	ldrd	ip, r5, [sp, #20]
 100350a:	6840      	ldr	r0, [r0, #4]
 100350c:	f7ff f864 	bl	0x10025d8
 1003510:	2800      	cmp	r0, #0
 1003512:	bf1c      	itt	ne
 1003514:	2002      	movne	r0, #2
 1003516:	bd78      	popne	{r3, r4, r5, r6, pc}
 1003518:	f1bc 0f20 	cmp.w	ip, #32
 100351c:	bf84      	itt	hi
 100351e:	2008      	movhi	r0, #8
 1003520:	bd78      	pophi	{r3, r4, r5, r6, pc}
 1003522:	7561      	strb	r1, [r4, #21]
 1003524:	75a2      	strb	r2, [r4, #22]
 1003526:	e9c4 3502 	strd	r3, r5, [r4, #8]
 100352a:	2100      	movs	r1, #0
 100352c:	7461      	strb	r1, [r4, #17]
 100352e:	f884 c010 	strb.w	ip, [r4, #16]
 1003532:	2003      	movs	r0, #3
 1003534:	74e1      	strb	r1, [r4, #19]
 1003536:	74a0      	strb	r0, [r4, #18]
 1003538:	f104 001c 	add.w	r0, r4, #28
 100353c:	f000 4270 	and.w	r2, r0, #4026531840	; 0xf0000000
 1003540:	f3c0 0013 	ubfx	r0, r0, #0, #20
 1003544:	ea42 1540 	orr.w	r5, r2, r0, lsl #5
 1003548:	f045 0004 	orr.w	r0, r5, #4
 100354c:	f040 7000 	orr.w	r0, r0, #33554432	; 0x2000000
 1003550:	75e1      	strb	r1, [r4, #23]
 1003552:	2601      	movs	r6, #1
 1003554:	7006      	strb	r6, [r0, #0]
 1003556:	f045 0008 	orr.w	r0, r5, #8
 100355a:	f040 7000 	orr.w	r0, r0, #33554432	; 0x2000000
 100355e:	7006      	strb	r6, [r0, #0]
 1003560:	f045 0010 	orr.w	r0, r5, #16
 1003564:	f040 7000 	orr.w	r0, r0, #33554432	; 0x2000000
 1003568:	7001      	strb	r1, [r0, #0]
 100356a:	f045 7000 	orr.w	r0, r5, #33554432	; 0x2000000
 100356e:	7800      	ldrb	r0, [r0, #0]
 1003570:	b1e0      	cbz	r0, 0x10035ac
 1003572:	7d60      	ldrb	r0, [r4, #21]
 1003574:	21fe      	movs	r1, #254	; 0xfe
 1003576:	ea01 0040 	and.w	r0, r1, r0, lsl #1
 100357a:	f88d 0000 	strb.w	r0, [sp]
 100357e:	2201      	movs	r2, #1
 1003580:	4669      	mov	r1, sp
 1003582:	2000      	movs	r0, #0
 1003584:	f7fe f940 	bl	0x1001808
 1003588:	75e0      	strb	r0, [r4, #23]
 100358a:	2201      	movs	r2, #1
 100358c:	f104 0116 	add.w	r1, r4, #22
 1003590:	f7fe f93a 	bl	0x1001808
 1003594:	75e0      	strb	r0, [r4, #23]
 1003596:	2201      	movs	r2, #1
 1003598:	f104 0110 	add.w	r1, r4, #16
 100359c:	f7fe f934 	bl	0x1001808
 10035a0:	75e0      	strb	r0, [r4, #23]
 10035a2:	7c22      	ldrb	r2, [r4, #16]
 10035a4:	68a1      	ldr	r1, [r4, #8]
 10035a6:	f7fe f92f 	bl	0x1001808
 10035aa:	75e0      	strb	r0, [r4, #23]
 10035ac:	7d61      	ldrb	r1, [r4, #21]
 10035ae:	2200      	movs	r2, #0
 10035b0:	6860      	ldr	r0, [r4, #4]
 10035b2:	f7ff f880 	bl	0x10026b6
 10035b6:	7da1      	ldrb	r1, [r4, #22]
 10035b8:	6860      	ldr	r0, [r4, #4]
 10035ba:	f7ff f817 	bl	0x10025ec
 10035be:	2002      	movs	r0, #2
 10035c0:	7660      	strb	r0, [r4, #25]
 10035c2:	6860      	ldr	r0, [r4, #4]
 10035c4:	f7ff f802 	bl	0x10025cc
 10035c8:	2800      	cmp	r0, #0
 10035ca:	bf1c      	itt	ne
 10035cc:	2003      	movne	r0, #3
 10035ce:	bd78      	popne	{r3, r4, r5, r6, pc}
 10035d0:	2103      	movs	r1, #3
 10035d2:	6860      	ldr	r0, [r4, #4]
 10035d4:	f7ff f806 	bl	0x10025e4
 10035d8:	f045 000c 	orr.w	r0, r5, #12
 10035dc:	f040 7000 	orr.w	r0, r0, #33554432	; 0x2000000
 10035e0:	7006      	strb	r6, [r0, #0]
 10035e2:	2000      	movs	r0, #0
 10035e4:	bd78      	pop	{r3, r4, r5, r6, pc}
 10035e6:	b578      	push	{r3, r4, r5, r6, lr}
 10035e8:	4604      	mov	r4, r0
 10035ea:	6840      	ldr	r0, [r0, #4]
 10035ec:	f7fe fff4 	bl	0x10025d8
 10035f0:	2800      	cmp	r0, #0
 10035f2:	bf1c      	itt	ne
 10035f4:	2002      	movne	r0, #2
 10035f6:	bd78      	popne	{r3, r4, r5, r6, pc}
 10035f8:	7561      	strb	r1, [r4, #21]
 10035fa:	2100      	movs	r1, #0
 10035fc:	7421      	strb	r1, [r4, #16]
 10035fe:	7461      	strb	r1, [r4, #17]
 1003600:	60e2      	str	r2, [r4, #12]
 1003602:	f104 001c 	add.w	r0, r4, #28
 1003606:	f000 4270 	and.w	r2, r0, #4026531840	; 0xf0000000
 100360a:	f3c0 0013 	ubfx	r0, r0, #0, #20
 100360e:	ea42 1540 	orr.w	r5, r2, r0, lsl #5
 1003612:	2601      	movs	r6, #1
 1003614:	f045 0008 	orr.w	r0, r5, #8
 1003618:	74a6      	strb	r6, [r4, #18]
 100361a:	f040 7000 	orr.w	r0, r0, #33554432	; 0x2000000
 100361e:	75e1      	strb	r1, [r4, #23]
 1003620:	7001      	strb	r1, [r0, #0]
 1003622:	f045 0004 	orr.w	r0, r5, #4
 1003626:	f040 7000 	orr.w	r0, r0, #33554432	; 0x2000000
 100362a:	7001      	strb	r1, [r0, #0]
 100362c:	f045 0010 	orr.w	r0, r5, #16
 1003630:	f040 7000 	orr.w	r0, r0, #33554432	; 0x2000000
 1003634:	7001      	strb	r1, [r0, #0]
 1003636:	7d61      	ldrb	r1, [r4, #21]
 1003638:	4632      	mov	r2, r6
 100363a:	6860      	ldr	r0, [r4, #4]
 100363c:	f7ff f83b 	bl	0x10026b6
 1003640:	f045 7000 	orr.w	r0, r5, #33554432	; 0x2000000
 1003644:	7800      	ldrb	r0, [r0, #0]
 1003646:	b1c0      	cbz	r0, 0x100367a
 1003648:	7d60      	ldrb	r0, [r4, #21]
 100364a:	21fe      	movs	r1, #254	; 0xfe
 100364c:	ea01 0040 	and.w	r0, r1, r0, lsl #1
 1003650:	f040 0001 	orr.w	r0, r0, #1
 1003654:	f88d 0000 	strb.w	r0, [sp]
 1003658:	2201      	movs	r2, #1
 100365a:	4669      	mov	r1, sp
 100365c:	2000      	movs	r0, #0
 100365e:	f7fe f8d3 	bl	0x1001808
 1003662:	75e0      	strb	r0, [r4, #23]
 1003664:	200a      	movs	r0, #10
 1003666:	7660      	strb	r0, [r4, #25]
 1003668:	6860      	ldr	r0, [r4, #4]
 100366a:	f7fe ffaf 	bl	0x10025cc
 100366e:	2800      	cmp	r0, #0
 1003670:	bf04      	itt	eq
 1003672:	210b      	moveq	r1, #11
 1003674:	6860      	ldreq	r0, [r4, #4]
 1003676:	d10a      	bne.n	0x100368e
 1003678:	e00b      	b.n	0x1003692
 100367a:	200b      	movs	r0, #11
 100367c:	7660      	strb	r0, [r4, #25]
 100367e:	6860      	ldr	r0, [r4, #4]
 1003680:	f7fe ffa4 	bl	0x10025cc
 1003684:	2800      	cmp	r0, #0
 1003686:	bf04      	itt	eq
 1003688:	2107      	moveq	r1, #7
 100368a:	6860      	ldreq	r0, [r4, #4]
 100368c:	d001      	beq.n	0x1003692
 100368e:	2003      	movs	r0, #3
 1003690:	bd78      	pop	{r3, r4, r5, r6, pc}
 1003692:	f7fe ffa7 	bl	0x10025e4
 1003696:	f045 000c 	orr.w	r0, r5, #12
 100369a:	f040 7000 	orr.w	r0, r0, #33554432	; 0x2000000
 100369e:	7006      	strb	r6, [r0, #0]
 10036a0:	2000      	movs	r0, #0
 10036a2:	bd78      	pop	{r3, r4, r5, r6, pc}
 10036a4:	b578      	push	{r3, r4, r5, r6, lr}
 10036a6:	4604      	mov	r4, r0
 10036a8:	f8dd c014 	ldr.w	ip, [sp, #20]
 10036ac:	6840      	ldr	r0, [r0, #4]
 10036ae:	f7fe ff93 	bl	0x10025d8
 10036b2:	2800      	cmp	r0, #0
 10036b4:	bf1c      	itt	ne
 10036b6:	2002      	movne	r0, #2
 10036b8:	bd78      	popne	{r3, r4, r5, r6, pc}
 10036ba:	f1bc 0f02 	cmp.w	ip, #2
 10036be:	bf84      	itt	hi
 10036c0:	2008      	movhi	r0, #8
 10036c2:	bd78      	pophi	{r3, r4, r5, r6, pc}
 10036c4:	7561      	strb	r1, [r4, #21]
 10036c6:	75a2      	strb	r2, [r4, #22]
 10036c8:	f104 011c 	add.w	r1, r4, #28
 10036cc:	2000      	movs	r0, #0
 10036ce:	60e3      	str	r3, [r4, #12]
 10036d0:	f001 4270 	and.w	r2, r1, #4026531840	; 0xf0000000
 10036d4:	7420      	strb	r0, [r4, #16]
 10036d6:	f3c1 0113 	ubfx	r1, r1, #0, #20
 10036da:	7460      	strb	r0, [r4, #17]
 10036dc:	ea42 1541 	orr.w	r5, r2, r1, lsl #5
 10036e0:	74e0      	strb	r0, [r4, #19]
 10036e2:	f045 0108 	orr.w	r1, r5, #8
 10036e6:	f884 c012 	strb.w	ip, [r4, #18]
 10036ea:	f041 7100 	orr.w	r1, r1, #33554432	; 0x2000000
 10036ee:	75e0      	strb	r0, [r4, #23]
 10036f0:	7008      	strb	r0, [r1, #0]
 10036f2:	f045 0104 	orr.w	r1, r5, #4
 10036f6:	f041 7100 	orr.w	r1, r1, #33554432	; 0x2000000
 10036fa:	7008      	strb	r0, [r1, #0]
 10036fc:	f045 0110 	orr.w	r1, r5, #16
 1003700:	f041 7100 	orr.w	r1, r1, #33554432	; 0x2000000
 1003704:	7008      	strb	r0, [r1, #0]
 1003706:	7d61      	ldrb	r1, [r4, #21]
 1003708:	2200      	movs	r2, #0
 100370a:	6860      	ldr	r0, [r4, #4]
 100370c:	f7fe ffd3 	bl	0x10026b6
 1003710:	7da1      	ldrb	r1, [r4, #22]
 1003712:	6860      	ldr	r0, [r4, #4]
 1003714:	f7fe ff6a 	bl	0x10025ec
 1003718:	f045 7000 	orr.w	r0, r5, #33554432	; 0x2000000
 100371c:	7800      	ldrb	r0, [r0, #0]
 100371e:	2607      	movs	r6, #7
 1003720:	b318      	cbz	r0, 0x100376a
 1003722:	7d60      	ldrb	r0, [r4, #21]
 1003724:	2201      	movs	r2, #1
 1003726:	0040      	lsls	r0, r0, #1
 1003728:	f88d 0000 	strb.w	r0, [sp]
 100372c:	4669      	mov	r1, sp
 100372e:	2000      	movs	r0, #0
 1003730:	f7fe f86a 	bl	0x1001808
 1003734:	75e0      	strb	r0, [r4, #23]
 1003736:	2201      	movs	r2, #1
 1003738:	f104 0116 	add.w	r1, r4, #22
 100373c:	f7fe f864 	bl	0x1001808
 1003740:	75e0      	strb	r0, [r4, #23]
 1003742:	7666      	strb	r6, [r4, #25]
 1003744:	6860      	ldr	r0, [r4, #4]
 1003746:	f7fe ff41 	bl	0x10025cc
 100374a:	2800      	cmp	r0, #0
 100374c:	bf1c      	itt	ne
 100374e:	2003      	movne	r0, #3
 1003750:	bd78      	popne	{r3, r4, r5, r6, pc}
 1003752:	2103      	movs	r1, #3
 1003754:	6860      	ldr	r0, [r4, #4]
 1003756:	f7fe ff45 	bl	0x10025e4
 100375a:	f045 010c 	orr.w	r1, r5, #12
 100375e:	f041 7100 	orr.w	r1, r1, #33554432	; 0x2000000
 1003762:	2001      	movs	r0, #1
 1003764:	7008      	strb	r0, [r1, #0]
 1003766:	2000      	movs	r0, #0
 1003768:	bd78      	pop	{r3, r4, r5, r6, pc}
 100376a:	7ca0      	ldrb	r0, [r4, #18]
 100376c:	2802      	cmp	r0, #2
 100376e:	bf1a      	itte	ne
 1003770:	2006      	movne	r0, #6
 1003772:	7660      	strbne	r0, [r4, #25]
 1003774:	7666      	strbeq	r6, [r4, #25]
 1003776:	e7e5      	b.n	0x1003744
 1003778:	b578      	push	{r3, r4, r5, r6, lr}
 100377a:	4604      	mov	r4, r0
 100377c:	f8dd c014 	ldr.w	ip, [sp, #20]
 1003780:	6840      	ldr	r0, [r0, #4]
 1003782:	f7fe ff29 	bl	0x10025d8
 1003786:	2800      	cmp	r0, #0
 1003788:	bf1c      	itt	ne
 100378a:	2002      	movne	r0, #2
 100378c:	bd78      	popne	{r3, r4, r5, r6, pc}
 100378e:	f1bc 0f02 	cmp.w	ip, #2
 1003792:	bf84      	itt	hi
 1003794:	2008      	movhi	r0, #8
 1003796:	bd78      	pophi	{r3, r4, r5, r6, pc}
 1003798:	7561      	strb	r1, [r4, #21]
 100379a:	75a2      	strb	r2, [r4, #22]
 100379c:	f104 011c 	add.w	r1, r4, #28
 10037a0:	f001 4270 	and.w	r2, r1, #4026531840	; 0xf0000000
 10037a4:	60a3      	str	r3, [r4, #8]
 10037a6:	f3c1 0113 	ubfx	r1, r1, #0, #20
 10037aa:	f884 c010 	strb.w	ip, [r4, #16]
 10037ae:	2000      	movs	r0, #0
 10037b0:	ea42 1541 	orr.w	r5, r2, r1, lsl #5
 10037b4:	74a0      	strb	r0, [r4, #18]
 10037b6:	f045 0108 	orr.w	r1, r5, #8
 10037ba:	74e0      	strb	r0, [r4, #19]
 10037bc:	f041 7100 	orr.w	r1, r1, #33554432	; 0x2000000
 10037c0:	75e0      	strb	r0, [r4, #23]
 10037c2:	7008      	strb	r0, [r1, #0]
 10037c4:	f045 0104 	orr.w	r1, r5, #4
 10037c8:	f041 7100 	orr.w	r1, r1, #33554432	; 0x2000000
 10037cc:	7008      	strb	r0, [r1, #0]
 10037ce:	f045 0110 	orr.w	r1, r5, #16
 10037d2:	f041 7100 	orr.w	r1, r1, #33554432	; 0x2000000
 10037d6:	7008      	strb	r0, [r1, #0]
 10037d8:	7460      	strb	r0, [r4, #17]
 10037da:	7d61      	ldrb	r1, [r4, #21]
 10037dc:	2200      	movs	r2, #0
 10037de:	6860      	ldr	r0, [r4, #4]
 10037e0:	f7fe ff69 	bl	0x10026b6
 10037e4:	f045 7000 	orr.w	r0, r5, #33554432	; 0x2000000
 10037e8:	7800      	ldrb	r0, [r0, #0]
 10037ea:	2603      	movs	r6, #3
 10037ec:	b370      	cbz	r0, 0x100384c
 10037ee:	7d60      	ldrb	r0, [r4, #21]
 10037f0:	21fe      	movs	r1, #254	; 0xfe
 10037f2:	ea01 0040 	and.w	r0, r1, r0, lsl #1
 10037f6:	f88d 0000 	strb.w	r0, [sp]
 10037fa:	2201      	movs	r2, #1
 10037fc:	4669      	mov	r1, sp
 10037fe:	2000      	movs	r0, #0
 1003800:	f7fe f802 	bl	0x1001808
 1003804:	75e0      	strb	r0, [r4, #23]
 1003806:	2201      	movs	r2, #1
 1003808:	f104 0116 	add.w	r1, r4, #22
 100380c:	f7fd fffc 	bl	0x1001808
 1003810:	75e0      	strb	r0, [r4, #23]
 1003812:	7c22      	ldrb	r2, [r4, #16]
 1003814:	68a1      	ldr	r1, [r4, #8]
 1003816:	f7fd fff7 	bl	0x1001808
 100381a:	75e0      	strb	r0, [r4, #23]
 100381c:	7666      	strb	r6, [r4, #25]
 100381e:	7da1      	ldrb	r1, [r4, #22]
 1003820:	6860      	ldr	r0, [r4, #4]
 1003822:	f7fe fee3 	bl	0x10025ec
 1003826:	6860      	ldr	r0, [r4, #4]
 1003828:	f7fe fed0 	bl	0x10025cc
 100382c:	2800      	cmp	r0, #0
 100382e:	bf1c      	itt	ne
 1003830:	2003      	movne	r0, #3
 1003832:	bd78      	popne	{r3, r4, r5, r6, pc}
 1003834:	2103      	movs	r1, #3
 1003836:	6860      	ldr	r0, [r4, #4]
 1003838:	f7fe fed4 	bl	0x10025e4
 100383c:	f045 010c 	orr.w	r1, r5, #12
 1003840:	f041 7100 	orr.w	r1, r1, #33554432	; 0x2000000
 1003844:	2001      	movs	r0, #1
 1003846:	7008      	strb	r0, [r1, #0]
 1003848:	2000      	movs	r0, #0
 100384a:	bd78      	pop	{r3, r4, r5, r6, pc}
 100384c:	f1bc 0f01 	cmp.w	ip, #1
 1003850:	bf12      	itee	ne
 1003852:	7666      	strbne	r6, [r4, #25]
 1003854:	2004      	moveq	r0, #4
 1003856:	7660      	strbeq	r0, [r4, #25]
 1003858:	e7e1      	b.n	0x100381e
 100385a:	b530      	push	{r4, r5, lr}
 100385c:	4684      	mov	ip, r0
 100385e:	6840      	ldr	r0, [r0, #4]
 1003860:	f7fe feba 	bl	0x10025d8
 1003864:	2800      	cmp	r0, #0
 1003866:	bf1c      	itt	ne
 1003868:	2002      	movne	r0, #2
 100386a:	bd30      	popne	{r4, r5, pc}
 100386c:	f88c 1015 	strb.w	r1, [ip, #21]
 1003870:	f8cc 200c 	str.w	r2, [ip, #12]
 1003874:	f10c 001c 	add.w	r0, ip, #28
 1003878:	2100      	movs	r1, #0
 100387a:	f000 4270 	and.w	r2, r0, #4026531840	; 0xf0000000
 100387e:	f88c 1010 	strb.w	r1, [ip, #16]
 1003882:	f3c0 0013 	ubfx	r0, r0, #0, #20
 1003886:	f88c 1011 	strb.w	r1, [ip, #17]
 100388a:	ea42 1440 	orr.w	r4, r2, r0, lsl #5
 100388e:	f88c 1013 	strb.w	r1, [ip, #19]
 1003892:	f044 7000 	orr.w	r0, r4, #33554432	; 0x2000000
 1003896:	f88c 3012 	strb.w	r3, [ip, #18]
 100389a:	7001      	strb	r1, [r0, #0]
 100389c:	f044 0008 	orr.w	r0, r4, #8
 10038a0:	f040 7000 	orr.w	r0, r0, #33554432	; 0x2000000
 10038a4:	7001      	strb	r1, [r0, #0]
 10038a6:	f044 0004 	orr.w	r0, r4, #4
 10038aa:	f040 7000 	orr.w	r0, r0, #33554432	; 0x2000000
 10038ae:	7001      	strb	r1, [r0, #0]
 10038b0:	f044 0010 	orr.w	r0, r4, #16
 10038b4:	f040 7000 	orr.w	r0, r0, #33554432	; 0x2000000
 10038b8:	2501      	movs	r5, #1
 10038ba:	7005      	strb	r5, [r0, #0]
 10038bc:	f89c 1015 	ldrb.w	r1, [ip, #21]
 10038c0:	462a      	mov	r2, r5
 10038c2:	f8dc 0004 	ldr.w	r0, [ip, #4]
 10038c6:	f7fe fef6 	bl	0x10026b6
 10038ca:	f8dc 0004 	ldr.w	r0, [ip, #4]
 10038ce:	f7fe fe7d 	bl	0x10025cc
 10038d2:	2800      	cmp	r0, #0
 10038d4:	bf1c      	itt	ne
 10038d6:	2003      	movne	r0, #3
 10038d8:	bd30      	popne	{r4, r5, pc}
 10038da:	2b01      	cmp	r3, #1
 10038dc:	bf01      	itttt	eq
 10038de:	200b      	moveq	r0, #11
 10038e0:	f88c 0019 	strbeq.w	r0, [ip, #25]
 10038e4:	2107      	moveq	r1, #7
 10038e6:	f8dc 0004 	ldreq.w	r0, [ip, #4]
 10038ea:	d008      	beq.n	0x10038fe
 10038ec:	2b02      	cmp	r3, #2
 10038ee:	bf0c      	ite	eq
 10038f0:	200a      	moveq	r0, #10
 10038f2:	2009      	movne	r0, #9
 10038f4:	f88c 0019 	strb.w	r0, [ip, #25]
 10038f8:	210b      	movs	r1, #11
 10038fa:	f8dc 0004 	ldr.w	r0, [ip, #4]
 10038fe:	f7fe fe71 	bl	0x10025e4
 1003902:	f044 000c 	orr.w	r0, r4, #12
 1003906:	f040 7000 	orr.w	r0, r0, #33554432	; 0x2000000
 100390a:	7005      	strb	r5, [r0, #0]
 100390c:	2000      	movs	r0, #0
 100390e:	bd30      	pop	{r4, r5, pc}
 1003910:	b570      	push	{r4, r5, r6, lr}
 1003912:	4684      	mov	ip, r0
 1003914:	6840      	ldr	r0, [r0, #4]
 1003916:	f7fe fe5f 	bl	0x10025d8
 100391a:	2800      	cmp	r0, #0
 100391c:	bf1c      	itt	ne
 100391e:	2002      	movne	r0, #2
 1003920:	bd70      	popne	{r4, r5, r6, pc}
 1003922:	f88c 1015 	strb.w	r1, [ip, #21]
 1003926:	f10c 001c 	add.w	r0, ip, #28
 100392a:	f8cc 2008 	str.w	r2, [ip, #8]
 100392e:	2601      	movs	r6, #1
 1003930:	f000 4170 	and.w	r1, r0, #4026531840	; 0xf0000000
 1003934:	f88c 3010 	strb.w	r3, [ip, #16]
 1003938:	f3c0 0013 	ubfx	r0, r0, #0, #20
 100393c:	f88c 6011 	strb.w	r6, [ip, #17]
 1003940:	2500      	movs	r5, #0
 1003942:	ea41 1440 	orr.w	r4, r1, r0, lsl #5
 1003946:	f88c 5012 	strb.w	r5, [ip, #18]
 100394a:	f044 7000 	orr.w	r0, r4, #33554432	; 0x2000000
 100394e:	f88c 5013 	strb.w	r5, [ip, #19]
 1003952:	7005      	strb	r5, [r0, #0]
 1003954:	f044 0008 	orr.w	r0, r4, #8
 1003958:	f040 7000 	orr.w	r0, r0, #33554432	; 0x2000000
 100395c:	7005      	strb	r5, [r0, #0]
 100395e:	f044 0004 	orr.w	r0, r4, #4
 1003962:	f040 7000 	orr.w	r0, r0, #33554432	; 0x2000000
 1003966:	7005      	strb	r5, [r0, #0]
 1003968:	f044 0010 	orr.w	r0, r4, #16
 100396c:	f040 7000 	orr.w	r0, r0, #33554432	; 0x2000000
 1003970:	7006      	strb	r6, [r0, #0]
 1003972:	f89c 1015 	ldrb.w	r1, [ip, #21]
 1003976:	2200      	movs	r2, #0
 1003978:	f8dc 0004 	ldr.w	r0, [ip, #4]
 100397c:	f7fe fe9b 	bl	0x10026b6
 1003980:	f8dc 0008 	ldr.w	r0, [ip, #8]
 1003984:	7801      	ldrb	r1, [r0, #0]
 1003986:	f8dc 0004 	ldr.w	r0, [ip, #4]
 100398a:	f7fe fe2f 	bl	0x10025ec
 100398e:	2b01      	cmp	r3, #1
 1003990:	d00b      	beq.n	0x10039aa
 1003992:	2b02      	cmp	r3, #2
 1003994:	d016      	beq.n	0x10039c4
 1003996:	2003      	movs	r0, #3
 1003998:	f88c 0019 	strb.w	r0, [ip, #25]
 100399c:	f8dc 0004 	ldr.w	r0, [ip, #4]
 10039a0:	f7fe fe14 	bl	0x10025cc
 10039a4:	b1b8      	cbz	r0, 0x10039d6
 10039a6:	2003      	movs	r0, #3
 10039a8:	bd70      	pop	{r4, r5, r6, pc}
 10039aa:	f88c 5019 	strb.w	r5, [ip, #25]
 10039ae:	f8dc 0004 	ldr.w	r0, [ip, #4]
 10039b2:	f7fe fe0b 	bl	0x10025cc
 10039b6:	2800      	cmp	r0, #0
 10039b8:	bf04      	itt	eq
 10039ba:	2107      	moveq	r1, #7
 10039bc:	f8dc 0004 	ldreq.w	r0, [ip, #4]
 10039c0:	d1f1      	bne.n	0x10039a6
 10039c2:	e00b      	b.n	0x10039dc
 10039c4:	2004      	movs	r0, #4
 10039c6:	f88c 0019 	strb.w	r0, [ip, #25]
 10039ca:	f8dc 0004 	ldr.w	r0, [ip, #4]
 10039ce:	f7fe fdfd 	bl	0x10025cc
 10039d2:	2800      	cmp	r0, #0
 10039d4:	d1e7      	bne.n	0x10039a6
 10039d6:	2103      	movs	r1, #3
 10039d8:	f8dc 0004 	ldr.w	r0, [ip, #4]
 10039dc:	f7fe fe02 	bl	0x10025e4
 10039e0:	f044 000c 	orr.w	r0, r4, #12
 10039e4:	f040 7000 	orr.w	r0, r0, #33554432	; 0x2000000
 10039e8:	7006      	strb	r6, [r0, #0]
 10039ea:	2000      	movs	r0, #0
 10039ec:	bd70      	pop	{r4, r5, r6, pc}
 10039ee:	b530      	push	{r4, r5, lr}
 10039f0:	4684      	mov	ip, r0
 10039f2:	e9dd 5403 	ldrd	r5, r4, [sp, #12]
 10039f6:	6840      	ldr	r0, [r0, #4]
 10039f8:	f7fe fdee 	bl	0x10025d8
 10039fc:	2800      	cmp	r0, #0
 10039fe:	bf1c      	itt	ne
 1003a00:	2002      	movne	r0, #2
 1003a02:	bd30      	popne	{r4, r5, pc}
 1003a04:	f88c 1015 	strb.w	r1, [ip, #21]
 1003a08:	e9cc 2502 	strd	r2, r5, [ip, #8]
 1003a0c:	2501      	movs	r5, #1
 1003a0e:	f88c 5011 	strb.w	r5, [ip, #17]
 1003a12:	f88c 3010 	strb.w	r3, [ip, #16]
 1003a16:	2100      	movs	r1, #0
 1003a18:	f10c 001c 	add.w	r0, ip, #28
 1003a1c:	f88c 1013 	strb.w	r1, [ip, #19]
 1003a20:	f000 4270 	and.w	r2, r0, #4026531840	; 0xf0000000
 1003a24:	f88c 4012 	strb.w	r4, [ip, #18]
 1003a28:	f3c0 0013 	ubfx	r0, r0, #0, #20
 1003a2c:	ea42 1440 	orr.w	r4, r2, r0, lsl #5
 1003a30:	f044 7000 	orr.w	r0, r4, #33554432	; 0x2000000
 1003a34:	7001      	strb	r1, [r0, #0]
 1003a36:	f044 0004 	orr.w	r0, r4, #4
 1003a3a:	f040 7000 	orr.w	r0, r0, #33554432	; 0x2000000
 1003a3e:	7005      	strb	r5, [r0, #0]
 1003a40:	f044 0008 	orr.w	r0, r4, #8
 1003a44:	f040 7000 	orr.w	r0, r0, #33554432	; 0x2000000
 1003a48:	7001      	strb	r1, [r0, #0]
 1003a4a:	f044 0010 	orr.w	r0, r4, #16
 1003a4e:	f040 7000 	orr.w	r0, r0, #33554432	; 0x2000000
 1003a52:	7005      	strb	r5, [r0, #0]
 1003a54:	f89c 1015 	ldrb.w	r1, [ip, #21]
 1003a58:	2200      	movs	r2, #0
 1003a5a:	f8dc 0004 	ldr.w	r0, [ip, #4]
 1003a5e:	f7fe fe2a 	bl	0x10026b6
 1003a62:	f8dc 0008 	ldr.w	r0, [ip, #8]
 1003a66:	7801      	ldrb	r1, [r0, #0]
 1003a68:	f8dc 0004 	ldr.w	r0, [ip, #4]
 1003a6c:	f7fe fdbe 	bl	0x10025ec
 1003a70:	2b01      	cmp	r3, #1
 1003a72:	bf04      	itt	eq
 1003a74:	2007      	moveq	r0, #7
 1003a76:	f88c 0019 	strbeq.w	r0, [ip, #25]
 1003a7a:	d005      	beq.n	0x1003a88
 1003a7c:	2b02      	cmp	r3, #2
 1003a7e:	bf0c      	ite	eq
 1003a80:	2004      	moveq	r0, #4
 1003a82:	2003      	movne	r0, #3
 1003a84:	f88c 0019 	strb.w	r0, [ip, #25]
 1003a88:	f8dc 0004 	ldr.w	r0, [ip, #4]
 1003a8c:	f7fe fd9e 	bl	0x10025cc
 1003a90:	2800      	cmp	r0, #0
 1003a92:	bf1c      	itt	ne
 1003a94:	2003      	movne	r0, #3
 1003a96:	bd30      	popne	{r4, r5, pc}
 1003a98:	2103      	movs	r1, #3
 1003a9a:	f8dc 0004 	ldr.w	r0, [ip, #4]
 1003a9e:	f7fe fda1 	bl	0x10025e4
 1003aa2:	f044 000c 	orr.w	r0, r4, #12
 1003aa6:	f040 7000 	orr.w	r0, r0, #33554432	; 0x2000000
 1003aaa:	7005      	strb	r5, [r0, #0]
 1003aac:	2000      	movs	r0, #0
 1003aae:	bd30      	pop	{r4, r5, pc}
 1003ab0:	b510      	push	{r4, lr}
 1003ab2:	4604      	mov	r4, r0
 1003ab4:	460b      	mov	r3, r1
 1003ab6:	2000      	movs	r0, #0
 1003ab8:	e9c4 0300 	strd	r0, r3, [r4]
 1003abc:	83a0      	strh	r0, [r4, #28]
 1003abe:	7660      	strb	r0, [r4, #25]
 1003ac0:	7520      	strb	r0, [r4, #20]
 1003ac2:	7560      	strb	r0, [r4, #21]
 1003ac4:	75a0      	strb	r0, [r4, #22]
 1003ac6:	75e0      	strb	r0, [r4, #23]
 1003ac8:	7420      	strb	r0, [r4, #16]
 1003aca:	7460      	strb	r0, [r4, #17]
 1003acc:	4611      	mov	r1, r2
 1003ace:	74a0      	strb	r0, [r4, #18]
 1003ad0:	74e0      	strb	r0, [r4, #19]
 1003ad2:	4602      	mov	r2, r0
 1003ad4:	4618      	mov	r0, r3
 1003ad6:	f7fe fda1 	bl	0x100261c
 1003ada:	6860      	ldr	r0, [r4, #4]
 1003adc:	e8bd 4010 	ldmia.w	sp!, {r4, lr}
 1003ae0:	219c      	movs	r1, #156	; 0x9c
 1003ae2:	f7fe bdec 	b.w	0x10026be
 1003ae6:	b500      	push	{lr}
 1003ae8:	4603      	mov	r3, r0
 1003aea:	6840      	ldr	r0, [r0, #4]
 1003aec:	2103      	movs	r1, #3
 1003aee:	f7fe fdcb 	bl	0x1002688
 1003af2:	4af8      	ldr	r2, [pc, #992]	; (0x1003ed4)
 1003af4:	6858      	ldr	r0, [r3, #4]
 1003af6:	1a81      	subs	r1, r0, r2
 1003af8:	4290      	cmp	r0, r2
 1003afa:	d025      	beq.n	0x1003b48
 1003afc:	dc0e      	bgt.n	0x1003b1c
 1003afe:	f511 5040 	adds.w	r0, r1, #12288	; 0x3000
 1003b02:	d017      	beq.n	0x1003b34
 1003b04:	f5b0 5f80 	cmp.w	r0, #4096	; 0x1000
 1003b08:	d019      	beq.n	0x1003b3e
 1003b0a:	f5b0 5f00 	cmp.w	r0, #8192	; 0x2000
 1003b0e:	bf18      	it	ne
 1003b10:	bd00      	popne	{pc}
 1003b12:	2054      	movs	r0, #84	; 0x54
 1003b14:	f85d eb04 	ldr.w	lr, [sp], #4
 1003b18:	f7fe be3c 	b.w	0x1002794
 1003b1c:	f5b1 2f1d 	cmp.w	r1, #643072	; 0x9d000
 1003b20:	d017      	beq.n	0x1003b52
 1003b22:	f5b1 2f1e 	cmp.w	r1, #647168	; 0x9e000
 1003b26:	bf18      	it	ne
 1003b28:	bd00      	popne	{pc}
 1003b2a:	207e      	movs	r0, #126	; 0x7e
 1003b2c:	f85d eb04 	ldr.w	lr, [sp], #4
 1003b30:	f7fe be30 	b.w	0x1002794
 1003b34:	2018      	movs	r0, #24
 1003b36:	f85d eb04 	ldr.w	lr, [sp], #4
 1003b3a:	f7fe be2b 	b.w	0x1002794
 1003b3e:	2035      	movs	r0, #53	; 0x35
 1003b40:	f85d eb04 	ldr.w	lr, [sp], #4
 1003b44:	f7fe be26 	b.w	0x1002794
 1003b48:	2055      	movs	r0, #85	; 0x55
 1003b4a:	f85d eb04 	ldr.w	lr, [sp], #4
 1003b4e:	f7fe be21 	b.w	0x1002794
 1003b52:	207d      	movs	r0, #125	; 0x7d
 1003b54:	f85d eb04 	ldr.w	lr, [sp], #4
 1003b58:	f7fe be1c 	b.w	0x1002794
 1003b5c:	b538      	push	{r3, r4, r5, lr}
 1003b5e:	4604      	mov	r4, r0
 1003b60:	6840      	ldr	r0, [r0, #4]
 1003b62:	2101      	movs	r1, #1
 1003b64:	f7fe fda0 	bl	0x10026a8
 1003b68:	f010 0f02 	tst.w	r0, #2
 1003b6c:	f104 001c 	add.w	r0, r4, #28
 1003b70:	f000 4270 	and.w	r2, r0, #4026531840	; 0xf0000000
 1003b74:	f3c0 0013 	ubfx	r0, r0, #0, #20
 1003b78:	ea42 1540 	orr.w	r5, r2, r0, lsl #5
 1003b7c:	f045 020c 	orr.w	r2, r5, #12
 1003b80:	6860      	ldr	r0, [r4, #4]
 1003b82:	f042 7200 	orr.w	r2, r2, #33554432	; 0x2000000
 1003b86:	f04f 0c00 	mov.w	ip, #0
 1003b8a:	d006      	beq.n	0x1003b9a
 1003b8c:	2103      	movs	r1, #3
 1003b8e:	f7fe fd6e 	bl	0x100266e
 1003b92:	f882 c000 	strb.w	ip, [r2]
 1003b96:	2001      	movs	r0, #1
 1003b98:	bd38      	pop	{r3, r4, r5, pc}
 1003b9a:	2101      	movs	r1, #1
 1003b9c:	f7fe fd67 	bl	0x100266e
 1003ba0:	6860      	ldr	r0, [r4, #4]
 1003ba2:	6843      	ldr	r3, [r0, #4]
 1003ba4:	f013 0f10 	tst.w	r3, #16
 1003ba8:	d005      	beq.n	0x1003bb6
 1003baa:	f884 c019 	strb.w	ip, [r4, #25]
 1003bae:	f882 c000 	strb.w	ip, [r2]
 1003bb2:	2004      	movs	r0, #4
 1003bb4:	bd38      	pop	{r3, r4, r5, pc}
 1003bb6:	f013 0f02 	tst.w	r3, #2
 1003bba:	d017      	beq.n	0x1003bec
 1003bbc:	f884 c019 	strb.w	ip, [r4, #25]
 1003bc0:	f7fe fd04 	bl	0x10025cc
 1003bc4:	2800      	cmp	r0, #0
 1003bc6:	bf08      	it	eq
 1003bc8:	f882 c000 	strbeq.w	ip, [r2]
 1003bcc:	d003      	beq.n	0x1003bd6
 1003bce:	2104      	movs	r1, #4
 1003bd0:	6860      	ldr	r0, [r4, #4]
 1003bd2:	f7fe fd07 	bl	0x10025e4
 1003bd6:	f013 0f04 	tst.w	r3, #4
 1003bda:	bf1c      	itt	ne
 1003bdc:	2005      	movne	r0, #5
 1003bde:	bd38      	popne	{r3, r4, r5, pc}
 1003be0:	f013 0f08 	tst.w	r3, #8
 1003be4:	bf14      	ite	ne
 1003be6:	2006      	movne	r0, #6
 1003be8:	2009      	moveq	r0, #9
 1003bea:	bd38      	pop	{r3, r4, r5, pc}
 1003bec:	7e61      	ldrb	r1, [r4, #25]
 1003bee:	290f      	cmp	r1, #15
 1003bf0:	f080 8181 	bcs.w	0x1003ef6
 1003bf4:	e8df f001 	tbb	[pc, r1]
 1003bf8:	b808      			; <UNDEFINED> instruction: 0xb808
 1003bfa:	2110      	movs	r1, #16
 1003bfc:	b84a      			; <UNDEFINED> instruction: 0xb84a
 1003bfe:	8379      	strh	r1, [r7, #26]
 1003c00:	f5b9 f2f3 	bl	0x9bd1ea
 1003c04:	b8b8      			; <UNDEFINED> instruction: 0xb8b8
 1003c06:	00f1      	lsls	r1, r6, #3
 1003c08:	f7fe fce6 	bl	0x10025d8
 1003c0c:	2800      	cmp	r0, #0
 1003c0e:	bf08      	it	eq
 1003c10:	f882 c000 	strbeq.w	ip, [r2]
 1003c14:	f000 b96f 	b.w	0x1003ef6
 1003c18:	7c21      	ldrb	r1, [r4, #16]
 1003c1a:	f7fe fce7 	bl	0x10025ec
 1003c1e:	2101      	movs	r1, #1
 1003c20:	6860      	ldr	r0, [r4, #4]
 1003c22:	f7fe fcdf 	bl	0x10025e4
 1003c26:	7c20      	ldrb	r0, [r4, #16]
 1003c28:	2801      	cmp	r0, #1
 1003c2a:	d103      	bne.n	0x1003c34
 1003c2c:	f045 7000 	orr.w	r0, r5, #33554432	; 0x2000000
 1003c30:	7800      	ldrb	r0, [r0, #0]
 1003c32:	b1f0      	cbz	r0, 0x1003c72
 1003c34:	2003      	movs	r0, #3
 1003c36:	f000 b8e1 	b.w	0x1003dfc
 1003c3a:	7c61      	ldrb	r1, [r4, #17]
 1003c3c:	68a3      	ldr	r3, [r4, #8]
 1003c3e:	1c4a      	adds	r2, r1, #1
 1003c40:	7462      	strb	r2, [r4, #17]
 1003c42:	5c59      	ldrb	r1, [r3, r1]
 1003c44:	f7fe fcd2 	bl	0x10025ec
 1003c48:	2101      	movs	r1, #1
 1003c4a:	6860      	ldr	r0, [r4, #4]
 1003c4c:	f7fe fcca 	bl	0x10025e4
 1003c50:	f045 7000 	orr.w	r0, r5, #33554432	; 0x2000000
 1003c54:	7800      	ldrb	r0, [r0, #0]
 1003c56:	b190      	cbz	r0, 0x1003c7e
 1003c58:	f045 0004 	orr.w	r0, r5, #4
 1003c5c:	f040 7000 	orr.w	r0, r0, #33554432	; 0x2000000
 1003c60:	7800      	ldrb	r0, [r0, #0]
 1003c62:	7c21      	ldrb	r1, [r4, #16]
 1003c64:	2800      	cmp	r0, #0
 1003c66:	7c60      	ldrb	r0, [r4, #17]
 1003c68:	d005      	beq.n	0x1003c76
 1003c6a:	1e49      	subs	r1, r1, #1
 1003c6c:	4288      	cmp	r0, r1
 1003c6e:	f040 8142 	bne.w	0x1003ef6
 1003c72:	2004      	movs	r0, #4
 1003c74:	e0c2      	b.n	0x1003dfc
 1003c76:	4288      	cmp	r0, r1
 1003c78:	f040 813d 	bne.w	0x1003ef6
 1003c7c:	e7f9      	b.n	0x1003c72
 1003c7e:	7c21      	ldrb	r1, [r4, #16]
 1003c80:	7c60      	ldrb	r0, [r4, #17]
 1003c82:	1e49      	subs	r1, r1, #1
 1003c84:	4288      	cmp	r0, r1
 1003c86:	f040 8136 	bne.w	0x1003ef6
 1003c8a:	e7f2      	b.n	0x1003c72
 1003c8c:	f045 7100 	orr.w	r1, r5, #33554432	; 0x2000000
 1003c90:	7809      	ldrb	r1, [r1, #0]
 1003c92:	b181      	cbz	r1, 0x1003cb6
 1003c94:	f045 0104 	orr.w	r1, r5, #4
 1003c98:	f041 7100 	orr.w	r1, r1, #33554432	; 0x2000000
 1003c9c:	7809      	ldrb	r1, [r1, #0]
 1003c9e:	2900      	cmp	r1, #0
 1003ca0:	bf08      	it	eq
 1003ca2:	7de1      	ldrbeq	r1, [r4, #23]
 1003ca4:	d004      	beq.n	0x1003cb0
 1003ca6:	7c61      	ldrb	r1, [r4, #17]
 1003ca8:	68a3      	ldr	r3, [r4, #8]
 1003caa:	1c4a      	adds	r2, r1, #1
 1003cac:	7462      	strb	r2, [r4, #17]
 1003cae:	5c59      	ldrb	r1, [r3, r1]
 1003cb0:	f7fe fc9c 	bl	0x10025ec
 1003cb4:	e006      	b.n	0x1003cc4
 1003cb6:	7c61      	ldrb	r1, [r4, #17]
 1003cb8:	68a3      	ldr	r3, [r4, #8]
 1003cba:	1c4a      	adds	r2, r1, #1
 1003cbc:	7462      	strb	r2, [r4, #17]
 1003cbe:	5c59      	ldrb	r1, [r3, r1]
 1003cc0:	f7fe fc94 	bl	0x10025ec
 1003cc4:	f045 0004 	orr.w	r0, r5, #4
 1003cc8:	f040 7000 	orr.w	r0, r0, #33554432	; 0x2000000
 1003ccc:	7800      	ldrb	r0, [r0, #0]
 1003cce:	b120      	cbz	r0, 0x1003cda
 1003cd0:	2007      	movs	r0, #7
 1003cd2:	7660      	strb	r0, [r4, #25]
 1003cd4:	2101      	movs	r1, #1
 1003cd6:	6860      	ldr	r0, [r4, #4]
 1003cd8:	e044      	b.n	0x1003d64
 1003cda:	2105      	movs	r1, #5
 1003cdc:	6860      	ldr	r0, [r4, #4]
 1003cde:	f7fe fc81 	bl	0x10025e4
 1003ce2:	f884 c019 	strb.w	ip, [r4, #25]
 1003ce6:	f000 b906 	b.w	0x1003ef6
 1003cea:	7d61      	ldrb	r1, [r4, #21]
 1003cec:	2201      	movs	r2, #1
 1003cee:	f7fe fce2 	bl	0x10026b6
 1003cf2:	2107      	movs	r1, #7
 1003cf4:	6860      	ldr	r0, [r4, #4]
 1003cf6:	f7fe fc75 	bl	0x10025e4
 1003cfa:	200b      	movs	r0, #11
 1003cfc:	e07e      	b.n	0x1003dfc
 1003cfe:	7d61      	ldrb	r1, [r4, #21]
 1003d00:	2201      	movs	r2, #1
 1003d02:	f7fe fcd8 	bl	0x10026b6
 1003d06:	f045 7000 	orr.w	r0, r5, #33554432	; 0x2000000
 1003d0a:	7800      	ldrb	r0, [r0, #0]
 1003d0c:	b1e8      	cbz	r0, 0x1003d4a
 1003d0e:	7d60      	ldrb	r0, [r4, #21]
 1003d10:	21fe      	movs	r1, #254	; 0xfe
 1003d12:	ea01 0040 	and.w	r0, r1, r0, lsl #1
 1003d16:	f040 0001 	orr.w	r0, r0, #1
 1003d1a:	f88d 0000 	strb.w	r0, [sp]
 1003d1e:	7de0      	ldrb	r0, [r4, #23]
 1003d20:	2201      	movs	r2, #1
 1003d22:	4669      	mov	r1, sp
 1003d24:	f7fd fd70 	bl	0x1001808
 1003d28:	75e0      	strb	r0, [r4, #23]
 1003d2a:	7ca0      	ldrb	r0, [r4, #18]
 1003d2c:	2801      	cmp	r0, #1
 1003d2e:	d90a      	bls.n	0x1003d46
 1003d30:	f045 0008 	orr.w	r0, r5, #8
 1003d34:	f040 7000 	orr.w	r0, r0, #33554432	; 0x2000000
 1003d38:	7800      	ldrb	r0, [r0, #0]
 1003d3a:	b978      	cbnz	r0, 0x1003d5c
 1003d3c:	e010      	b.n	0x1003d60
 1003d3e:	7660      	strb	r0, [r4, #25]
 1003d40:	210b      	movs	r1, #11
 1003d42:	6860      	ldr	r0, [r4, #4]
 1003d44:	e00e      	b.n	0x1003d64
 1003d46:	200a      	movs	r0, #10
 1003d48:	e7f9      	b.n	0x1003d3e
 1003d4a:	7ca0      	ldrb	r0, [r4, #18]
 1003d4c:	2802      	cmp	r0, #2
 1003d4e:	d9fa      	bls.n	0x1003d46
 1003d50:	f045 0008 	orr.w	r0, r5, #8
 1003d54:	f040 7000 	orr.w	r0, r0, #33554432	; 0x2000000
 1003d58:	7800      	ldrb	r0, [r0, #0]
 1003d5a:	b108      	cbz	r0, 0x1003d60
 1003d5c:	2008      	movs	r0, #8
 1003d5e:	e7ee      	b.n	0x1003d3e
 1003d60:	2009      	movs	r0, #9
 1003d62:	e7ec      	b.n	0x1003d3e
 1003d64:	f7fe fc3e 	bl	0x10025e4
 1003d68:	e0c5      	b.n	0x1003ef6
 1003d6a:	f7fe fc3d 	bl	0x10025e8
 1003d6e:	b2c0      	uxtb	r0, r0
 1003d70:	74a0      	strb	r0, [r4, #18]
 1003d72:	2820      	cmp	r0, #32
 1003d74:	d814      	bhi.n	0x1003da0
 1003d76:	b198      	cbz	r0, 0x1003da0
 1003d78:	f045 7500 	orr.w	r5, r5, #33554432	; 0x2000000
 1003d7c:	7828      	ldrb	r0, [r5, #0]
 1003d7e:	b130      	cbz	r0, 0x1003d8e
 1003d80:	7de0      	ldrb	r0, [r4, #23]
 1003d82:	2201      	movs	r2, #1
 1003d84:	f104 0112 	add.w	r1, r4, #18
 1003d88:	f7fd fd3e 	bl	0x1001808
 1003d8c:	75e0      	strb	r0, [r4, #23]
 1003d8e:	7ca0      	ldrb	r0, [r4, #18]
 1003d90:	2801      	cmp	r0, #1
 1003d92:	d00c      	beq.n	0x1003dae
 1003d94:	2802      	cmp	r0, #2
 1003d96:	bf1c      	itt	ne
 1003d98:	2009      	movne	r0, #9
 1003d9a:	7660      	strbne	r0, [r4, #25]
 1003d9c:	d11a      	bne.n	0x1003dd4
 1003d9e:	e013      	b.n	0x1003dc8
 1003da0:	200e      	movs	r0, #14
 1003da2:	7660      	strb	r0, [r4, #25]
 1003da4:	2107      	movs	r1, #7
 1003da6:	6860      	ldr	r0, [r4, #4]
 1003da8:	f7fe fc1c 	bl	0x10025e4
 1003dac:	e0a3      	b.n	0x1003ef6
 1003dae:	7828      	ldrb	r0, [r5, #0]
 1003db0:	2800      	cmp	r0, #0
 1003db2:	bf14      	ite	ne
 1003db4:	200a      	movne	r0, #10
 1003db6:	200b      	moveq	r0, #11
 1003db8:	7660      	strb	r0, [r4, #25]
 1003dba:	7828      	ldrb	r0, [r5, #0]
 1003dbc:	2800      	cmp	r0, #0
 1003dbe:	bf04      	itt	eq
 1003dc0:	2105      	moveq	r1, #5
 1003dc2:	6860      	ldreq	r0, [r4, #4]
 1003dc4:	d0ce      	beq.n	0x1003d64
 1003dc6:	e005      	b.n	0x1003dd4
 1003dc8:	7828      	ldrb	r0, [r5, #0]
 1003dca:	2800      	cmp	r0, #0
 1003dcc:	bf14      	ite	ne
 1003dce:	2009      	movne	r0, #9
 1003dd0:	200a      	moveq	r0, #10
 1003dd2:	7660      	strb	r0, [r4, #25]
 1003dd4:	2109      	movs	r1, #9
 1003dd6:	6860      	ldr	r0, [r4, #4]
 1003dd8:	e7c4      	b.n	0x1003d64
 1003dda:	e08e      	b.n	0x1003efa
 1003ddc:	e062      	b.n	0x1003ea4
 1003dde:	e037      	b.n	0x1003e50
 1003de0:	e7ff      	b.n	0x1003de2
 1003de2:	7ce1      	ldrb	r1, [r4, #19]
 1003de4:	7ca2      	ldrb	r2, [r4, #18]
 1003de6:	4291      	cmp	r1, r2
 1003de8:	d30a      	bcc.n	0x1003e00
 1003dea:	f7fe fbfd 	bl	0x10025e8
 1003dee:	f88d 0000 	strb.w	r0, [sp]
 1003df2:	2105      	movs	r1, #5
 1003df4:	6860      	ldr	r0, [r4, #4]
 1003df6:	f7fe fbf5 	bl	0x10025e4
 1003dfa:	200e      	movs	r0, #14
 1003dfc:	7660      	strb	r0, [r4, #25]
 1003dfe:	e07a      	b.n	0x1003ef6
 1003e00:	f7fe fbf2 	bl	0x10025e8
 1003e04:	7ce2      	ldrb	r2, [r4, #19]
 1003e06:	68e1      	ldr	r1, [r4, #12]
 1003e08:	5488      	strb	r0, [r1, r2]
 1003e0a:	2109      	movs	r1, #9
 1003e0c:	6860      	ldr	r0, [r4, #4]
 1003e0e:	f7fe fbe9 	bl	0x10025e4
 1003e12:	f045 7000 	orr.w	r0, r5, #33554432	; 0x2000000
 1003e16:	7800      	ldrb	r0, [r0, #0]
 1003e18:	b180      	cbz	r0, 0x1003e3c
 1003e1a:	7ce1      	ldrb	r1, [r4, #19]
 1003e1c:	68e0      	ldr	r0, [r4, #12]
 1003e1e:	2201      	movs	r2, #1
 1003e20:	4401      	add	r1, r0
 1003e22:	7de0      	ldrb	r0, [r4, #23]
 1003e24:	f7fd fcf0 	bl	0x1001808
 1003e28:	75e0      	strb	r0, [r4, #23]
 1003e2a:	7ce0      	ldrb	r0, [r4, #19]
 1003e2c:	1c40      	adds	r0, r0, #1
 1003e2e:	b2c0      	uxtb	r0, r0
 1003e30:	74e0      	strb	r0, [r4, #19]
 1003e32:	7ca1      	ldrb	r1, [r4, #18]
 1003e34:	1a08      	subs	r0, r1, r0
 1003e36:	2801      	cmp	r0, #1
 1003e38:	d008      	beq.n	0x1003e4c
 1003e3a:	e05c      	b.n	0x1003ef6
 1003e3c:	7ce0      	ldrb	r0, [r4, #19]
 1003e3e:	1c40      	adds	r0, r0, #1
 1003e40:	b2c0      	uxtb	r0, r0
 1003e42:	74e0      	strb	r0, [r4, #19]
 1003e44:	7ca1      	ldrb	r1, [r4, #18]
 1003e46:	1a08      	subs	r0, r1, r0
 1003e48:	2802      	cmp	r0, #2
 1003e4a:	d154      	bne.n	0x1003ef6
 1003e4c:	200a      	movs	r0, #10
 1003e4e:	e7d5      	b.n	0x1003dfc
 1003e50:	7ce1      	ldrb	r1, [r4, #19]
 1003e52:	7ca2      	ldrb	r2, [r4, #18]
 1003e54:	4291      	cmp	r1, r2
 1003e56:	d30a      	bcc.n	0x1003e6e
 1003e58:	f7fe fbc6 	bl	0x10025e8
 1003e5c:	f88d 0000 	strb.w	r0, [sp]
 1003e60:	2105      	movs	r1, #5
 1003e62:	6860      	ldr	r0, [r4, #4]
 1003e64:	f7fe fbbe 	bl	0x10025e4
 1003e68:	200e      	movs	r0, #14
 1003e6a:	7660      	strb	r0, [r4, #25]
 1003e6c:	e043      	b.n	0x1003ef6
 1003e6e:	f7fe fbbb 	bl	0x10025e8
 1003e72:	7ce2      	ldrb	r2, [r4, #19]
 1003e74:	68e1      	ldr	r1, [r4, #12]
 1003e76:	5488      	strb	r0, [r1, r2]
 1003e78:	200b      	movs	r0, #11
 1003e7a:	7660      	strb	r0, [r4, #25]
 1003e7c:	2105      	movs	r1, #5
 1003e7e:	6860      	ldr	r0, [r4, #4]
 1003e80:	f7fe fbb0 	bl	0x10025e4
 1003e84:	f045 7000 	orr.w	r0, r5, #33554432	; 0x2000000
 1003e88:	7800      	ldrb	r0, [r0, #0]
 1003e8a:	b138      	cbz	r0, 0x1003e9c
 1003e8c:	7ce1      	ldrb	r1, [r4, #19]
 1003e8e:	68e0      	ldr	r0, [r4, #12]
 1003e90:	2201      	movs	r2, #1
 1003e92:	4401      	add	r1, r0
 1003e94:	7de0      	ldrb	r0, [r4, #23]
 1003e96:	f7fd fcb7 	bl	0x1001808
 1003e9a:	75e0      	strb	r0, [r4, #23]
 1003e9c:	7ce0      	ldrb	r0, [r4, #19]
 1003e9e:	1c40      	adds	r0, r0, #1
 1003ea0:	74e0      	strb	r0, [r4, #19]
 1003ea2:	e028      	b.n	0x1003ef6
 1003ea4:	f7fe fba0 	bl	0x10025e8
 1003ea8:	b2c0      	uxtb	r0, r0
 1003eaa:	f045 7100 	orr.w	r1, r5, #33554432	; 0x2000000
 1003eae:	f88d 0000 	strb.w	r0, [sp]
 1003eb2:	7809      	ldrb	r1, [r1, #0]
 1003eb4:	7ca3      	ldrb	r3, [r4, #18]
 1003eb6:	2900      	cmp	r1, #0
 1003eb8:	7ce1      	ldrb	r1, [r4, #19]
 1003eba:	d00d      	beq.n	0x1003ed8
 1003ebc:	4299      	cmp	r1, r3
 1003ebe:	d80d      	bhi.n	0x1003edc
 1003ec0:	7620      	strb	r0, [r4, #24]
 1003ec2:	7de1      	ldrb	r1, [r4, #23]
 1003ec4:	4288      	cmp	r0, r1
 1003ec6:	bf1e      	ittt	ne
 1003ec8:	f882 c000 	strbne.w	ip, [r2]
 1003ecc:	2007      	movne	r0, #7
 1003ece:	bd38      	popne	{r3, r4, r5, pc}
 1003ed0:	e00d      	b.n	0x1003eee
 1003ed2:	0000      	movs	r0, r0
 1003ed4:	3000      	adds	r0, #0
 1003ed6:	4002      	ands	r2, r0
 1003ed8:	4299      	cmp	r1, r3
 1003eda:	d303      	bcc.n	0x1003ee4
 1003edc:	f882 c000 	strb.w	ip, [r2]
 1003ee0:	2008      	movs	r0, #8
 1003ee2:	bd38      	pop	{r3, r4, r5, pc}
 1003ee4:	68e3      	ldr	r3, [r4, #12]
 1003ee6:	5458      	strb	r0, [r3, r1]
 1003ee8:	7ce0      	ldrb	r0, [r4, #19]
 1003eea:	1c40      	adds	r0, r0, #1
 1003eec:	74e0      	strb	r0, [r4, #19]
 1003eee:	f884 c019 	strb.w	ip, [r4, #25]
 1003ef2:	f882 c000 	strb.w	ip, [r2]
 1003ef6:	2000      	movs	r0, #0
 1003ef8:	bd38      	pop	{r3, r4, r5, pc}
 1003efa:	f7fe fb75 	bl	0x10025e8
 1003efe:	f88d 0000 	strb.w	r0, [sp]
 1003f02:	f884 c019 	strb.w	ip, [r4, #25]
 1003f06:	f882 c000 	strb.w	ip, [r2]
 1003f0a:	2008      	movs	r0, #8
 1003f0c:	bd38      	pop	{r3, r4, r5, pc}
 1003f0e:	b578      	push	{r3, r4, r5, r6, lr}
 1003f10:	4604      	mov	r4, r0
 1003f12:	f8dd c014 	ldr.w	ip, [sp, #20]
 1003f16:	6840      	ldr	r0, [r0, #4]
 1003f18:	f7fe fb5e 	bl	0x10025d8
 1003f1c:	2800      	cmp	r0, #0
 1003f1e:	bf1c      	itt	ne
 1003f20:	2002      	movne	r0, #2
 1003f22:	bd78      	popne	{r3, r4, r5, r6, pc}
 1003f24:	7561      	strb	r1, [r4, #21]
 1003f26:	75a2      	strb	r2, [r4, #22]
 1003f28:	e9c4 3c02 	strd	r3, ip, [r4, #8]
 1003f2c:	2100      	movs	r1, #0
 1003f2e:	2002      	movs	r0, #2
 1003f30:	7461      	strb	r1, [r4, #17]
 1003f32:	7420      	strb	r0, [r4, #16]
 1003f34:	74e1      	strb	r1, [r4, #19]
 1003f36:	74a0      	strb	r0, [r4, #18]
 1003f38:	f104 001c 	add.w	r0, r4, #28
 1003f3c:	f000 4270 	and.w	r2, r0, #4026531840	; 0xf0000000
 1003f40:	f3c0 0013 	ubfx	r0, r0, #0, #20
 1003f44:	ea42 1540 	orr.w	r5, r2, r0, lsl #5
 1003f48:	f045 0004 	orr.w	r0, r5, #4
 1003f4c:	f040 7000 	orr.w	r0, r0, #33554432	; 0x2000000
 1003f50:	75e1      	strb	r1, [r4, #23]
 1003f52:	2601      	movs	r6, #1
 1003f54:	7006      	strb	r6, [r0, #0]
 1003f56:	f045 0008 	orr.w	r0, r5, #8
 1003f5a:	f040 7000 	orr.w	r0, r0, #33554432	; 0x2000000
 1003f5e:	7001      	strb	r1, [r0, #0]
 1003f60:	f045 0010 	orr.w	r0, r5, #16
 1003f64:	f040 7000 	orr.w	r0, r0, #33554432	; 0x2000000
 1003f68:	7001      	strb	r1, [r0, #0]
 1003f6a:	7d61      	ldrb	r1, [r4, #21]
 1003f6c:	2200      	movs	r2, #0
 1003f6e:	6860      	ldr	r0, [r4, #4]
 1003f70:	f7fe fba1 	bl	0x10026b6
 1003f74:	f045 7000 	orr.w	r0, r5, #33554432	; 0x2000000
 1003f78:	7800      	ldrb	r0, [r0, #0]
 1003f7a:	b1b0      	cbz	r0, 0x1003faa
 1003f7c:	7d60      	ldrb	r0, [r4, #21]
 1003f7e:	21fe      	movs	r1, #254	; 0xfe
 1003f80:	ea01 0040 	and.w	r0, r1, r0, lsl #1
 1003f84:	f88d 0000 	strb.w	r0, [sp]
 1003f88:	2201      	movs	r2, #1
 1003f8a:	4669      	mov	r1, sp
 1003f8c:	2000      	movs	r0, #0
 1003f8e:	f7fd fc3b 	bl	0x1001808
 1003f92:	75e0      	strb	r0, [r4, #23]
 1003f94:	2201      	movs	r2, #1
 1003f96:	f104 0116 	add.w	r1, r4, #22
 1003f9a:	f7fd fc35 	bl	0x1001808
 1003f9e:	75e0      	strb	r0, [r4, #23]
 1003fa0:	7c22      	ldrb	r2, [r4, #16]
 1003fa2:	68a1      	ldr	r1, [r4, #8]
 1003fa4:	f7fd fc30 	bl	0x1001808
 1003fa8:	75e0      	strb	r0, [r4, #23]
 1003faa:	7da1      	ldrb	r1, [r4, #22]
 1003fac:	6860      	ldr	r0, [r4, #4]
 1003fae:	f7fe fb1d 	bl	0x10025ec
 1003fb2:	2003      	movs	r0, #3
 1003fb4:	7660      	strb	r0, [r4, #25]
 1003fb6:	6860      	ldr	r0, [r4, #4]
 1003fb8:	f7fe fb08 	bl	0x10025cc
 1003fbc:	2800      	cmp	r0, #0
 1003fbe:	bf1c      	itt	ne
 1003fc0:	2003      	movne	r0, #3
 1003fc2:	bd78      	popne	{r3, r4, r5, r6, pc}
 1003fc4:	2103      	movs	r1, #3
 1003fc6:	6860      	ldr	r0, [r4, #4]
 1003fc8:	f7fe fb0c 	bl	0x10025e4
 1003fcc:	f045 000c 	orr.w	r0, r5, #12
 1003fd0:	f040 7000 	orr.w	r0, r0, #33554432	; 0x2000000
 1003fd4:	7006      	strb	r6, [r0, #0]
 1003fd6:	2000      	movs	r0, #0
 1003fd8:	bd78      	pop	{r3, r4, r5, r6, pc}
 1003fda:	b500      	push	{lr}
 1003fdc:	4603      	mov	r3, r0
 1003fde:	6840      	ldr	r0, [r0, #4]
 1003fe0:	f7fe fafa 	bl	0x10025d8
 1003fe4:	2800      	cmp	r0, #0
 1003fe6:	bf1c      	itt	ne
 1003fe8:	2002      	movne	r0, #2
 1003fea:	bd00      	popne	{pc}
 1003fec:	7559      	strb	r1, [r3, #21]
 1003fee:	f103 011c 	add.w	r1, r3, #28
 1003ff2:	f001 4c70 	and.w	ip, r1, #4026531840	; 0xf0000000
 1003ff6:	2000      	movs	r0, #0
 1003ff8:	f3c1 0113 	ubfx	r1, r1, #0, #20
 1003ffc:	7418      	strb	r0, [r3, #16]
 1003ffe:	ea4c 1c41 	orr.w	ip, ip, r1, lsl #5
 1004002:	7498      	strb	r0, [r3, #18]
 1004004:	f04c 0108 	orr.w	r1, ip, #8
 1004008:	74d8      	strb	r0, [r3, #19]
 100400a:	f041 7100 	orr.w	r1, r1, #33554432	; 0x2000000
 100400e:	75d8      	strb	r0, [r3, #23]
 1004010:	7008      	strb	r0, [r1, #0]
 1004012:	f04c 0104 	orr.w	r1, ip, #4
 1004016:	f041 7100 	orr.w	r1, r1, #33554432	; 0x2000000
 100401a:	7008      	strb	r0, [r1, #0]
 100401c:	f04c 0110 	orr.w	r1, ip, #16
 1004020:	f041 7100 	orr.w	r1, r1, #33554432	; 0x2000000
 1004024:	7008      	strb	r0, [r1, #0]
 1004026:	f04c 7100 	orr.w	r1, ip, #33554432	; 0x2000000
 100402a:	7008      	strb	r0, [r1, #0]
 100402c:	7458      	strb	r0, [r3, #17]
 100402e:	7658      	strb	r0, [r3, #25]
 1004030:	7d59      	ldrb	r1, [r3, #21]
 1004032:	6858      	ldr	r0, [r3, #4]
 1004034:	f7fe fb3f 	bl	0x10026b6
 1004038:	6858      	ldr	r0, [r3, #4]
 100403a:	f7fe fac7 	bl	0x10025cc
 100403e:	2800      	cmp	r0, #0
 1004040:	bf1c      	itt	ne
 1004042:	2003      	movne	r0, #3
 1004044:	bd00      	popne	{pc}
 1004046:	2127      	movs	r1, #39	; 0x27
 1004048:	6858      	ldr	r0, [r3, #4]
 100404a:	f7fe facb 	bl	0x10025e4
 100404e:	f04c 010c 	orr.w	r1, ip, #12
 1004052:	f041 7100 	orr.w	r1, r1, #33554432	; 0x2000000
 1004056:	2001      	movs	r0, #1
 1004058:	7008      	strb	r0, [r1, #0]
 100405a:	2000      	movs	r0, #0
 100405c:	bd00      	pop	{pc}
 100405e:	2100      	movs	r1, #0
 1004060:	301c      	adds	r0, #28
 1004062:	f000 4270 	and.w	r2, r0, #4026531840	; 0xf0000000
 1004066:	f3c0 0013 	ubfx	r0, r0, #0, #20
 100406a:	ea42 1040 	orr.w	r0, r2, r0, lsl #5
 100406e:	f040 7000 	orr.w	r0, r0, #33554432	; 0x2000000
 1004072:	7001      	strb	r1, [r0, #0]
 1004074:	4770      	bx	lr
 1004076:	2101      	movs	r1, #1
 1004078:	301c      	adds	r0, #28
 100407a:	f000 4270 	and.w	r2, r0, #4026531840	; 0xf0000000
 100407e:	f3c0 0013 	ubfx	r0, r0, #0, #20
 1004082:	ea42 1040 	orr.w	r0, r2, r0, lsl #5
 1004086:	f040 7000 	orr.w	r0, r0, #33554432	; 0x2000000
 100408a:	7001      	strb	r1, [r0, #0]
 100408c:	4770      	bx	lr
 100408e:	7cc0      	ldrb	r0, [r0, #19]
 1004090:	4770      	bx	lr
 1004092:	6840      	ldr	r0, [r0, #4]
 1004094:	b111      	cbz	r1, 0x100409c
 1004096:	2101      	movs	r1, #1
 1004098:	f7fe bb1c 	b.w	0x10026d4
 100409c:	2100      	movs	r1, #0
 100409e:	f7fe bb19 	b.w	0x10026d4
 10040a2:	6840      	ldr	r0, [r0, #4]
 10040a4:	f7fe bb1f 	b.w	0x10026e6
 10040a8:	301c      	adds	r0, #28
 10040aa:	f000 4170 	and.w	r1, r0, #4026531840	; 0xf0000000
 10040ae:	f3c0 0013 	ubfx	r0, r0, #0, #20
 10040b2:	ea41 1040 	orr.w	r0, r1, r0, lsl #5
 10040b6:	f040 0014 	orr.w	r0, r0, #20
 10040ba:	f040 7000 	orr.w	r0, r0, #33554432	; 0x2000000
 10040be:	7800      	ldrb	r0, [r0, #0]
 10040c0:	4770      	bx	lr
 10040c2:	301c      	adds	r0, #28
 10040c4:	f000 4270 	and.w	r2, r0, #4026531840	; 0xf0000000
 10040c8:	f3c0 0013 	ubfx	r0, r0, #0, #20
 10040cc:	ea42 1040 	orr.w	r0, r2, r0, lsl #5
 10040d0:	f040 0014 	orr.w	r0, r0, #20
 10040d4:	f040 7000 	orr.w	r0, r0, #33554432	; 0x2000000
 10040d8:	7001      	strb	r1, [r0, #0]
 10040da:	4770      	bx	lr
 10040dc:	301c      	adds	r0, #28
 10040de:	f000 4170 	and.w	r1, r0, #4026531840	; 0xf0000000
 10040e2:	f3c0 0013 	ubfx	r0, r0, #0, #20
 10040e6:	ea41 1040 	orr.w	r0, r1, r0, lsl #5
 10040ea:	f040 0018 	orr.w	r0, r0, #24
 10040ee:	f040 7000 	orr.w	r0, r0, #33554432	; 0x2000000
 10040f2:	7800      	ldrb	r0, [r0, #0]
 10040f4:	4770      	bx	lr
 10040f6:	301c      	adds	r0, #28
 10040f8:	f000 4270 	and.w	r2, r0, #4026531840	; 0xf0000000
 10040fc:	f3c0 0013 	ubfx	r0, r0, #0, #20
 1004100:	ea42 1040 	orr.w	r0, r2, r0, lsl #5
 1004104:	f040 0018 	orr.w	r0, r0, #24
 1004108:	f040 7000 	orr.w	r0, r0, #33554432	; 0x2000000
 100410c:	7001      	strb	r1, [r0, #0]
 100410e:	4770      	bx	lr
 1004110:	2100      	movs	r1, #0
 1004112:	301c      	adds	r0, #28
 1004114:	f000 4270 	and.w	r2, r0, #4026531840	; 0xf0000000
 1004118:	f3c0 0013 	ubfx	r0, r0, #0, #20
 100411c:	ea42 1040 	orr.w	r0, r2, r0, lsl #5
 1004120:	f040 0008 	orr.w	r0, r0, #8
 1004124:	f040 7000 	orr.w	r0, r0, #33554432	; 0x2000000
 1004128:	7001      	strb	r1, [r0, #0]
 100412a:	4770      	bx	lr
 100412c:	2101      	movs	r1, #1
 100412e:	301c      	adds	r0, #28
 1004130:	f000 4270 	and.w	r2, r0, #4026531840	; 0xf0000000
 1004134:	f3c0 0013 	ubfx	r0, r0, #0, #20
 1004138:	ea42 1040 	orr.w	r0, r2, r0, lsl #5
 100413c:	f040 0008 	orr.w	r0, r0, #8
 1004140:	f040 7000 	orr.w	r0, r0, #33554432	; 0x2000000
 1004144:	7001      	strb	r1, [r0, #0]
 1004146:	4770      	bx	lr
 1004148:	7d80      	ldrb	r0, [r0, #22]
 100414a:	4770      	bx	lr
 100414c:	b570      	push	{r4, r5, r6, lr}
 100414e:	4604      	mov	r4, r0
 1004150:	7c00      	ldrb	r0, [r0, #16]
 1004152:	b082      	sub	sp, #8
 1004154:	2800      	cmp	r0, #0
 1004156:	bf02      	ittt	eq
 1004158:	2012      	moveq	r0, #18
 100415a:	b002      	addeq	sp, #8
 100415c:	bd70      	popeq	{r4, r5, r6, pc}
 100415e:	f104 011c 	add.w	r1, r4, #28
 1004162:	f001 4270 	and.w	r2, r1, #4026531840	; 0xf0000000
 1004166:	f3c1 0113 	ubfx	r1, r1, #0, #20
 100416a:	ea42 1241 	orr.w	r2, r2, r1, lsl #5
 100416e:	f042 0108 	orr.w	r1, r2, #8
 1004172:	f041 7100 	orr.w	r1, r1, #33554432	; 0x2000000
 1004176:	7809      	ldrb	r1, [r1, #0]
 1004178:	2900      	cmp	r1, #0
 100417a:	bf18      	it	ne
 100417c:	f88d 0000 	strbne.w	r0, [sp]
 1004180:	d10c      	bne.n	0x100419c
 1004182:	7c61      	ldrb	r1, [r4, #17]
 1004184:	4281      	cmp	r1, r0
 1004186:	bf28      	it	cs
 1004188:	21ff      	movcs	r1, #255	; 0xff
 100418a:	d205      	bcs.n	0x1004198
 100418c:	f8d4 c008 	ldr.w	ip, [r4, #8]
 1004190:	1c4b      	adds	r3, r1, #1
 1004192:	7463      	strb	r3, [r4, #17]
 1004194:	f81c 1001 	ldrb.w	r1, [ip, r1]
 1004198:	f88d 1000 	strb.w	r1, [sp]
 100419c:	f042 7100 	orr.w	r1, r2, #33554432	; 0x2000000
 10041a0:	7809      	ldrb	r1, [r1, #0]
 10041a2:	2504      	movs	r5, #4
 10041a4:	2603      	movs	r6, #3
 10041a6:	b1a9      	cbz	r1, 0x10041d4
 10041a8:	7d20      	ldrb	r0, [r4, #20]
 10041aa:	2101      	movs	r1, #1
 10041ac:	ea41 0040 	orr.w	r0, r1, r0, lsl #1
 10041b0:	f88d 0004 	strb.w	r0, [sp, #4]
 10041b4:	460a      	mov	r2, r1
 10041b6:	7de0      	ldrb	r0, [r4, #23]
 10041b8:	a901      	add	r1, sp, #4
 10041ba:	f7fd fb25 	bl	0x1001808
 10041be:	75e0      	strb	r0, [r4, #23]
 10041c0:	2201      	movs	r2, #1
 10041c2:	4669      	mov	r1, sp
 10041c4:	f7fd fb20 	bl	0x1001808
 10041c8:	75e0      	strb	r0, [r4, #23]
 10041ca:	7c60      	ldrb	r0, [r4, #17]
 10041cc:	7c21      	ldrb	r1, [r4, #16]
 10041ce:	4288      	cmp	r0, r1
 10041d0:	d011      	beq.n	0x10041f6
 10041d2:	e007      	b.n	0x10041e4
 10041d4:	7c61      	ldrb	r1, [r4, #17]
 10041d6:	1a40      	subs	r0, r0, r1
 10041d8:	bf04      	itt	eq
 10041da:	2005      	moveq	r0, #5
 10041dc:	76a0      	strbeq	r0, [r4, #26]
 10041de:	d002      	beq.n	0x10041e6
 10041e0:	2801      	cmp	r0, #1
 10041e2:	d008      	beq.n	0x10041f6
 10041e4:	76a6      	strb	r6, [r4, #26]
 10041e6:	f89d 1000 	ldrb.w	r1, [sp]
 10041ea:	6860      	ldr	r0, [r4, #4]
 10041ec:	f7fe fa87 	bl	0x10026fe
 10041f0:	b002      	add	sp, #8
 10041f2:	2000      	movs	r0, #0
 10041f4:	bd70      	pop	{r4, r5, r6, pc}
 10041f6:	76a5      	strb	r5, [r4, #26]
 10041f8:	e7f5      	b.n	0x10041e6
 10041fa:	2100      	movs	r1, #0
 10041fc:	301c      	adds	r0, #28
 10041fe:	f000 4270 	and.w	r2, r0, #4026531840	; 0xf0000000
 1004202:	f3c0 0013 	ubfx	r0, r0, #0, #20
 1004206:	ea42 1040 	orr.w	r0, r2, r0, lsl #5
 100420a:	f040 0010 	orr.w	r0, r0, #16
 100420e:	f040 7000 	orr.w	r0, r0, #33554432	; 0x2000000
 1004212:	7001      	strb	r1, [r0, #0]
 1004214:	4770      	bx	lr
 1004216:	2101      	movs	r1, #1
 1004218:	301c      	adds	r0, #28
 100421a:	f000 4270 	and.w	r2, r0, #4026531840	; 0xf0000000
 100421e:	f3c0 0013 	ubfx	r0, r0, #0, #20
 1004222:	ea42 1040 	orr.w	r0, r2, r0, lsl #5
 1004226:	f040 0010 	orr.w	r0, r0, #16
 100422a:	f040 7000 	orr.w	r0, r0, #33554432	; 0x2000000
 100422e:	7001      	strb	r1, [r0, #0]
 1004230:	4770      	bx	lr
 1004232:	2200      	movs	r2, #0
 1004234:	e9c0 2100 	strd	r2, r1, [r0]
 1004238:	8382      	strh	r2, [r0, #28]
 100423a:	7642      	strb	r2, [r0, #25]
 100423c:	7682      	strb	r2, [r0, #26]
 100423e:	7502      	strb	r2, [r0, #20]
 1004240:	7542      	strb	r2, [r0, #21]
 1004242:	7582      	strb	r2, [r0, #22]
 1004244:	75c2      	strb	r2, [r0, #23]
 1004246:	7402      	strb	r2, [r0, #16]
 1004248:	7442      	strb	r2, [r0, #17]
 100424a:	7482      	strb	r2, [r0, #18]
 100424c:	74c2      	strb	r2, [r0, #19]
 100424e:	4608      	mov	r0, r1
 1004250:	f7fe ba62 	b.w	0x1002718
 1004254:	b500      	push	{lr}
 1004256:	6840      	ldr	r0, [r0, #4]
 1004258:	f7fe fa9a 	bl	0x1002790
 100425c:	f010 0f08 	tst.w	r0, #8
 1004260:	bf14      	ite	ne
 1004262:	200f      	movne	r0, #15
 1004264:	200e      	moveq	r0, #14
 1004266:	bd00      	pop	{pc}
 1004268:	4603      	mov	r3, r0
 100426a:	b500      	push	{lr}
 100426c:	6840      	ldr	r0, [r0, #4]
 100426e:	2105      	movs	r1, #5
 1004270:	f7fe fa79 	bl	0x1002766
 1004274:	4af8      	ldr	r2, [pc, #992]	; (0x1004658)
 1004276:	6858      	ldr	r0, [r3, #4]
 1004278:	1a81      	subs	r1, r0, r2
 100427a:	4290      	cmp	r0, r2
 100427c:	d025      	beq.n	0x10042ca
 100427e:	dc0e      	bgt.n	0x100429e
 1004280:	f511 5040 	adds.w	r0, r1, #12288	; 0x3000
 1004284:	d017      	beq.n	0x10042b6
 1004286:	f5b0 5f80 	cmp.w	r0, #4096	; 0x1000
 100428a:	d019      	beq.n	0x10042c0
 100428c:	f5b0 5f00 	cmp.w	r0, #8192	; 0x2000
 1004290:	bf18      	it	ne
 1004292:	bd00      	popne	{pc}
 1004294:	2054      	movs	r0, #84	; 0x54
 1004296:	f85d eb04 	ldr.w	lr, [sp], #4
 100429a:	f7fe ba7b 	b.w	0x1002794
 100429e:	f5b1 2f1d 	cmp.w	r1, #643072	; 0x9d000
 10042a2:	d017      	beq.n	0x10042d4
 10042a4:	f5b1 2f1e 	cmp.w	r1, #647168	; 0x9e000
 10042a8:	bf18      	it	ne
 10042aa:	bd00      	popne	{pc}
 10042ac:	207e      	movs	r0, #126	; 0x7e
 10042ae:	f85d eb04 	ldr.w	lr, [sp], #4
 10042b2:	f7fe ba6f 	b.w	0x1002794
 10042b6:	2018      	movs	r0, #24
 10042b8:	f85d eb04 	ldr.w	lr, [sp], #4
 10042bc:	f7fe ba6a 	b.w	0x1002794
 10042c0:	2035      	movs	r0, #53	; 0x35
 10042c2:	f85d eb04 	ldr.w	lr, [sp], #4
 10042c6:	f7fe ba65 	b.w	0x1002794
 10042ca:	2055      	movs	r0, #85	; 0x55
 10042cc:	f85d eb04 	ldr.w	lr, [sp], #4
 10042d0:	f7fe ba60 	b.w	0x1002794
 10042d4:	207d      	movs	r0, #125	; 0x7d
 10042d6:	f85d eb04 	ldr.w	lr, [sp], #4
 10042da:	f7fe ba5b 	b.w	0x1002794
 10042de:	e92d 41f0 	stmdb	sp!, {r4, r5, r6, r7, r8, lr}
 10042e2:	4604      	mov	r4, r0
 10042e4:	b082      	sub	sp, #8
 10042e6:	6840      	ldr	r0, [r0, #4]
 10042e8:	2101      	movs	r1, #1
 10042ea:	f7fe fa4c 	bl	0x1002786
 10042ee:	4601      	mov	r1, r0
 10042f0:	6860      	ldr	r0, [r4, #4]
 10042f2:	f7fe fa4d 	bl	0x1002790
 10042f6:	4602      	mov	r2, r0
 10042f8:	f011 0f02 	tst.w	r1, #2
 10042fc:	d007      	beq.n	0x100430e
 10042fe:	2102      	movs	r1, #2
 1004300:	6860      	ldr	r0, [r4, #4]
 1004302:	f7fe fa1f 	bl	0x1002744
 1004306:	b002      	add	sp, #8
 1004308:	2000      	movs	r0, #0
 100430a:	e8bd 81f0 	ldmia.w	sp!, {r4, r5, r6, r7, r8, pc}
 100430e:	f104 001c 	add.w	r0, r4, #28
 1004312:	f000 4370 	and.w	r3, r0, #4026531840	; 0xf0000000
 1004316:	f3c0 0013 	ubfx	r0, r0, #0, #20
 100431a:	ea43 1640 	orr.w	r6, r3, r0, lsl #5
 100431e:	f046 030c 	orr.w	r3, r6, #12
 1004322:	f011 0f04 	tst.w	r1, #4
 1004326:	f043 7300 	orr.w	r3, r3, #33554432	; 0x2000000
 100432a:	d01e      	beq.n	0x100436a
 100432c:	f04f 0c00 	mov.w	ip, #0
 1004330:	f883 c000 	strb.w	ip, [r3]
 1004334:	2104      	movs	r1, #4
 1004336:	6860      	ldr	r0, [r4, #4]
 1004338:	f7fe fa04 	bl	0x1002744
 100433c:	f012 0f10 	tst.w	r2, #16
 1004340:	bf01      	itttt	eq
 1004342:	f884 c01a 	strbeq.w	ip, [r4, #26]
 1004346:	2011      	moveq	r0, #17
 1004348:	b002      	addeq	sp, #8
 100434a:	e8bd 81f0 	ldmiaeq.w	sp!, {r4, r5, r6, r7, r8, pc}
 100434e:	7ce0      	ldrb	r0, [r4, #19]
 1004350:	2800      	cmp	r0, #0
 1004352:	bf04      	itt	eq
 1004354:	7c60      	ldrbeq	r0, [r4, #17]
 1004356:	2800      	cmpeq	r0, #0
 1004358:	d175      	bne.n	0x1004446
 100435a:	f012 0f20 	tst.w	r2, #32
 100435e:	bf14      	ite	ne
 1004360:	200c      	movne	r0, #12
 1004362:	200b      	moveq	r0, #11
 1004364:	b002      	add	sp, #8
 1004366:	e8bd 81f0 	ldmia.w	sp!, {r4, r5, r6, r7, r8, pc}
 100436a:	f011 0001 	ands.w	r0, r1, #1
 100436e:	bf04      	itt	eq
 1004370:	b002      	addeq	sp, #8
 1004372:	e8bd 81f0 	ldmiaeq.w	sp!, {r4, r5, r6, r7, r8, pc}
 1004376:	2101      	movs	r1, #1
 1004378:	6860      	ldr	r0, [r4, #4]
 100437a:	f7fe f9e3 	bl	0x1002744
 100437e:	f012 0f07 	tst.w	r2, #7
 1004382:	d060      	beq.n	0x1004446
 1004384:	2501      	movs	r5, #1
 1004386:	701d      	strb	r5, [r3, #0]
 1004388:	f002 0007 	and.w	r0, r2, #7
 100438c:	f104 011c 	add.w	r1, r4, #28
 1004390:	f001 4270 	and.w	r2, r1, #4026531840	; 0xf0000000
 1004394:	f3c1 0113 	ubfx	r1, r1, #0, #20
 1004398:	ea42 1241 	orr.w	r2, r2, r1, lsl #5
 100439c:	f042 7100 	orr.w	r1, r2, #33554432	; 0x2000000
 10043a0:	f042 0208 	orr.w	r2, r2, #8
 10043a4:	f042 7200 	orr.w	r2, r2, #33554432	; 0x2000000
 10043a8:	2801      	cmp	r0, #1
 10043aa:	d03d      	beq.n	0x1004428
 10043ac:	2802      	cmp	r0, #2
 10043ae:	d07e      	beq.n	0x10044ae
 10043b0:	2805      	cmp	r0, #5
 10043b2:	f040 8166 	bne.w	0x1004682
 10043b6:	6860      	ldr	r0, [r4, #4]
 10043b8:	f7fe f9ea 	bl	0x1002790
 10043bc:	f010 0f08 	tst.w	r0, #8
 10043c0:	6860      	ldr	r0, [r4, #4]
 10043c2:	bf1a      	itte	ne
 10043c4:	69c0      	ldrne	r0, [r0, #28]
 10043c6:	f000 007f 	andne.w	r0, r0, #127	; 0x7f
 10043ca:	6800      	ldreq	r0, [r0, #0]
 10043cc:	7520      	strb	r0, [r4, #20]
 10043ce:	f046 0010 	orr.w	r0, r6, #16
 10043d2:	f040 7000 	orr.w	r0, r0, #33554432	; 0x2000000
 10043d6:	7800      	ldrb	r0, [r0, #0]
 10043d8:	2800      	cmp	r0, #0
 10043da:	6860      	ldr	r0, [r4, #4]
 10043dc:	d00a      	beq.n	0x10043f4
 10043de:	f7fe f98c 	bl	0x10026fa
 10043e2:	4602      	mov	r2, r0
 10043e4:	7ce0      	ldrb	r0, [r4, #19]
 10043e6:	f8d4 c00c 	ldr.w	ip, [r4, #12]
 10043ea:	1c43      	adds	r3, r0, #1
 10043ec:	74e3      	strb	r3, [r4, #19]
 10043ee:	f80c 2000 	strb.w	r2, [ip, r0]
 10043f2:	e002      	b.n	0x10043fa
 10043f4:	f7fe f981 	bl	0x10026fa
 10043f8:	75a0      	strb	r0, [r4, #22]
 10043fa:	7808      	ldrb	r0, [r1, #0]
 10043fc:	b178      	cbz	r0, 0x100441e
 10043fe:	7d20      	ldrb	r0, [r4, #20]
 1004400:	2201      	movs	r2, #1
 1004402:	0040      	lsls	r0, r0, #1
 1004404:	f88d 0004 	strb.w	r0, [sp, #4]
 1004408:	a901      	add	r1, sp, #4
 100440a:	2000      	movs	r0, #0
 100440c:	f7fd f9fc 	bl	0x1001808
 1004410:	75e0      	strb	r0, [r4, #23]
 1004412:	2201      	movs	r2, #1
 1004414:	f104 0116 	add.w	r1, r4, #22
 1004418:	f7fd f9f6 	bl	0x1001808
 100441c:	75e0      	strb	r0, [r4, #23]
 100441e:	76a5      	strb	r5, [r4, #26]
 1004420:	b002      	add	sp, #8
 1004422:	200d      	movs	r0, #13
 1004424:	e8bd 81f0 	ldmia.w	sp!, {r4, r5, r6, r7, r8, pc}
 1004428:	7ea0      	ldrb	r0, [r4, #26]
 100442a:	250d      	movs	r5, #13
 100442c:	2709      	movs	r7, #9
 100442e:	f04f 080c 	mov.w	r8, #12
 1004432:	2801      	cmp	r0, #1
 1004434:	d008      	beq.n	0x1004448
 1004436:	2809      	cmp	r0, #9
 1004438:	d041      	beq.n	0x10044be
 100443a:	280c      	cmp	r0, #12
 100443c:	d076      	beq.n	0x100452c
 100443e:	280d      	cmp	r0, #13
 1004440:	f040 811f 	bne.w	0x1004682
 1004444:	e081      	b.n	0x100454a
 1004446:	e046      	b.n	0x10044d6
 1004448:	6860      	ldr	r0, [r4, #4]
 100444a:	f7fe f956 	bl	0x10026fa
 100444e:	b2c0      	uxtb	r0, r0
 1004450:	f88d 0000 	strb.w	r0, [sp]
 1004454:	7812      	ldrb	r2, [r2, #0]
 1004456:	b172      	cbz	r2, 0x1004476
 1004458:	7ca2      	ldrb	r2, [r4, #18]
 100445a:	4290      	cmp	r0, r2
 100445c:	bf81      	itttt	hi
 100445e:	76a5      	strbhi	r5, [r4, #26]
 1004460:	2008      	movhi	r0, #8
 1004462:	b002      	addhi	sp, #8
 1004464:	e8bd 81f0 	ldmiahi.w	sp!, {r4, r5, r6, r7, r8, pc}
 1004468:	74a0      	strb	r0, [r4, #18]
 100446a:	7808      	ldrb	r0, [r1, #0]
 100446c:	2800      	cmp	r0, #0
 100446e:	d155      	bne.n	0x100451c
 1004470:	76a7      	strb	r7, [r4, #26]
 1004472:	f000 b906 	b.w	0x1004682
 1004476:	7ce2      	ldrb	r2, [r4, #19]
 1004478:	7ca3      	ldrb	r3, [r4, #18]
 100447a:	429a      	cmp	r2, r3
 100447c:	bf01      	itttt	eq
 100447e:	76a5      	strbeq	r5, [r4, #26]
 1004480:	200a      	moveq	r0, #10
 1004482:	b002      	addeq	sp, #8
 1004484:	e8bd 81f0 	ldmiaeq.w	sp!, {r4, r5, r6, r7, r8, pc}
 1004488:	1c53      	adds	r3, r2, #1
 100448a:	f8d4 c00c 	ldr.w	ip, [r4, #12]
 100448e:	74e3      	strb	r3, [r4, #19]
 1004490:	f80c 0002 	strb.w	r0, [ip, r2]
 1004494:	7ce0      	ldrb	r0, [r4, #19]
 1004496:	7ca2      	ldrb	r2, [r4, #18]
 1004498:	4290      	cmp	r0, r2
 100449a:	7808      	ldrb	r0, [r1, #0]
 100449c:	d10c      	bne.n	0x10044b8
 100449e:	b3d0      	cbz	r0, 0x1004516
 10044a0:	7de0      	ldrb	r0, [r4, #23]
 10044a2:	2201      	movs	r2, #1
 10044a4:	4669      	mov	r1, sp
 10044a6:	f7fd f9af 	bl	0x1001808
 10044aa:	75e0      	strb	r0, [r4, #23]
 10044ac:	e000      	b.n	0x10044b0
 10044ae:	e050      	b.n	0x1004552
 10044b0:	f884 801a 	strb.w	r8, [r4, #26]
 10044b4:	f000 b8e5 	b.w	0x1004682
 10044b8:	2800      	cmp	r0, #0
 10044ba:	d0d9      	beq.n	0x1004470
 10044bc:	e02e      	b.n	0x100451c
 10044be:	6860      	ldr	r0, [r4, #4]
 10044c0:	f7fe f91b 	bl	0x10026fa
 10044c4:	b2c2      	uxtb	r2, r0
 10044c6:	f88d 2000 	strb.w	r2, [sp]
 10044ca:	7ce0      	ldrb	r0, [r4, #19]
 10044cc:	7ca3      	ldrb	r3, [r4, #18]
 10044ce:	4298      	cmp	r0, r3
 10044d0:	bf08      	it	eq
 10044d2:	76a5      	strbeq	r5, [r4, #26]
 10044d4:	d103      	bne.n	0x10044de
 10044d6:	b002      	add	sp, #8
 10044d8:	200a      	movs	r0, #10
 10044da:	e8bd 81f0 	ldmia.w	sp!, {r4, r5, r6, r7, r8, pc}
 10044de:	f8d4 c00c 	ldr.w	ip, [r4, #12]
 10044e2:	1c43      	adds	r3, r0, #1
 10044e4:	74e3      	strb	r3, [r4, #19]
 10044e6:	f80c 2000 	strb.w	r2, [ip, r0]
 10044ea:	7ce0      	ldrb	r0, [r4, #19]
 10044ec:	7ca2      	ldrb	r2, [r4, #18]
 10044ee:	4290      	cmp	r0, r2
 10044f0:	7808      	ldrb	r0, [r1, #0]
 10044f2:	d111      	bne.n	0x1004518
 10044f4:	b178      	cbz	r0, 0x1004516
 10044f6:	7de0      	ldrb	r0, [r4, #23]
 10044f8:	2201      	movs	r2, #1
 10044fa:	4669      	mov	r1, sp
 10044fc:	f7fd f984 	bl	0x1001808
 1004500:	75e0      	strb	r0, [r4, #23]
 1004502:	f046 0004 	orr.w	r0, r6, #4
 1004506:	f040 7000 	orr.w	r0, r0, #33554432	; 0x2000000
 100450a:	7800      	ldrb	r0, [r0, #0]
 100450c:	2800      	cmp	r0, #0
 100450e:	bf08      	it	eq
 1004510:	f884 801a 	strbeq.w	r8, [r4, #26]
 1004514:	d07b      	beq.n	0x100460e
 1004516:	e016      	b.n	0x1004546
 1004518:	2800      	cmp	r0, #0
 100451a:	d0a9      	beq.n	0x1004470
 100451c:	7de0      	ldrb	r0, [r4, #23]
 100451e:	2201      	movs	r2, #1
 1004520:	4669      	mov	r1, sp
 1004522:	f7fd f971 	bl	0x1001808
 1004526:	75e0      	strb	r0, [r4, #23]
 1004528:	e7a2      	b.n	0x1004470
 100452a:	e7ff      	b.n	0x100452c
 100452c:	6860      	ldr	r0, [r4, #4]
 100452e:	f7fe f8e4 	bl	0x10026fa
 1004532:	b2c0      	uxtb	r0, r0
 1004534:	f88d 0000 	strb.w	r0, [sp]
 1004538:	7de1      	ldrb	r1, [r4, #23]
 100453a:	4281      	cmp	r1, r0
 100453c:	bf1e      	ittt	ne
 100453e:	2007      	movne	r0, #7
 1004540:	b002      	addne	sp, #8
 1004542:	e8bd 81f0 	ldmiane.w	sp!, {r4, r5, r6, r7, r8, pc}
 1004546:	76a5      	strb	r5, [r4, #26]
 1004548:	e09b      	b.n	0x1004682
 100454a:	6860      	ldr	r0, [r4, #4]
 100454c:	f7fe f8d5 	bl	0x10026fa
 1004550:	e7c1      	b.n	0x10044d6
 1004552:	20ff      	movs	r0, #255	; 0xff
 1004554:	f88d 0000 	strb.w	r0, [sp]
 1004558:	7ea0      	ldrb	r0, [r4, #26]
 100455a:	280e      	cmp	r0, #14
 100455c:	d257      	bcs.n	0x100460e
 100455e:	e8df f000 	tbb	[pc, r0]
 1004562:	0707      	lsls	r7, r0, #28
 1004564:	5990      	ldr	r0, [r2, r6]
 1004566:	947d      	str	r4, [sp, #500]	; 0x1f4
 1004568:	9090      	str	r0, [sp, #576]	; 0x240
 100456a:	0790      	lsls	r0, r2, #30
 100456c:	9090      	str	r0, [sp, #576]	; 0x240
 100456e:	0790      	lsls	r0, r2, #30
 1004570:	6860      	ldr	r0, [r4, #4]
 1004572:	f7fe f90d 	bl	0x1002790
 1004576:	f010 0f08 	tst.w	r0, #8
 100457a:	6860      	ldr	r0, [r4, #4]
 100457c:	bf1a      	itte	ne
 100457e:	69c0      	ldrne	r0, [r0, #28]
 1004580:	f000 007f 	andne.w	r0, r0, #127	; 0x7f
 1004584:	6800      	ldreq	r0, [r0, #0]
 1004586:	7520      	strb	r0, [r4, #20]
 1004588:	7c20      	ldrb	r0, [r4, #16]
 100458a:	2800      	cmp	r0, #0
 100458c:	bf02      	ittt	eq
 100458e:	2012      	moveq	r0, #18
 1004590:	b002      	addeq	sp, #8
 1004592:	e8bd 81f0 	ldmiaeq.w	sp!, {r4, r5, r6, r7, r8, pc}
 1004596:	7812      	ldrb	r2, [r2, #0]
 1004598:	2a00      	cmp	r2, #0
 100459a:	bf18      	it	ne
 100459c:	f88d 0000 	strbne.w	r0, [sp]
 10045a0:	d10c      	bne.n	0x10045bc
 10045a2:	7c62      	ldrb	r2, [r4, #17]
 10045a4:	4282      	cmp	r2, r0
 10045a6:	bf28      	it	cs
 10045a8:	22ff      	movcs	r2, #255	; 0xff
 10045aa:	d205      	bcs.n	0x10045b8
 10045ac:	f8d4 c008 	ldr.w	ip, [r4, #8]
 10045b0:	1c53      	adds	r3, r2, #1
 10045b2:	7463      	strb	r3, [r4, #17]
 10045b4:	f81c 2002 	ldrb.w	r2, [ip, r2]
 10045b8:	f88d 2000 	strb.w	r2, [sp]
 10045bc:	7809      	ldrb	r1, [r1, #0]
 10045be:	b1b9      	cbz	r1, 0x10045f0
 10045c0:	7d20      	ldrb	r0, [r4, #20]
 10045c2:	2201      	movs	r2, #1
 10045c4:	ea45 0040 	orr.w	r0, r5, r0, lsl #1
 10045c8:	f88d 0004 	strb.w	r0, [sp, #4]
 10045cc:	7de0      	ldrb	r0, [r4, #23]
 10045ce:	a901      	add	r1, sp, #4
 10045d0:	f7fd f91a 	bl	0x1001808
 10045d4:	75e0      	strb	r0, [r4, #23]
 10045d6:	2201      	movs	r2, #1
 10045d8:	4669      	mov	r1, sp
 10045da:	f7fd f915 	bl	0x1001808
 10045de:	75e0      	strb	r0, [r4, #23]
 10045e0:	7c60      	ldrb	r0, [r4, #17]
 10045e2:	7c21      	ldrb	r1, [r4, #16]
 10045e4:	4288      	cmp	r0, r1
 10045e6:	bf1c      	itt	ne
 10045e8:	2003      	movne	r0, #3
 10045ea:	76a0      	strbne	r0, [r4, #26]
 10045ec:	d010      	beq.n	0x1004610
 10045ee:	e009      	b.n	0x1004604
 10045f0:	7c61      	ldrb	r1, [r4, #17]
 10045f2:	1a40      	subs	r0, r0, r1
 10045f4:	bf08      	it	eq
 10045f6:	2005      	moveq	r0, #5
 10045f8:	d003      	beq.n	0x1004602
 10045fa:	2801      	cmp	r0, #1
 10045fc:	bf18      	it	ne
 10045fe:	2003      	movne	r0, #3
 1004600:	d006      	beq.n	0x1004610
 1004602:	76a0      	strb	r0, [r4, #26]
 1004604:	f89d 1000 	ldrb.w	r1, [sp]
 1004608:	6860      	ldr	r0, [r4, #4]
 100460a:	f7fe f878 	bl	0x10026fe
 100460e:	e038      	b.n	0x1004682
 1004610:	2004      	movs	r0, #4
 1004612:	e7f6      	b.n	0x1004602
 1004614:	7c60      	ldrb	r0, [r4, #17]
 1004616:	68a3      	ldr	r3, [r4, #8]
 1004618:	1c42      	adds	r2, r0, #1
 100461a:	b2d2      	uxtb	r2, r2
 100461c:	7462      	strb	r2, [r4, #17]
 100461e:	5c18      	ldrb	r0, [r3, r0]
 1004620:	f88d 0000 	strb.w	r0, [sp]
 1004624:	7808      	ldrb	r0, [r1, #0]
 1004626:	b150      	cbz	r0, 0x100463e
 1004628:	7de0      	ldrb	r0, [r4, #23]
 100462a:	2201      	movs	r2, #1
 100462c:	4669      	mov	r1, sp
 100462e:	f7fd f8eb 	bl	0x1001808
 1004632:	75e0      	strb	r0, [r4, #23]
 1004634:	7c60      	ldrb	r0, [r4, #17]
 1004636:	7c21      	ldrb	r1, [r4, #16]
 1004638:	4288      	cmp	r0, r1
 100463a:	d106      	bne.n	0x100464a
 100463c:	e003      	b.n	0x1004646
 100463e:	7c20      	ldrb	r0, [r4, #16]
 1004640:	1a80      	subs	r0, r0, r2
 1004642:	2801      	cmp	r0, #1
 1004644:	d101      	bne.n	0x100464a
 1004646:	2004      	movs	r0, #4
 1004648:	76a0      	strb	r0, [r4, #26]
 100464a:	f89d 1000 	ldrb.w	r1, [sp]
 100464e:	6860      	ldr	r0, [r4, #4]
 1004650:	f7fe f855 	bl	0x10026fe
 1004654:	e015      	b.n	0x1004682
 1004656:	0000      	movs	r0, r0
 1004658:	3800      	subs	r0, #0
 100465a:	4002      	ands	r2, r0
 100465c:	7808      	ldrb	r0, [r1, #0]
 100465e:	2800      	cmp	r0, #0
 1004660:	bf18      	it	ne
 1004662:	7de0      	ldrbne	r0, [r4, #23]
 1004664:	d104      	bne.n	0x1004670
 1004666:	7c60      	ldrb	r0, [r4, #17]
 1004668:	68a2      	ldr	r2, [r4, #8]
 100466a:	1c41      	adds	r1, r0, #1
 100466c:	7461      	strb	r1, [r4, #17]
 100466e:	5c10      	ldrb	r0, [r2, r0]
 1004670:	f88d 0000 	strb.w	r0, [sp]
 1004674:	f89d 1000 	ldrb.w	r1, [sp]
 1004678:	6860      	ldr	r0, [r4, #4]
 100467a:	f7fe f840 	bl	0x10026fe
 100467e:	2005      	movs	r0, #5
 1004680:	76a0      	strb	r0, [r4, #26]
 1004682:	b002      	add	sp, #8
 1004684:	2000      	movs	r0, #0
 1004686:	e8bd 81f0 	ldmia.w	sp!, {r4, r5, r6, r7, r8, pc}
 100468a:	21ff      	movs	r1, #255	; 0xff
 100468c:	6860      	ldr	r0, [r4, #4]
 100468e:	e7df      	b.n	0x1004650
 1004690:	6840      	ldr	r0, [r0, #4]
 1004692:	2100      	movs	r1, #0
 1004694:	f7fe b815 	b.w	0x10026c2
 1004698:	6840      	ldr	r0, [r0, #4]
 100469a:	2101      	movs	r1, #1
 100469c:	f7fe b811 	b.w	0x10026c2
 10046a0:	6840      	ldr	r0, [r0, #4]
 10046a2:	6a00      	ldr	r0, [r0, #32]
 10046a4:	f000 0001 	and.w	r0, r0, #1
 10046a8:	4770      	bx	lr
 10046aa:	2100      	movs	r1, #0
 10046ac:	301c      	adds	r0, #28
 10046ae:	f000 4270 	and.w	r2, r0, #4026531840	; 0xf0000000
 10046b2:	f3c0 0013 	ubfx	r0, r0, #0, #20
 10046b6:	ea42 1040 	orr.w	r0, r2, r0, lsl #5
 10046ba:	f040 0004 	orr.w	r0, r0, #4
 10046be:	f040 7000 	orr.w	r0, r0, #33554432	; 0x2000000
 10046c2:	7001      	strb	r1, [r0, #0]
 10046c4:	4770      	bx	lr
 10046c6:	2101      	movs	r1, #1
 10046c8:	301c      	adds	r0, #28
 10046ca:	f000 4270 	and.w	r2, r0, #4026531840	; 0xf0000000
 10046ce:	f3c0 0013 	ubfx	r0, r0, #0, #20
 10046d2:	ea42 1040 	orr.w	r0, r2, r0, lsl #5
 10046d6:	f040 0004 	orr.w	r0, r0, #4
 10046da:	f040 7000 	orr.w	r0, r0, #33554432	; 0x2000000
 10046de:	7001      	strb	r1, [r0, #0]
 10046e0:	4770      	bx	lr
 10046e2:	60c1      	str	r1, [r0, #12]
 10046e4:	7482      	strb	r2, [r0, #18]
 10046e6:	4770      	bx	lr
 10046e8:	f100 021c 	add.w	r2, r0, #28
 10046ec:	f002 4370 	and.w	r3, r2, #4026531840	; 0xf0000000
 10046f0:	f3c2 0213 	ubfx	r2, r2, #0, #20
 10046f4:	ea43 1242 	orr.w	r2, r3, r2, lsl #5
 10046f8:	f042 0308 	orr.w	r3, r2, #8
 10046fc:	f043 7300 	orr.w	r3, r3, #33554432	; 0x2000000
 1004700:	2100      	movs	r1, #0
 1004702:	7019      	strb	r1, [r3, #0]
 1004704:	f042 0304 	orr.w	r3, r2, #4
 1004708:	f043 7300 	orr.w	r3, r3, #33554432	; 0x2000000
 100470c:	7019      	strb	r1, [r3, #0]
 100470e:	f042 020c 	orr.w	r2, r2, #12
 1004712:	f042 7200 	orr.w	r2, r2, #33554432	; 0x2000000
 1004716:	7011      	strb	r1, [r2, #0]
 1004718:	7641      	strb	r1, [r0, #25]
 100471a:	7681      	strb	r1, [r0, #26]
 100471c:	7581      	strb	r1, [r0, #22]
 100471e:	75c1      	strb	r1, [r0, #23]
 1004720:	7401      	strb	r1, [r0, #16]
 1004722:	7441      	strb	r1, [r0, #17]
 1004724:	7481      	strb	r1, [r0, #18]
 1004726:	74c1      	strb	r1, [r0, #19]
 1004728:	4770      	bx	lr
 100472a:	6081      	str	r1, [r0, #8]
 100472c:	7402      	strb	r2, [r0, #16]
 100472e:	4770      	bx	lr
 1004730:	6001      	str	r1, [r0, #0]
 1004732:	4770      	bx	lr
 1004734:	301c      	adds	r0, #28
 1004736:	f000 4170 	and.w	r1, r0, #4026531840	; 0xf0000000
 100473a:	f3c0 0013 	ubfx	r0, r0, #0, #20
 100473e:	ea41 1040 	orr.w	r0, r1, r0, lsl #5
 1004742:	f040 000c 	orr.w	r0, r0, #12
 1004746:	f040 7000 	orr.w	r0, r0, #33554432	; 0x2000000
 100474a:	7800      	ldrb	r0, [r0, #0]
 100474c:	2800      	cmp	r0, #0
 100474e:	bf14      	ite	ne
 1004750:	2010      	movne	r0, #16
 1004752:	2011      	moveq	r0, #17
 1004754:	4770      	bx	lr
 1004756:	68c0      	ldr	r0, [r0, #12]
 1004758:	f3c0 1000 	ubfx	r0, r0, #4, #1
 100475c:	4770      	bx	lr
 100475e:	f8d0 0fc8 	ldr.w	r0, [r0, #4040]	; 0xfc8
 1004762:	4770      	bx	lr
 1004764:	f8c0 1fc8 	str.w	r1, [r0, #4040]	; 0xfc8
 1004768:	4770      	bx	lr
 100476a:	b430      	push	{r4, r5}
 100476c:	2b02      	cmp	r3, #2
 100476e:	e9dd 5402 	ldrd	r5, r4, [sp, #8]
 1004772:	bf0c      	ite	eq
 1004774:	f04f 0c08 	moveq.w	ip, #8
 1004778:	f04f 0c00 	movne.w	ip, #0
 100477c:	2b00      	cmp	r3, #0
 100477e:	bf18      	it	ne
 1004780:	2304      	movne	r3, #4
 1004782:	ea43 030c 	orr.w	r3, r3, ip
 1004786:	6043      	str	r3, [r0, #4]
 1004788:	fbb1 fcf5 	udiv	ip, r1, r5
 100478c:	2100      	movs	r1, #0
 100478e:	1c89      	adds	r1, r1, #2
 1004790:	fbbc f3f1 	udiv	r3, ip, r1
 1004794:	1e5b      	subs	r3, r3, #1
 1004796:	2bff      	cmp	r3, #255	; 0xff
 1004798:	d8f9      	bhi.n	0x100478e
 100479a:	6101      	str	r1, [r0, #16]
 100479c:	0791      	lsls	r1, r2, #30
 100479e:	0e09      	lsrs	r1, r1, #24
 10047a0:	f002 0230 	and.w	r2, r2, #48	; 0x30
 10047a4:	ea41 2103 	orr.w	r1, r1, r3, lsl #8
 10047a8:	4311      	orrs	r1, r2
 10047aa:	1e62      	subs	r2, r4, #1
 10047ac:	4311      	orrs	r1, r2
 10047ae:	6001      	str	r1, [r0, #0]
 10047b0:	bc30      	pop	{r4, r5}
 10047b2:	4770      	bx	lr
 10047b4:	68c2      	ldr	r2, [r0, #12]
 10047b6:	f012 0f04 	tst.w	r2, #4
 10047ba:	d0fb      	beq.n	0x10047b4
 10047bc:	6880      	ldr	r0, [r0, #8]
 10047be:	6008      	str	r0, [r1, #0]
 10047c0:	4770      	bx	lr
 10047c2:	68c2      	ldr	r2, [r0, #12]
 10047c4:	f012 0f04 	tst.w	r2, #4
 10047c8:	bf1d      	ittte	ne
 10047ca:	6880      	ldrne	r0, [r0, #8]
 10047cc:	6008      	strne	r0, [r1, #0]
 10047ce:	2001      	movne	r0, #1
 10047d0:	2000      	moveq	r0, #0
 10047d2:	4770      	bx	lr
 10047d4:	68c2      	ldr	r2, [r0, #12]
 10047d6:	f012 0f02 	tst.w	r2, #2
 10047da:	d0fb      	beq.n	0x10047d4
 10047dc:	6081      	str	r1, [r0, #8]
 10047de:	4770      	bx	lr
 10047e0:	68c2      	ldr	r2, [r0, #12]
 10047e2:	f012 0f02 	tst.w	r2, #2
 10047e6:	bf1a      	itte	ne
 10047e8:	6081      	strne	r1, [r0, #8]
 10047ea:	2001      	movne	r0, #1
 10047ec:	2000      	moveq	r0, #0
 10047ee:	4770      	bx	lr
 10047f0:	6841      	ldr	r1, [r0, #4]
 10047f2:	f021 0102 	bic.w	r1, r1, #2
 10047f6:	6041      	str	r1, [r0, #4]
 10047f8:	4770      	bx	lr
 10047fa:	6a42      	ldr	r2, [r0, #36]	; 0x24
 10047fc:	ea22 0101 	bic.w	r1, r2, r1
 1004800:	6241      	str	r1, [r0, #36]	; 0x24
 1004802:	4770      	bx	lr
 1004804:	6a42      	ldr	r2, [r0, #36]	; 0x24
 1004806:	4311      	orrs	r1, r2
 1004808:	6241      	str	r1, [r0, #36]	; 0x24
 100480a:	4770      	bx	lr
 100480c:	6841      	ldr	r1, [r0, #4]
 100480e:	f041 0102 	orr.w	r1, r1, #2
 1004812:	6041      	str	r1, [r0, #4]
 1004814:	4770      	bx	lr
 1004816:	6201      	str	r1, [r0, #32]
 1004818:	4770      	bx	lr
 100481a:	6942      	ldr	r2, [r0, #20]
 100481c:	ea22 0101 	bic.w	r1, r2, r1
 1004820:	6141      	str	r1, [r0, #20]
 1004822:	4770      	bx	lr
 1004824:	6942      	ldr	r2, [r0, #20]
 1004826:	4311      	orrs	r1, r2
 1004828:	6141      	str	r1, [r0, #20]
 100482a:	4770      	bx	lr
 100482c:	2900      	cmp	r1, #0
 100482e:	bf14      	ite	ne
 1004830:	69c0      	ldrne	r0, [r0, #28]
 1004832:	6980      	ldreq	r0, [r0, #24]
 1004834:	4770      	bx	lr
 1004836:	6841      	ldr	r1, [r0, #4]
 1004838:	f021 0120 	bic.w	r1, r1, #32
 100483c:	6041      	str	r1, [r0, #4]
 100483e:	4770      	bx	lr
 1004840:	6841      	ldr	r1, [r0, #4]
 1004842:	f041 0120 	orr.w	r1, r1, #32
 1004846:	6041      	str	r1, [r0, #4]
 1004848:	4770      	bx	lr
 100484a:	4afc      	ldr	r2, [pc, #1008]	; (0x1004c3c)
 100484c:	2100      	movs	r1, #0
 100484e:	f852 3031 	ldr.w	r3, [r2, r1, lsl #3]
 1004852:	4283      	cmp	r3, r0
 1004854:	d103      	bne.n	0x100485e
 1004856:	eb02 00c1 	add.w	r0, r2, r1, lsl #3
 100485a:	6840      	ldr	r0, [r0, #4]
 100485c:	4770      	bx	lr
 100485e:	1c49      	adds	r1, r1, #1
 1004860:	2924      	cmp	r1, #36	; 0x24
 1004862:	d3f4      	bcc.n	0x100484e
 1004864:	4770      	bx	lr
 1004866:	48f6      	ldr	r0, [pc, #984]	; (0x1004c40)
 1004868:	6800      	ldr	r0, [r0, #0]
 100486a:	f400 6070 	and.w	r0, r0, #3840	; 0xf00
 100486e:	4770      	bx	lr
 1004870:	49f3      	ldr	r1, [pc, #972]	; (0x1004c40)
 1004872:	680a      	ldr	r2, [r1, #0]
 1004874:	f422 6270 	bic.w	r2, r2, #3840	; 0xf00
 1004878:	ea42 0200 	orr.w	r2, r2, r0
 100487c:	600a      	str	r2, [r1, #0]
 100487e:	690a      	ldr	r2, [r1, #16]
 1004880:	f422 6270 	bic.w	r2, r2, #3840	; 0xf00
 1004884:	ea42 0000 	orr.w	r0, r2, r0
 1004888:	6108      	str	r0, [r1, #16]
 100488a:	4770      	bx	lr
 100488c:	f8df c3b4 	ldr.w	ip, [pc, #948]	; 0x1004c44
 1004890:	b410      	push	{r4}
 1004892:	f8dc 2060 	ldr.w	r2, [ip, #96]	; 0x60
 1004896:	f8dc 1070 	ldr.w	r1, [ip, #112]	; 0x70
 100489a:	f011 4f00 	tst.w	r1, #2147483648	; 0x80000000
 100489e:	bf14      	ite	ne
 10048a0:	f001 0070 	andne.w	r0, r1, #112	; 0x70
 10048a4:	f002 0030 	andeq.w	r0, r2, #48	; 0x30
 10048a8:	2830      	cmp	r0, #48	; 0x30
 10048aa:	bf08      	it	eq
 10048ac:	f247 5030 	movweq	r0, #30000	; 0x7530
 10048b0:	d01d      	beq.n	0x10048ee
 10048b2:	da09      	bge.n	0x10048c8
 10048b4:	b1a8      	cbz	r0, 0x10048e2
 10048b6:	2810      	cmp	r0, #16
 10048b8:	bf08      	it	eq
 10048ba:	48e3      	ldreq	r0, [pc, #908]	; (0x1004c48)
 10048bc:	d017      	beq.n	0x10048ee
 10048be:	2820      	cmp	r0, #32
 10048c0:	bf08      	it	eq
 10048c2:	48e2      	ldreq	r0, [pc, #904]	; (0x1004c4c)
 10048c4:	d013      	beq.n	0x10048ee
 10048c6:	e009      	b.n	0x10048dc
 10048c8:	2860      	cmp	r0, #96	; 0x60
 10048ca:	bf08      	it	eq
 10048cc:	f44f 0080 	moveq.w	r0, #4194304	; 0x400000
 10048d0:	d00d      	beq.n	0x10048ee
 10048d2:	2870      	cmp	r0, #112	; 0x70
 10048d4:	bf08      	it	eq
 10048d6:	f44f 4000 	moveq.w	r0, #32768	; 0x8000
 10048da:	d008      	beq.n	0x10048ee
 10048dc:	bc10      	pop	{r4}
 10048de:	2000      	movs	r0, #0
 10048e0:	4770      	bx	lr
 10048e2:	4bdb      	ldr	r3, [pc, #876]	; (0x1004c50)
 10048e4:	f402 60f8 	and.w	r0, r2, #1984	; 0x7c0
 10048e8:	eb03 1010 	add.w	r0, r3, r0, lsr #4
 10048ec:	6800      	ldr	r0, [r0, #0]
 10048ee:	f011 4f00 	tst.w	r1, #2147483648	; 0x80000000
 10048f2:	d002      	beq.n	0x10048fa
 10048f4:	f411 6f00 	tst.w	r1, #2048	; 0x800
 10048f8:	d005      	beq.n	0x1004906
 10048fa:	f001 4300 	and.w	r3, r1, #2147483648	; 0x80000000
 10048fe:	f402 6400 	and.w	r4, r2, #2048	; 0x800
 1004902:	4323      	orrs	r3, r4
 1004904:	d11b      	bne.n	0x100493e
 1004906:	f8dc 3160 	ldr.w	r3, [ip, #352]	; 0x160
 100490a:	f8dc c164 	ldr.w	ip, [ip, #356]	; 0x164
 100490e:	f442 0280 	orr.w	r2, r2, #4194304	; 0x400000
 1004912:	f00c 041f 	and.w	r4, ip, #31
 1004916:	f3cc 2c04 	ubfx	ip, ip, #8, #5
 100491a:	1c64      	adds	r4, r4, #1
 100491c:	f10c 0c01 	add.w	ip, ip, #1
 1004920:	fb04 fc0c 	mul.w	ip, r4, ip
 1004924:	ea4f 0c4c 	mov.w	ip, ip, lsl #1
 1004928:	fbb0 f0fc 	udiv	r0, r0, ip
 100492c:	f3c3 0c09 	ubfx	ip, r3, #0, #10
 1004930:	fb0c fc00 	mul.w	ip, ip, r0
 1004934:	f3c3 2389 	ubfx	r3, r3, #10, #10
 1004938:	4358      	muls	r0, r3
 100493a:	eb0c 2090 	add.w	r0, ip, r0, lsr #10
 100493e:	f412 0f80 	tst.w	r2, #4194304	; 0x400000
 1004942:	bf04      	itt	eq
 1004944:	bc10      	popeq	{r4}
 1004946:	4770      	bxeq	lr
 1004948:	f011 4f00 	tst.w	r1, #2147483648	; 0x80000000
 100494c:	d01a      	beq.n	0x1004984
 100494e:	f011 4f80 	tst.w	r1, #1073741824	; 0x40000000
 1004952:	d008      	beq.n	0x1004966
 1004954:	f411 6f00 	tst.w	r1, #2048	; 0x800
 1004958:	d00c      	beq.n	0x1004974
 100495a:	f001 4300 	and.w	r3, r1, #2147483648	; 0x80000000
 100495e:	f402 6200 	and.w	r2, r2, #2048	; 0x800
 1004962:	431a      	orrs	r2, r3
 1004964:	d006      	beq.n	0x1004974
 1004966:	f3c1 51c5 	ubfx	r1, r1, #23, #6
 100496a:	1c49      	adds	r1, r1, #1
 100496c:	fbb0 f0f1 	udiv	r0, r0, r1
 1004970:	bc10      	pop	{r4}
 1004972:	4770      	bx	lr
 1004974:	0040      	lsls	r0, r0, #1
 1004976:	f3c1 5186 	ubfx	r1, r1, #22, #7
 100497a:	1c49      	adds	r1, r1, #1
 100497c:	fbb0 f0f1 	udiv	r0, r0, r1
 1004980:	bc10      	pop	{r4}
 1004982:	4770      	bx	lr
 1004984:	f3c2 51c3 	ubfx	r1, r2, #23, #4
 1004988:	1c49      	adds	r1, r1, #1
 100498a:	fbb0 f0f1 	udiv	r0, r0, r1
 100498e:	bc10      	pop	{r4}
 1004990:	4770      	bx	lr
 1004992:	e92d 41f0 	stmdb	sp!, {r4, r5, r6, r7, r8, lr}
 1004996:	4cab      	ldr	r4, [pc, #684]	; (0x1004c44)
 1004998:	4605      	mov	r5, r0
 100499a:	6e21      	ldr	r1, [r4, #96]	; 0x60
 100499c:	6f20      	ldr	r0, [r4, #112]	; 0x70
 100499e:	f421 0180 	bic.w	r1, r1, #4194304	; 0x400000
 10049a2:	f441 6600 	orr.w	r6, r1, #2048	; 0x800
 10049a6:	f440 6700 	orr.w	r7, r0, #2048	; 0x800
 10049aa:	6626      	str	r6, [r4, #96]	; 0x60
 10049ac:	6727      	str	r7, [r4, #112]	; 0x70
 10049ae:	f016 0f02 	tst.w	r6, #2
 10049b2:	d002      	beq.n	0x10049ba
 10049b4:	f015 0f02 	tst.w	r5, #2
 10049b8:	d004      	beq.n	0x10049c4
 10049ba:	ea26 0005 	bic.w	r0, r6, r5
 10049be:	f010 0f01 	tst.w	r0, #1
 10049c2:	d015      	beq.n	0x10049f0
 10049c4:	f065 0003 	orn	r0, r5, #3
 10049c8:	4006      	ands	r6, r0
 10049ca:	6626      	str	r6, [r4, #96]	; 0x60
 10049cc:	f017 4f00 	tst.w	r7, #2147483648	; 0x80000000
 10049d0:	d007      	beq.n	0x10049e2
 10049d2:	f007 0070 	and.w	r0, r7, #112	; 0x70
 10049d6:	2830      	cmp	r0, #48	; 0x30
 10049d8:	d054      	beq.n	0x1004a84
 10049da:	2070      	movs	r0, #112	; 0x70
 10049dc:	43b8      	bics	r0, r7
 10049de:	d051      	beq.n	0x1004a84
 10049e0:	e002      	b.n	0x10049e8
 10049e2:	2030      	movs	r0, #48	; 0x30
 10049e4:	43b0      	bics	r0, r6
 10049e6:	d04d      	beq.n	0x1004a84
 10049e8:	f44f 2000 	mov.w	r0, #524288	; 0x80000
 10049ec:	f7fc fb1a 	bl	0x1001024
 10049f0:	f426 60fe 	bic.w	r0, r6, #2032	; 0x7f0
 10049f4:	f405 61fe 	and.w	r1, r5, #2032	; 0x7f0
 10049f8:	ea41 0600 	orr.w	r6, r1, r0
 10049fc:	4995      	ldr	r1, [pc, #596]	; (0x1004c54)
 10049fe:	f027 0070 	bic.w	r0, r7, #112	; 0x70
 1004a02:	f020 4000 	bic.w	r0, r0, #2147483648	; 0x80000000
 1004a06:	4029      	ands	r1, r5
 1004a08:	4308      	orrs	r0, r1
 1004a0a:	f005 0108 	and.w	r1, r5, #8
 1004a0e:	ea40 07c1 	orr.w	r7, r0, r1, lsl #3
 1004a12:	6626      	str	r6, [r4, #96]	; 0x60
 1004a14:	6727      	str	r7, [r4, #112]	; 0x70
 1004a16:	2010      	movs	r0, #16
 1004a18:	f7fc fb04 	bl	0x1001024
 1004a1c:	f426 5040 	bic.w	r0, r6, #12288	; 0x3000
 1004a20:	f405 5140 	and.w	r1, r5, #12288	; 0x3000
 1004a24:	4301      	orrs	r1, r0
 1004a26:	f427 5000 	bic.w	r0, r7, #8192	; 0x2000
 1004a2a:	f405 5200 	and.w	r2, r5, #8192	; 0x2000
 1004a2e:	4310      	orrs	r0, r2
 1004a30:	2240      	movs	r2, #64	; 0x40
 1004a32:	65a2      	str	r2, [r4, #88]	; 0x58
 1004a34:	f010 4f00 	tst.w	r0, #2147483648	; 0x80000000
 1004a38:	bf08      	it	eq
 1004a3a:	6621      	streq	r1, [r4, #96]	; 0x60
 1004a3c:	6720      	str	r0, [r4, #112]	; 0x70
 1004a3e:	bf18      	it	ne
 1004a40:	6621      	strne	r1, [r4, #96]	; 0x60
 1004a42:	f021 0103 	bic.w	r1, r1, #3
 1004a46:	4a84      	ldr	r2, [pc, #528]	; (0x1004c58)
 1004a48:	f021 61f8 	bic.w	r1, r1, #130023424	; 0x7c00000
 1004a4c:	402a      	ands	r2, r5
 1004a4e:	430a      	orrs	r2, r1
 1004a50:	f020 50fc 	bic.w	r0, r0, #528482304	; 0x1f800000
 1004a54:	f005 51fc 	and.w	r1, r5, #528482304	; 0x1f800000
 1004a58:	4308      	orrs	r0, r1
 1004a5a:	f015 4f80 	tst.w	r5, #1073741824	; 0x40000000
 1004a5e:	bf08      	it	eq
 1004a60:	f020 4380 	biceq.w	r3, r0, #1073741824	; 0x40000000
 1004a64:	d007      	beq.n	0x1004a76
 1004a66:	497d      	ldr	r1, [pc, #500]	; (0x1004c5c)
 1004a68:	f420 0080 	bic.w	r0, r0, #4194304	; 0x400000
 1004a6c:	4029      	ands	r1, r5
 1004a6e:	f442 0280 	orr.w	r2, r2, #4194304	; 0x400000
 1004a72:	ea41 0300 	orr.w	r3, r1, r0
 1004a76:	f415 6f00 	tst.w	r5, #2048	; 0x800
 1004a7a:	bf08      	it	eq
 1004a7c:	f44f 4000 	moveq.w	r0, #32768	; 0x8000
 1004a80:	d003      	beq.n	0x1004a8a
 1004a82:	e00c      	b.n	0x1004a9e
 1004a84:	f44f 5080 	mov.w	r0, #4096	; 0x1000
 1004a88:	e7b0      	b.n	0x10049ec
 1004a8a:	6d21      	ldr	r1, [r4, #80]	; 0x50
 1004a8c:	f011 0f40 	tst.w	r1, #64	; 0x40
 1004a90:	d101      	bne.n	0x1004a96
 1004a92:	1e40      	subs	r0, r0, #1
 1004a94:	d1f9      	bne.n	0x1004a8a
 1004a96:	f422 6200 	bic.w	r2, r2, #2048	; 0x800
 1004a9a:	f423 6300 	bic.w	r3, r3, #2048	; 0x800
 1004a9e:	6622      	str	r2, [r4, #96]	; 0x60
 1004aa0:	6723      	str	r3, [r4, #112]	; 0x70
 1004aa2:	e8bd 41f0 	ldmia.w	sp!, {r4, r5, r6, r7, r8, lr}
 1004aa6:	2010      	movs	r0, #16
 1004aa8:	f7fc babc 	b.w	0x1001024
 1004aac:	b510      	push	{r4, lr}
 1004aae:	4c6c      	ldr	r4, [pc, #432]	; (0x1004c60)
 1004ab0:	6820      	ldr	r0, [r4, #0]
 1004ab2:	f040 0004 	orr.w	r0, r0, #4
 1004ab6:	6020      	str	r0, [r4, #0]
 1004ab8:	f002 fd7c 	bl	0x10075b4
 1004abc:	6820      	ldr	r0, [r4, #0]
 1004abe:	f020 0004 	bic.w	r0, r0, #4
 1004ac2:	6020      	str	r0, [r4, #0]
 1004ac4:	bd10      	pop	{r4, pc}
 1004ac6:	4a67      	ldr	r2, [pc, #412]	; (0x1004c64)
 1004ac8:	f021 51fc 	bic.w	r1, r1, #528482304	; 0x1f800000
 1004acc:	eb02 50c0 	add.w	r0, r2, r0, lsl #23
 1004ad0:	4308      	orrs	r0, r1
 1004ad2:	4965      	ldr	r1, [pc, #404]	; (0x1004c68)
 1004ad4:	6008      	str	r0, [r1, #0]
 1004ad6:	4770      	bx	lr
 1004ad8:	4963      	ldr	r1, [pc, #396]	; (0x1004c68)
 1004ada:	6008      	str	r0, [r1, #0]
 1004adc:	4770      	bx	lr
 1004ade:	4963      	ldr	r1, [pc, #396]	; (0x1004c6c)
 1004ae0:	6008      	str	r0, [r1, #0]
 1004ae2:	4770      	bx	lr
 1004ae4:	4857      	ldr	r0, [pc, #348]	; (0x1004c44)
 1004ae6:	6880      	ldr	r0, [r0, #8]
 1004ae8:	0400      	lsls	r0, r0, #16
 1004aea:	0940      	lsrs	r0, r0, #5
 1004aec:	f500 6000 	add.w	r0, r0, #2048	; 0x800
 1004af0:	4770      	bx	lr
 1004af2:	4954      	ldr	r1, [pc, #336]	; (0x1004c44)
 1004af4:	6eca      	ldr	r2, [r1, #108]	; 0x6c
 1004af6:	b280      	uxth	r0, r0
 1004af8:	ea22 0000 	bic.w	r0, r2, r0
 1004afc:	66c8      	str	r0, [r1, #108]	; 0x6c
 1004afe:	4770      	bx	lr
 1004b00:	4950      	ldr	r1, [pc, #320]	; (0x1004c44)
 1004b02:	6eca      	ldr	r2, [r1, #108]	; 0x6c
 1004b04:	b280      	uxth	r0, r0
 1004b06:	4310      	orrs	r0, r2
 1004b08:	66c8      	str	r0, [r1, #108]	; 0x6c
 1004b0a:	4770      	bx	lr
 1004b0c:	494d      	ldr	r1, [pc, #308]	; (0x1004c44)
 1004b0e:	6588      	str	r0, [r1, #88]	; 0x58
 1004b10:	4770      	bx	lr
 1004b12:	494c      	ldr	r1, [pc, #304]	; (0x1004c44)
 1004b14:	6d4a      	ldr	r2, [r1, #84]	; 0x54
 1004b16:	ea22 0000 	bic.w	r0, r2, r0
 1004b1a:	6548      	str	r0, [r1, #84]	; 0x54
 1004b1c:	4770      	bx	lr
 1004b1e:	4949      	ldr	r1, [pc, #292]	; (0x1004c44)
 1004b20:	6d4a      	ldr	r2, [r1, #84]	; 0x54
 1004b22:	4310      	orrs	r0, r2
 1004b24:	6548      	str	r0, [r1, #84]	; 0x54
 1004b26:	4770      	bx	lr
 1004b28:	4946      	ldr	r1, [pc, #280]	; (0x1004c44)
 1004b2a:	2800      	cmp	r0, #0
 1004b2c:	bf14      	ite	ne
 1004b2e:	6d88      	ldrne	r0, [r1, #88]	; 0x58
 1004b30:	6d08      	ldreq	r0, [r1, #80]	; 0x50
 1004b32:	4770      	bx	lr
 1004b34:	484e      	ldr	r0, [pc, #312]	; (0x1004c70)
 1004b36:	6800      	ldr	r0, [r0, #0]
 1004b38:	4770      	bx	lr
 1004b3a:	494d      	ldr	r1, [pc, #308]	; (0x1004c70)
 1004b3c:	6008      	str	r0, [r1, #0]
 1004b3e:	4770      	bx	lr
 1004b40:	4840      	ldr	r0, [pc, #256]	; (0x1004c44)
 1004b42:	6b40      	ldr	r0, [r0, #52]	; 0x34
 1004b44:	4770      	bx	lr
 1004b46:	493f      	ldr	r1, [pc, #252]	; (0x1004c44)
 1004b48:	6348      	str	r0, [r1, #52]	; 0x34
 1004b4a:	4770      	bx	lr
 1004b4c:	4849      	ldr	r0, [pc, #292]	; (0x1004c74)
 1004b4e:	6800      	ldr	r0, [r0, #0]
 1004b50:	4770      	bx	lr
 1004b52:	4948      	ldr	r1, [pc, #288]	; (0x1004c74)
 1004b54:	6008      	str	r0, [r1, #0]
 1004b56:	4770      	bx	lr
 1004b58:	493a      	ldr	r1, [pc, #232]	; (0x1004c44)
 1004b5a:	67c8      	str	r0, [r1, #124]	; 0x7c
 1004b5c:	4770      	bx	lr
 1004b5e:	f04f 4170 	mov.w	r1, #4026531840	; 0xf0000000
 1004b62:	4381      	bics	r1, r0
 1004b64:	d009      	beq.n	0x1004b7a
 1004b66:	4944      	ldr	r1, [pc, #272]	; (0x1004c78)
 1004b68:	4288      	cmp	r0, r1
 1004b6a:	d118      	bne.n	0x1004b9e
 1004b6c:	4835      	ldr	r0, [pc, #212]	; (0x1004c44)
 1004b6e:	6a40      	ldr	r0, [r0, #36]	; 0x24
 1004b70:	f010 0003 	ands.w	r0, r0, #3
 1004b74:	bf08      	it	eq
 1004b76:	4770      	bxeq	lr
 1004b78:	e01e      	b.n	0x1004bb8
 1004b7a:	f3c0 2207 	ubfx	r2, r0, #8, #8
 1004b7e:	493f      	ldr	r1, [pc, #252]	; (0x1004c7c)
 1004b80:	b2c0      	uxtb	r0, r0
 1004b82:	4411      	add	r1, r2
 1004b84:	f001 4270 	and.w	r2, r1, #4026531840	; 0xf0000000
 1004b88:	f3c1 0113 	ubfx	r1, r1, #0, #20
 1004b8c:	ea42 1141 	orr.w	r1, r2, r1, lsl #5
 1004b90:	ea41 0080 	orr.w	r0, r1, r0, lsl #2
 1004b94:	f040 7000 	orr.w	r0, r0, #33554432	; 0x2000000
 1004b98:	6800      	ldr	r0, [r0, #0]
 1004b9a:	b2c0      	uxtb	r0, r0
 1004b9c:	4770      	bx	lr
 1004b9e:	4a38      	ldr	r2, [pc, #224]	; (0x1004c80)
 1004ba0:	0f01      	lsrs	r1, r0, #28
 1004ba2:	f852 1021 	ldr.w	r1, [r2, r1, lsl #2]
 1004ba6:	6809      	ldr	r1, [r1, #0]
 1004ba8:	b282      	uxth	r2, r0
 1004baa:	f3c0 4004 	ubfx	r0, r0, #16, #5
 1004bae:	fa02 f000 	lsl.w	r0, r2, r0
 1004bb2:	4008      	ands	r0, r1
 1004bb4:	bf08      	it	eq
 1004bb6:	4770      	bxeq	lr
 1004bb8:	2001      	movs	r0, #1
 1004bba:	4770      	bx	lr
 1004bbc:	b510      	push	{r4, lr}
 1004bbe:	f7ff fe44 	bl	0x100484a
 1004bc2:	f3c0 2207 	ubfx	r2, r0, #8, #8
 1004bc6:	492f      	ldr	r1, [pc, #188]	; (0x1004c84)
 1004bc8:	b2c0      	uxtb	r0, r0
 1004bca:	4411      	add	r1, r2
 1004bcc:	f001 4270 	and.w	r2, r1, #4026531840	; 0xf0000000
 1004bd0:	f3c1 0113 	ubfx	r1, r1, #0, #20
 1004bd4:	ea42 1141 	orr.w	r1, r2, r1, lsl #5
 1004bd8:	ea41 0080 	orr.w	r0, r1, r0, lsl #2
 1004bdc:	f040 7000 	orr.w	r0, r0, #33554432	; 0x2000000
 1004be0:	6800      	ldr	r0, [r0, #0]
 1004be2:	b2c0      	uxtb	r0, r0
 1004be4:	bd10      	pop	{r4, pc}
 1004be6:	b510      	push	{r4, lr}
 1004be8:	f7ff fe2f 	bl	0x100484a
 1004bec:	f3c0 2307 	ubfx	r3, r0, #8, #8
 1004bf0:	4925      	ldr	r1, [pc, #148]	; (0x1004c88)
 1004bf2:	b2c0      	uxtb	r0, r0
 1004bf4:	4419      	add	r1, r3
 1004bf6:	f001 4370 	and.w	r3, r1, #4026531840	; 0xf0000000
 1004bfa:	f3c1 0113 	ubfx	r1, r1, #0, #20
 1004bfe:	ea43 1141 	orr.w	r1, r3, r1, lsl #5
 1004c02:	ea41 0080 	orr.w	r0, r1, r0, lsl #2
 1004c06:	f040 7000 	orr.w	r0, r0, #33554432	; 0x2000000
 1004c0a:	2201      	movs	r2, #1
 1004c0c:	6002      	str	r2, [r0, #0]
 1004c0e:	bd10      	pop	{r4, pc}
 1004c10:	b510      	push	{r4, lr}
 1004c12:	f7ff fe1a 	bl	0x100484a
 1004c16:	f3c0 2307 	ubfx	r3, r0, #8, #8
 1004c1a:	491b      	ldr	r1, [pc, #108]	; (0x1004c88)
 1004c1c:	b2c0      	uxtb	r0, r0
 1004c1e:	4419      	add	r1, r3
 1004c20:	f001 4370 	and.w	r3, r1, #4026531840	; 0xf0000000
 1004c24:	f3c1 0113 	ubfx	r1, r1, #0, #20
 1004c28:	ea43 1141 	orr.w	r1, r3, r1, lsl #5
 1004c2c:	ea41 0080 	orr.w	r0, r1, r0, lsl #2
 1004c30:	f040 7000 	orr.w	r0, r0, #33554432	; 0x2000000
 1004c34:	2200      	movs	r2, #0
 1004c36:	6002      	str	r2, [r0, #0]
 1004c38:	bd10      	pop	{r4, pc}
 1004c3a:	0000      	movs	r0, r0
 1004c3c:	7b48      	ldrb	r0, [r1, #13]
 1004c3e:	0100      	lsls	r0, r0, #4
 1004c40:	e100      	b.n	0x1004e44
 1004c42:	400f      	ands	r7, r1
 1004c44:	e000      	b.n	0x1004c48
 1004c46:	400f      	ands	r7, r1
 1004c48:	2400      	movs	r4, #0
 1004c4a:	00f4      	lsls	r4, r6, #3
 1004c4c:	0900      	lsrs	r0, r0, #4
 1004c4e:	003d      	movs	r5, r7
 1004c50:	7adc      	ldrb	r4, [r3, #11]
 1004c52:	0100      	lsls	r0, r0, #4
 1004c54:	0030      	movs	r0, r6
 1004c56:	8000      	strh	r0, [r0, #0]
 1004c58:	0003      	movs	r3, r0
 1004c5a:	07c0      	lsls	r0, r0, #31
 1004c5c:	0000      	movs	r0, r0
 1004c5e:	4040      	eors	r0, r0
 1004c60:	ed10 e000 	ldc	0, cr14, [r0, #-0]
 1004c64:	0000      	movs	r0, r0
 1004c66:	ff80 e144 	vmla.f<illegal width 8>	q7, q0, d0[1]
 1004c6a:	400f      	ands	r7, r1
 1004c6c:	e18c      	b.n	0x1004f88
 1004c6e:	400f      	ands	r7, r1
 1004c70:	e1bc      	b.n	0x1004fec
 1004c72:	400f      	ands	r7, r1
 1004c74:	e1b4      	b.n	0x1004fe0
 1004c76:	400f      	ands	r7, r1
 1004c78:	0001      	movs	r1, r0
 1004c7a:	2010      	movs	r0, #16
 1004c7c:	e300      	b.n	0x1005280
 1004c7e:	400f      	ands	r7, r1
 1004c80:	7a9c      	ldrb	r4, [r3, #10]
 1004c82:	0100      	lsls	r0, r0, #4
 1004c84:	ea00 400f 	and.w	r0, r0, pc, lsl #16
 1004c88:	e900 400f 	stmdb	r0, {r0, r1, r2, r3, lr}
 1004c8c:	f04f 4170 	mov.w	r1, #4026531840	; 0xf0000000
 1004c90:	4381      	bics	r1, r0
 1004c92:	d00c      	beq.n	0x1004cae
 1004c94:	49f9      	ldr	r1, [pc, #996]	; (0x100507c)
 1004c96:	0f02      	lsrs	r2, r0, #28
 1004c98:	f851 1022 	ldr.w	r1, [r1, r2, lsl #2]
 1004c9c:	680a      	ldr	r2, [r1, #0]
 1004c9e:	b283      	uxth	r3, r0
 1004ca0:	f3c0 4004 	ubfx	r0, r0, #16, #5
 1004ca4:	fa03 f000 	lsl.w	r0, r3, r0
 1004ca8:	4310      	orrs	r0, r2
 1004caa:	6008      	str	r0, [r1, #0]
 1004cac:	4770      	bx	lr
 1004cae:	f3c0 2307 	ubfx	r3, r0, #8, #8
 1004cb2:	49f3      	ldr	r1, [pc, #972]	; (0x1005080)
 1004cb4:	b2c0      	uxtb	r0, r0
 1004cb6:	4419      	add	r1, r3
 1004cb8:	f001 4370 	and.w	r3, r1, #4026531840	; 0xf0000000
 1004cbc:	f3c1 0113 	ubfx	r1, r1, #0, #20
 1004cc0:	ea43 1141 	orr.w	r1, r3, r1, lsl #5
 1004cc4:	ea41 0080 	orr.w	r0, r1, r0, lsl #2
 1004cc8:	f040 7000 	orr.w	r0, r0, #33554432	; 0x2000000
 1004ccc:	2201      	movs	r2, #1
 1004cce:	6002      	str	r2, [r0, #0]
 1004cd0:	4770      	bx	lr
 1004cd2:	f04f 4170 	mov.w	r1, #4026531840	; 0xf0000000
 1004cd6:	4381      	bics	r1, r0
 1004cd8:	d00d      	beq.n	0x1004cf6
 1004cda:	49e8      	ldr	r1, [pc, #928]	; (0x100507c)
 1004cdc:	0f02      	lsrs	r2, r0, #28
 1004cde:	f851 1022 	ldr.w	r1, [r1, r2, lsl #2]
 1004ce2:	680a      	ldr	r2, [r1, #0]
 1004ce4:	b283      	uxth	r3, r0
 1004ce6:	f3c0 4004 	ubfx	r0, r0, #16, #5
 1004cea:	fa03 f000 	lsl.w	r0, r3, r0
 1004cee:	ea22 0000 	bic.w	r0, r2, r0
 1004cf2:	6008      	str	r0, [r1, #0]
 1004cf4:	4770      	bx	lr
 1004cf6:	f3c0 2307 	ubfx	r3, r0, #8, #8
 1004cfa:	49e1      	ldr	r1, [pc, #900]	; (0x1005080)
 1004cfc:	b2c0      	uxtb	r0, r0
 1004cfe:	4419      	add	r1, r3
 1004d00:	f001 4370 	and.w	r3, r1, #4026531840	; 0xf0000000
 1004d04:	f3c1 0113 	ubfx	r1, r1, #0, #20
 1004d08:	ea43 1141 	orr.w	r1, r3, r1, lsl #5
 1004d0c:	ea41 0080 	orr.w	r0, r1, r0, lsl #2
 1004d10:	f040 7000 	orr.w	r0, r0, #33554432	; 0x2000000
 1004d14:	2200      	movs	r2, #0
 1004d16:	6002      	str	r2, [r0, #0]
 1004d18:	4770      	bx	lr
 1004d1a:	f04f 4170 	mov.w	r1, #4026531840	; 0xf0000000
 1004d1e:	4381      	bics	r1, r0
 1004d20:	d00c      	beq.n	0x1004d3c
 1004d22:	49d8      	ldr	r1, [pc, #864]	; (0x1005084)
 1004d24:	0f02      	lsrs	r2, r0, #28
 1004d26:	f851 1022 	ldr.w	r1, [r1, r2, lsl #2]
 1004d2a:	680a      	ldr	r2, [r1, #0]
 1004d2c:	b283      	uxth	r3, r0
 1004d2e:	f3c0 4004 	ubfx	r0, r0, #16, #5
 1004d32:	fa03 f000 	lsl.w	r0, r3, r0
 1004d36:	4310      	orrs	r0, r2
 1004d38:	6008      	str	r0, [r1, #0]
 1004d3a:	4770      	bx	lr
 1004d3c:	f3c0 2307 	ubfx	r3, r0, #8, #8
 1004d40:	49d1      	ldr	r1, [pc, #836]	; (0x1005088)
 1004d42:	b2c0      	uxtb	r0, r0
 1004d44:	4419      	add	r1, r3
 1004d46:	f001 4370 	and.w	r3, r1, #4026531840	; 0xf0000000
 1004d4a:	f3c1 0113 	ubfx	r1, r1, #0, #20
 1004d4e:	ea43 1141 	orr.w	r1, r3, r1, lsl #5
 1004d52:	ea41 0080 	orr.w	r0, r1, r0, lsl #2
 1004d56:	f040 7000 	orr.w	r0, r0, #33554432	; 0x2000000
 1004d5a:	2201      	movs	r2, #1
 1004d5c:	6002      	str	r2, [r0, #0]
 1004d5e:	4770      	bx	lr
 1004d60:	f04f 4170 	mov.w	r1, #4026531840	; 0xf0000000
 1004d64:	4381      	bics	r1, r0
 1004d66:	d00d      	beq.n	0x1004d84
 1004d68:	49c6      	ldr	r1, [pc, #792]	; (0x1005084)
 1004d6a:	0f02      	lsrs	r2, r0, #28
 1004d6c:	f851 1022 	ldr.w	r1, [r1, r2, lsl #2]
 1004d70:	680a      	ldr	r2, [r1, #0]
 1004d72:	b283      	uxth	r3, r0
 1004d74:	f3c0 4004 	ubfx	r0, r0, #16, #5
 1004d78:	fa03 f000 	lsl.w	r0, r3, r0
 1004d7c:	ea22 0000 	bic.w	r0, r2, r0
 1004d80:	6008      	str	r0, [r1, #0]
 1004d82:	4770      	bx	lr
 1004d84:	f3c0 2307 	ubfx	r3, r0, #8, #8
 1004d88:	49bf      	ldr	r1, [pc, #764]	; (0x1005088)
 1004d8a:	b2c0      	uxtb	r0, r0
 1004d8c:	4419      	add	r1, r3
 1004d8e:	f001 4370 	and.w	r3, r1, #4026531840	; 0xf0000000
 1004d92:	f3c1 0113 	ubfx	r1, r1, #0, #20
 1004d96:	ea43 1141 	orr.w	r1, r3, r1, lsl #5
 1004d9a:	ea41 0080 	orr.w	r0, r1, r0, lsl #2
 1004d9e:	f040 7000 	orr.w	r0, r0, #33554432	; 0x2000000
 1004da2:	2200      	movs	r2, #0
 1004da4:	6002      	str	r2, [r0, #0]
 1004da6:	4770      	bx	lr
 1004da8:	f04f 4170 	mov.w	r1, #4026531840	; 0xf0000000
 1004dac:	4381      	bics	r1, r0
 1004dae:	d00c      	beq.n	0x1004dca
 1004db0:	49b6      	ldr	r1, [pc, #728]	; (0x100508c)
 1004db2:	0f02      	lsrs	r2, r0, #28
 1004db4:	f851 1022 	ldr.w	r1, [r1, r2, lsl #2]
 1004db8:	680a      	ldr	r2, [r1, #0]
 1004dba:	b283      	uxth	r3, r0
 1004dbc:	f3c0 4004 	ubfx	r0, r0, #16, #5
 1004dc0:	fa03 f000 	lsl.w	r0, r3, r0
 1004dc4:	4310      	orrs	r0, r2
 1004dc6:	6008      	str	r0, [r1, #0]
 1004dc8:	4770      	bx	lr
 1004dca:	f3c0 2307 	ubfx	r3, r0, #8, #8
 1004dce:	49b0      	ldr	r1, [pc, #704]	; (0x1005090)
 1004dd0:	b2c0      	uxtb	r0, r0
 1004dd2:	4419      	add	r1, r3
 1004dd4:	f001 4370 	and.w	r3, r1, #4026531840	; 0xf0000000
 1004dd8:	f3c1 0113 	ubfx	r1, r1, #0, #20
 1004ddc:	ea43 1141 	orr.w	r1, r3, r1, lsl #5
 1004de0:	ea41 0080 	orr.w	r0, r1, r0, lsl #2
 1004de4:	f040 7000 	orr.w	r0, r0, #33554432	; 0x2000000
 1004de8:	2201      	movs	r2, #1
 1004dea:	6002      	str	r2, [r0, #0]
 1004dec:	4770      	bx	lr
 1004dee:	f04f 4170 	mov.w	r1, #4026531840	; 0xf0000000
 1004df2:	4381      	bics	r1, r0
 1004df4:	d00d      	beq.n	0x1004e12
 1004df6:	49a5      	ldr	r1, [pc, #660]	; (0x100508c)
 1004df8:	0f02      	lsrs	r2, r0, #28
 1004dfa:	f851 1022 	ldr.w	r1, [r1, r2, lsl #2]
 1004dfe:	680a      	ldr	r2, [r1, #0]
 1004e00:	b283      	uxth	r3, r0
 1004e02:	f3c0 4004 	ubfx	r0, r0, #16, #5
 1004e06:	fa03 f000 	lsl.w	r0, r3, r0
 1004e0a:	ea22 0000 	bic.w	r0, r2, r0
 1004e0e:	6008      	str	r0, [r1, #0]
 1004e10:	4770      	bx	lr
 1004e12:	f3c0 2307 	ubfx	r3, r0, #8, #8
 1004e16:	499e      	ldr	r1, [pc, #632]	; (0x1005090)
 1004e18:	b2c0      	uxtb	r0, r0
 1004e1a:	4419      	add	r1, r3
 1004e1c:	f001 4370 	and.w	r3, r1, #4026531840	; 0xf0000000
 1004e20:	f3c1 0113 	ubfx	r1, r1, #0, #20
 1004e24:	ea43 1141 	orr.w	r1, r3, r1, lsl #5
 1004e28:	ea41 0080 	orr.w	r0, r1, r0, lsl #2
 1004e2c:	f040 7000 	orr.w	r0, r0, #33554432	; 0x2000000
 1004e30:	2200      	movs	r2, #0
 1004e32:	6002      	str	r2, [r0, #0]
 1004e34:	4770      	bx	lr
 1004e36:	4997      	ldr	r1, [pc, #604]	; (0x1005094)
 1004e38:	2800      	cmp	r0, #0
 1004e3a:	6e08      	ldr	r0, [r1, #96]	; 0x60
 1004e3c:	bf14      	ite	ne
 1004e3e:	f040 6000 	orrne.w	r0, r0, #134217728	; 0x8000000
 1004e42:	f020 6000 	biceq.w	r0, r0, #134217728	; 0x8000000
 1004e46:	6608      	str	r0, [r1, #96]	; 0x60
 1004e48:	4770      	bx	lr
 1004e4a:	4992      	ldr	r1, [pc, #584]	; (0x1005094)
 1004e4c:	6989      	ldr	r1, [r1, #24]
 1004e4e:	4008      	ands	r0, r1
 1004e50:	bf18      	it	ne
 1004e52:	2001      	movne	r0, #1
 1004e54:	4770      	bx	lr
 1004e56:	4990      	ldr	r1, [pc, #576]	; (0x1005098)
 1004e58:	4208      	tst	r0, r1
 1004e5a:	498e      	ldr	r1, [pc, #568]	; (0x1005094)
 1004e5c:	d008      	beq.n	0x1004e70
 1004e5e:	f000 4200 	and.w	r2, r0, #2147483648	; 0x80000000
 1004e62:	f8c1 2150 	str.w	r2, [r1, #336]	; 0x150
 1004e66:	4602      	mov	r2, r0
 1004e68:	f36f 12de 	bfc	r2, #7, #24
 1004e6c:	f8c1 2150 	str.w	r2, [r1, #336]	; 0x150
 1004e70:	f8c1 0150 	str.w	r0, [r1, #336]	; 0x150
 1004e74:	f410 7f00 	tst.w	r0, #512	; 0x200
 1004e78:	d00d      	beq.n	0x1004e96
 1004e7a:	f8d1 0154 	ldr.w	r0, [r1, #340]	; 0x154
 1004e7e:	f410 7f40 	tst.w	r0, #768	; 0x300
 1004e82:	d0fa      	beq.n	0x1004e7a
 1004e84:	f8d1 0154 	ldr.w	r0, [r1, #340]	; 0x154
 1004e88:	f400 7040 	and.w	r0, r0, #768	; 0x300
 1004e8c:	f5b0 7f80 	cmp.w	r0, #256	; 0x100
 1004e90:	bf1c      	itt	ne
 1004e92:	2000      	movne	r0, #0
 1004e94:	4770      	bxne	lr
 1004e96:	2001      	movs	r0, #1
 1004e98:	4770      	bx	lr
 1004e9a:	487e      	ldr	r0, [pc, #504]	; (0x1005094)
 1004e9c:	6e01      	ldr	r1, [r0, #96]	; 0x60
 1004e9e:	f411 1f80 	tst.w	r1, #1048576	; 0x100000
 1004ea2:	bf0e      	itee	eq
 1004ea4:	2000      	moveq	r0, #0
 1004ea6:	6e00      	ldrne	r0, [r0, #96]	; 0x60
 1004ea8:	f400 10f0 	andne.w	r0, r0, #1966080	; 0x1e0000
 1004eac:	4770      	bx	lr
 1004eae:	4979      	ldr	r1, [pc, #484]	; (0x1005094)
 1004eb0:	6e0a      	ldr	r2, [r1, #96]	; 0x60
 1004eb2:	f422 12f0 	bic.w	r2, r2, #1966080	; 0x1e0000
 1004eb6:	4310      	orrs	r0, r2
 1004eb8:	6608      	str	r0, [r1, #96]	; 0x60
 1004eba:	4770      	bx	lr
 1004ebc:	4978      	ldr	r1, [pc, #480]	; (0x10050a0)
 1004ebe:	4877      	ldr	r0, [pc, #476]	; (0x100509c)
 1004ec0:	6008      	str	r0, [r1, #0]
 1004ec2:	e7fe      	b.n	0x1004ec2
 1004ec4:	4973      	ldr	r1, [pc, #460]	; (0x1005094)
 1004ec6:	6dca      	ldr	r2, [r1, #92]	; 0x5c
 1004ec8:	ea22 0000 	bic.w	r0, r2, r0
 1004ecc:	65c8      	str	r0, [r1, #92]	; 0x5c
 1004ece:	4770      	bx	lr
 1004ed0:	4870      	ldr	r0, [pc, #448]	; (0x1005094)
 1004ed2:	6dc0      	ldr	r0, [r0, #92]	; 0x5c
 1004ed4:	4770      	bx	lr
 1004ed6:	f002 bb6d 	b.w	0x10075b4
 1004eda:	4972      	ldr	r1, [pc, #456]	; (0x10050a4)
 1004edc:	6008      	str	r0, [r1, #0]
 1004ede:	4770      	bx	lr
 1004ee0:	486c      	ldr	r0, [pc, #432]	; (0x1005094)
 1004ee2:	6880      	ldr	r0, [r0, #8]
 1004ee4:	f420 407f 	bic.w	r0, r0, #65280	; 0xff00
 1004ee8:	0a00      	lsrs	r0, r0, #8
 1004eea:	f500 7080 	add.w	r0, r0, #256	; 0x100
 1004eee:	4770      	bx	lr
 1004ef0:	4868      	ldr	r0, [pc, #416]	; (0x1005094)
 1004ef2:	6f01      	ldr	r1, [r0, #112]	; 0x70
 1004ef4:	f441 4180 	orr.w	r1, r1, #16384	; 0x4000
 1004ef8:	6701      	str	r1, [r0, #112]	; 0x70
 1004efa:	4770      	bx	lr
 1004efc:	4865      	ldr	r0, [pc, #404]	; (0x1005094)
 1004efe:	6f01      	ldr	r1, [r0, #112]	; 0x70
 1004f00:	f421 4180 	bic.w	r1, r1, #16384	; 0x4000
 1004f04:	6701      	str	r1, [r0, #112]	; 0x70
 1004f06:	4770      	bx	lr
 1004f08:	4967      	ldr	r1, [pc, #412]	; (0x10050a8)
 1004f0a:	60c8      	str	r0, [r1, #12]
 1004f0c:	4770      	bx	lr
 1004f0e:	4966      	ldr	r1, [pc, #408]	; (0x10050a8)
 1004f10:	684a      	ldr	r2, [r1, #4]
 1004f12:	ea22 0000 	bic.w	r0, r2, r0
 1004f16:	6048      	str	r0, [r1, #4]
 1004f18:	4770      	bx	lr
 1004f1a:	4963      	ldr	r1, [pc, #396]	; (0x10050a8)
 1004f1c:	684a      	ldr	r2, [r1, #4]
 1004f1e:	4310      	orrs	r0, r2
 1004f20:	6048      	str	r0, [r1, #4]
 1004f22:	4770      	bx	lr
 1004f24:	4960      	ldr	r1, [pc, #384]	; (0x10050a8)
 1004f26:	2800      	cmp	r0, #0
 1004f28:	bf14      	ite	ne
 1004f2a:	6888      	ldrne	r0, [r1, #8]
 1004f2c:	6808      	ldreq	r0, [r1, #0]
 1004f2e:	4770      	bx	lr
 1004f30:	f04f 20e0 	mov.w	r0, #3758153728	; 0xe000e000
 1004f34:	6901      	ldr	r1, [r0, #16]
 1004f36:	f041 0105 	orr.w	r1, r1, #5
 1004f3a:	6101      	str	r1, [r0, #16]
 1004f3c:	4770      	bx	lr
 1004f3e:	f04f 20e0 	mov.w	r0, #3758153728	; 0xe000e000
 1004f42:	6901      	ldr	r1, [r0, #16]
 1004f44:	f021 0101 	bic.w	r1, r1, #1
 1004f48:	6101      	str	r1, [r0, #16]
 1004f4a:	4770      	bx	lr
 1004f4c:	f04f 20e0 	mov.w	r0, #3758153728	; 0xe000e000
 1004f50:	6901      	ldr	r1, [r0, #16]
 1004f52:	f041 0102 	orr.w	r1, r1, #2
 1004f56:	6101      	str	r1, [r0, #16]
 1004f58:	4770      	bx	lr
 1004f5a:	f04f 20e0 	mov.w	r0, #3758153728	; 0xe000e000
 1004f5e:	6901      	ldr	r1, [r0, #16]
 1004f60:	f021 0102 	bic.w	r1, r1, #2
 1004f64:	6101      	str	r1, [r0, #16]
 1004f66:	4770      	bx	lr
 1004f68:	f04f 21e0 	mov.w	r1, #3758153728	; 0xe000e000
 1004f6c:	1e40      	subs	r0, r0, #1
 1004f6e:	6148      	str	r0, [r1, #20]
 1004f70:	4770      	bx	lr
 1004f72:	f04f 20e0 	mov.w	r0, #3758153728	; 0xe000e000
 1004f76:	6940      	ldr	r0, [r0, #20]
 1004f78:	1c40      	adds	r0, r0, #1
 1004f7a:	4770      	bx	lr
 1004f7c:	f04f 20e0 	mov.w	r0, #3758153728	; 0xe000e000
 1004f80:	6980      	ldr	r0, [r0, #24]
 1004f82:	4770      	bx	lr
 1004f84:	68c2      	ldr	r2, [r0, #12]
 1004f86:	f240 1301 	movw	r3, #257	; 0x101
 1004f8a:	4019      	ands	r1, r3
 1004f8c:	4311      	orrs	r1, r2
 1004f8e:	60c1      	str	r1, [r0, #12]
 1004f90:	4770      	bx	lr
 1004f92:	68c2      	ldr	r2, [r0, #12]
 1004f94:	f240 1301 	movw	r3, #257	; 0x101
 1004f98:	4019      	ands	r1, r3
 1004f9a:	ea22 0101 	bic.w	r1, r2, r1
 1004f9e:	60c1      	str	r1, [r0, #12]
 1004fa0:	4770      	bx	lr
 1004fa2:	68c2      	ldr	r2, [r0, #12]
 1004fa4:	f022 0201 	bic.w	r2, r2, #1
 1004fa8:	f422 7280 	bic.w	r2, r2, #256	; 0x100
 1004fac:	60c2      	str	r2, [r0, #12]
 1004fae:	0e0a      	lsrs	r2, r1, #24
 1004fb0:	6002      	str	r2, [r0, #0]
 1004fb2:	b2ca      	uxtb	r2, r1
 1004fb4:	f442 7200 	orr.w	r2, r2, #512	; 0x200
 1004fb8:	6042      	str	r2, [r0, #4]
 1004fba:	f3c1 2107 	ubfx	r1, r1, #8, #8
 1004fbe:	f441 7100 	orr.w	r1, r1, #512	; 0x200
 1004fc2:	6081      	str	r1, [r0, #8]
 1004fc4:	4770      	bx	lr
 1004fc6:	f244 0340 	movw	r3, #16448	; 0x4040
 1004fca:	4019      	ands	r1, r3
 1004fcc:	2a00      	cmp	r2, #0
 1004fce:	68c2      	ldr	r2, [r0, #12]
 1004fd0:	bf14      	ite	ne
 1004fd2:	4311      	orrne	r1, r2
 1004fd4:	ea22 0101 	biceq.w	r1, r2, r1
 1004fd8:	60c1      	str	r1, [r0, #12]
 1004fda:	4770      	bx	lr
 1004fdc:	f242 0320 	movw	r3, #8224	; 0x2020
 1004fe0:	4019      	ands	r1, r3
 1004fe2:	2a00      	cmp	r2, #0
 1004fe4:	68c2      	ldr	r2, [r0, #12]
 1004fe6:	bf14      	ite	ne
 1004fe8:	4311      	orrne	r1, r2
 1004fea:	ea22 0101 	biceq.w	r1, r2, r1
 1004fee:	60c1      	str	r1, [r0, #12]
 1004ff0:	4770      	bx	lr
 1004ff2:	f640 430c 	movw	r3, #3084	; 0xc0c
 1004ff6:	4019      	ands	r1, r3
 1004ff8:	68c3      	ldr	r3, [r0, #12]
 1004ffa:	438b      	bics	r3, r1
 1004ffc:	4011      	ands	r1, r2
 1004ffe:	4319      	orrs	r1, r3
 1005000:	60c1      	str	r1, [r0, #12]
 1005002:	4770      	bx	lr
 1005004:	f240 2302 	movw	r3, #514	; 0x202
 1005008:	4019      	ands	r1, r3
 100500a:	2a00      	cmp	r2, #0
 100500c:	68c2      	ldr	r2, [r0, #12]
 100500e:	bf14      	ite	ne
 1005010:	4311      	orrne	r1, r2
 1005012:	ea22 0101 	biceq.w	r1, r2, r1
 1005016:	60c1      	str	r1, [r0, #12]
 1005018:	4770      	bx	lr
 100501a:	f011 0fff 	tst.w	r1, #255	; 0xff
 100501e:	d007      	beq.n	0x1005030
 1005020:	6843      	ldr	r3, [r0, #4]
 1005022:	2a00      	cmp	r2, #0
 1005024:	bf14      	ite	ne
 1005026:	f043 0340 	orrne.w	r3, r3, #64	; 0x40
 100502a:	f023 0340 	biceq.w	r3, r3, #64	; 0x40
 100502e:	6043      	str	r3, [r0, #4]
 1005030:	f411 4f7f 	tst.w	r1, #65280	; 0xff00
 1005034:	bf08      	it	eq
 1005036:	4770      	bxeq	lr
 1005038:	2a00      	cmp	r2, #0
 100503a:	6881      	ldr	r1, [r0, #8]
 100503c:	bf14      	ite	ne
 100503e:	f041 0140 	orrne.w	r1, r1, #64	; 0x40
 1005042:	f021 0140 	biceq.w	r1, r1, #64	; 0x40
 1005046:	6081      	str	r1, [r0, #8]
 1005048:	4770      	bx	lr
 100504a:	68c1      	ldr	r1, [r0, #12]
 100504c:	f041 0110 	orr.w	r1, r1, #16
 1005050:	60c1      	str	r1, [r0, #12]
 1005052:	4770      	bx	lr
 1005054:	68c1      	ldr	r1, [r0, #12]
 1005056:	f021 0110 	bic.w	r1, r1, #16
 100505a:	60c1      	str	r1, [r0, #12]
 100505c:	4770      	bx	lr
 100505e:	f011 0fff 	tst.w	r1, #255	; 0xff
 1005062:	bf18      	it	ne
 1005064:	6382      	strne	r2, [r0, #56]	; 0x38
 1005066:	f411 4f7f 	tst.w	r1, #65280	; 0xff00
 100506a:	bf18      	it	ne
 100506c:	63c2      	strne	r2, [r0, #60]	; 0x3c
 100506e:	4770      	bx	lr
 1005070:	29ff      	cmp	r1, #255	; 0xff
 1005072:	bf0c      	ite	eq
 1005074:	6b80      	ldreq	r0, [r0, #56]	; 0x38
 1005076:	6bc0      	ldrne	r0, [r0, #60]	; 0x3c
 1005078:	4770      	bx	lr
 100507a:	0000      	movs	r0, r0
 100507c:	7ab8      	ldrb	r0, [r7, #10]
 100507e:	0100      	lsls	r0, r0, #4
 1005080:	e600      	b.n	0x1004c84
 1005082:	400f      	ands	r7, r1
 1005084:	7ac4      	ldrb	r4, [r0, #11]
 1005086:	0100      	lsls	r0, r0, #4
 1005088:	e700      	b.n	0x1004e8c
 100508a:	400f      	ands	r7, r1
 100508c:	7ad0      	ldrb	r0, [r2, #11]
 100508e:	0100      	lsls	r0, r0, #4
 1005090:	e800 400f 			; <UNDEFINED> instruction: 0xe800400f
 1005094:	e000      	b.n	0x1005098
 1005096:	400f      	ands	r7, r1
 1005098:	0100      	lsls	r0, r0, #4
 100509a:	8000      	strh	r0, [r0, #0]
 100509c:	0004      	movs	r4, r0
 100509e:	05fa      	lsls	r2, r7, #23
 10050a0:	ed0c e000 	stc	0, cr14, [ip, #-0]
 10050a4:	e188      	b.n	0x10053b8
 10050a6:	400f      	ands	r7, r1
 10050a8:	9000      	str	r0, [sp, #0]
 10050aa:	400f      	ands	r7, r1
 10050ac:	f011 0fff 	tst.w	r1, #255	; 0xff
 10050b0:	bf18      	it	ne
 10050b2:	6402      	strne	r2, [r0, #64]	; 0x40
 10050b4:	f411 4f7f 	tst.w	r1, #65280	; 0xff00
 10050b8:	bf18      	it	ne
 10050ba:	6442      	strne	r2, [r0, #68]	; 0x44
 10050bc:	4770      	bx	lr
 10050be:	29ff      	cmp	r1, #255	; 0xff
 10050c0:	bf0c      	ite	eq
 10050c2:	6c00      	ldreq	r0, [r0, #64]	; 0x40
 10050c4:	6c40      	ldrne	r0, [r0, #68]	; 0x44
 10050c6:	4770      	bx	lr
 10050c8:	f011 0fff 	tst.w	r1, #255	; 0xff
 10050cc:	bf18      	it	ne
 10050ce:	6282      	strne	r2, [r0, #40]	; 0x28
 10050d0:	f411 4f7f 	tst.w	r1, #65280	; 0xff00
 10050d4:	bf18      	it	ne
 10050d6:	62c2      	strne	r2, [r0, #44]	; 0x2c
 10050d8:	4770      	bx	lr
 10050da:	29ff      	cmp	r1, #255	; 0xff
 10050dc:	bf0c      	ite	eq
 10050de:	6a80      	ldreq	r0, [r0, #40]	; 0x28
 10050e0:	6ac0      	ldrne	r0, [r0, #44]	; 0x2c
 10050e2:	4770      	bx	lr
 10050e4:	29ff      	cmp	r1, #255	; 0xff
 10050e6:	bf0c      	ite	eq
 10050e8:	6c80      	ldreq	r0, [r0, #72]	; 0x48
 10050ea:	6cc0      	ldrne	r0, [r0, #76]	; 0x4c
 10050ec:	4770      	bx	lr
 10050ee:	f011 0fff 	tst.w	r1, #255	; 0xff
 10050f2:	bf18      	it	ne
 10050f4:	6302      	strne	r2, [r0, #48]	; 0x30
 10050f6:	f411 4f7f 	tst.w	r1, #65280	; 0xff00
 10050fa:	bf18      	it	ne
 10050fc:	6342      	strne	r2, [r0, #52]	; 0x34
 10050fe:	4770      	bx	lr
 1005100:	29ff      	cmp	r1, #255	; 0xff
 1005102:	bf0c      	ite	eq
 1005104:	6b00      	ldreq	r0, [r0, #48]	; 0x30
 1005106:	6b40      	ldrne	r0, [r0, #52]	; 0x34
 1005108:	4770      	bx	lr
 100510a:	6982      	ldr	r2, [r0, #24]
 100510c:	4311      	orrs	r1, r2
 100510e:	6181      	str	r1, [r0, #24]
 1005110:	4770      	bx	lr
 1005112:	6982      	ldr	r2, [r0, #24]
 1005114:	ea22 0101 	bic.w	r1, r2, r1
 1005118:	6181      	str	r1, [r0, #24]
 100511a:	4770      	bx	lr
 100511c:	2900      	cmp	r1, #0
 100511e:	bf14      	ite	ne
 1005120:	6a00      	ldrne	r0, [r0, #32]
 1005122:	69c0      	ldreq	r0, [r0, #28]
 1005124:	4770      	bx	lr
 1005126:	6241      	str	r1, [r0, #36]	; 0x24
 1005128:	4770      	bx	lr
 100512a:	62c3      	str	r3, [r0, #44]	; 0x2c
 100512c:	6282      	str	r2, [r0, #40]	; 0x28
 100512e:	4770      	bx	lr
 1005130:	6ac1      	ldr	r1, [r0, #44]	; 0x2c
 1005132:	6a83      	ldr	r3, [r0, #40]	; 0x28
 1005134:	6ac2      	ldr	r2, [r0, #44]	; 0x2c
 1005136:	4291      	cmp	r1, r2
 1005138:	d1fa      	bne.n	0x1005130
 100513a:	4618      	mov	r0, r3
 100513c:	4770      	bx	lr
 100513e:	6cc1      	ldr	r1, [r0, #76]	; 0x4c
 1005140:	6c83      	ldr	r3, [r0, #72]	; 0x48
 1005142:	6cc2      	ldr	r2, [r0, #76]	; 0x4c
 1005144:	4291      	cmp	r1, r2
 1005146:	d1fa      	bne.n	0x100513e
 1005148:	4618      	mov	r0, r3
 100514a:	4770      	bx	lr
 100514c:	6343      	str	r3, [r0, #52]	; 0x34
 100514e:	6302      	str	r2, [r0, #48]	; 0x30
 1005150:	4770      	bx	lr
 1005152:	6b41      	ldr	r1, [r0, #52]	; 0x34
 1005154:	6b03      	ldr	r3, [r0, #48]	; 0x30
 1005156:	6b42      	ldr	r2, [r0, #52]	; 0x34
 1005158:	4291      	cmp	r1, r2
 100515a:	d1fa      	bne.n	0x1005152
 100515c:	4618      	mov	r0, r3
 100515e:	4770      	bx	lr
 1005160:	6ac2      	ldr	r2, [r0, #44]	; 0x2c
 1005162:	f022 0286 	bic.w	r2, r2, #134	; 0x86
 1005166:	4311      	orrs	r1, r2
 1005168:	62c1      	str	r1, [r0, #44]	; 0x2c
 100516a:	4770      	bx	lr
 100516c:	6ac0      	ldr	r0, [r0, #44]	; 0x2c
 100516e:	f000 0086 	and.w	r0, r0, #134	; 0x86
 1005172:	4770      	bx	lr
 1005174:	4311      	orrs	r1, r2
 1005176:	6341      	str	r1, [r0, #52]	; 0x34
 1005178:	4770      	bx	lr
 100517a:	6b40      	ldr	r0, [r0, #52]	; 0x34
 100517c:	f000 0307 	and.w	r3, r0, #7
 1005180:	f000 0038 	and.w	r0, r0, #56	; 0x38
 1005184:	600b      	str	r3, [r1, #0]
 1005186:	6010      	str	r0, [r2, #0]
 1005188:	4770      	bx	lr
 100518a:	6ac1      	ldr	r1, [r0, #44]	; 0x2c
 100518c:	f041 0110 	orr.w	r1, r1, #16
 1005190:	62c1      	str	r1, [r0, #44]	; 0x2c
 1005192:	6b01      	ldr	r1, [r0, #48]	; 0x30
 1005194:	f240 3201 	movw	r2, #769	; 0x301
 1005198:	4311      	orrs	r1, r2
 100519a:	6301      	str	r1, [r0, #48]	; 0x30
 100519c:	4770      	bx	lr
 100519e:	6981      	ldr	r1, [r0, #24]
 10051a0:	f011 0f08 	tst.w	r1, #8
 10051a4:	d1fb      	bne.n	0x100519e
 10051a6:	6ac1      	ldr	r1, [r0, #44]	; 0x2c
 10051a8:	f021 0110 	bic.w	r1, r1, #16
 10051ac:	62c1      	str	r1, [r0, #44]	; 0x2c
 10051ae:	6b01      	ldr	r1, [r0, #48]	; 0x30
 10051b0:	f021 0101 	bic.w	r1, r1, #1
 10051b4:	f421 7140 	bic.w	r1, r1, #768	; 0x300
 10051b8:	6301      	str	r1, [r0, #48]	; 0x30
 10051ba:	4770      	bx	lr
 10051bc:	b510      	push	{r4, lr}
 10051be:	4684      	mov	ip, r0
 10051c0:	460c      	mov	r4, r1
 10051c2:	f7ff ffec 	bl	0x100519e
 10051c6:	f8dc 0030 	ldr.w	r0, [ip, #48]	; 0x30
 10051ca:	ebb4 1f02 	cmp.w	r4, r2, lsl #4
 10051ce:	bf34      	ite	cc
 10051d0:	f040 0020 	orrcc.w	r0, r0, #32
 10051d4:	f020 0020 	biccs.w	r0, r0, #32
 10051d8:	f8cc 0030 	str.w	r0, [ip, #48]	; 0x30
 10051dc:	bf38      	it	cc
 10051de:	0852      	lsrcc	r2, r2, #1
 10051e0:	00e0      	lsls	r0, r4, #3
 10051e2:	fbb0 f0f2 	udiv	r0, r0, r2
 10051e6:	1c40      	adds	r0, r0, #1
 10051e8:	0840      	lsrs	r0, r0, #1
 10051ea:	0981      	lsrs	r1, r0, #6
 10051ec:	f8cc 1024 	str.w	r1, [ip, #36]	; 0x24
 10051f0:	f000 003f 	and.w	r0, r0, #63	; 0x3f
 10051f4:	f8cc 0028 	str.w	r0, [ip, #40]	; 0x28
 10051f8:	f8cc 302c 	str.w	r3, [ip, #44]	; 0x2c
 10051fc:	2000      	movs	r0, #0
 10051fe:	f8cc 0018 	str.w	r0, [ip, #24]
 1005202:	e8bd 4010 	ldmia.w	sp!, {r4, lr}
 1005206:	4660      	mov	r0, ip
 1005208:	e7bf      	b.n	0x100518a
 100520a:	b410      	push	{r4}
 100520c:	f8d0 c024 	ldr.w	ip, [r0, #36]	; 0x24
 1005210:	6a84      	ldr	r4, [r0, #40]	; 0x28
 1005212:	0089      	lsls	r1, r1, #2
 1005214:	eb04 1c8c 	add.w	ip, r4, ip, lsl #6
 1005218:	fbb1 f1fc 	udiv	r1, r1, ip
 100521c:	6011      	str	r1, [r2, #0]
 100521e:	f8d0 c030 	ldr.w	ip, [r0, #48]	; 0x30
 1005222:	f01c 0f20 	tst.w	ip, #32
 1005226:	bf1c      	itt	ne
 1005228:	0049      	lslne	r1, r1, #1
 100522a:	6011      	strne	r1, [r2, #0]
 100522c:	6ac0      	ldr	r0, [r0, #44]	; 0x2c
 100522e:	f000 00ee 	and.w	r0, r0, #238	; 0xee
 1005232:	6018      	str	r0, [r3, #0]
 1005234:	bc10      	pop	{r4}
 1005236:	4770      	bx	lr
 1005238:	2900      	cmp	r1, #0
 100523a:	6b01      	ldr	r1, [r0, #48]	; 0x30
 100523c:	bf14      	ite	ne
 100523e:	f041 0106 	orrne.w	r1, r1, #6
 1005242:	f041 0102 	orreq.w	r1, r1, #2
 1005246:	6301      	str	r1, [r0, #48]	; 0x30
 1005248:	4770      	bx	lr
 100524a:	6b01      	ldr	r1, [r0, #48]	; 0x30
 100524c:	f021 0106 	bic.w	r1, r1, #6
 1005250:	6301      	str	r1, [r0, #48]	; 0x30
 1005252:	4770      	bx	lr
 1005254:	6980      	ldr	r0, [r0, #24]
 1005256:	2101      	movs	r1, #1
 1005258:	ea21 1010 	bic.w	r0, r1, r0, lsr #4
 100525c:	4770      	bx	lr
 100525e:	6980      	ldr	r0, [r0, #24]
 1005260:	2101      	movs	r1, #1
 1005262:	ea21 1050 	bic.w	r0, r1, r0, lsr #5
 1005266:	4770      	bx	lr
 1005268:	6981      	ldr	r1, [r0, #24]
 100526a:	f011 0f10 	tst.w	r1, #16
 100526e:	bf0c      	ite	eq
 1005270:	6800      	ldreq	r0, [r0, #0]
 1005272:	f04f 30ff 	movne.w	r0, #4294967295	; 0xffffffff
 1005276:	4770      	bx	lr
 1005278:	6981      	ldr	r1, [r0, #24]
 100527a:	f011 0f10 	tst.w	r1, #16
 100527e:	d1fb      	bne.n	0x1005278
 1005280:	6800      	ldr	r0, [r0, #0]
 1005282:	4770      	bx	lr
 1005284:	6982      	ldr	r2, [r0, #24]
 1005286:	f012 0f20 	tst.w	r2, #32
 100528a:	bf06      	itte	eq
 100528c:	6001      	streq	r1, [r0, #0]
 100528e:	2001      	moveq	r0, #1
 1005290:	2000      	movne	r0, #0
 1005292:	4770      	bx	lr
 1005294:	6982      	ldr	r2, [r0, #24]
 1005296:	f012 0f20 	tst.w	r2, #32
 100529a:	d1fb      	bne.n	0x1005294
 100529c:	6001      	str	r1, [r0, #0]
 100529e:	4770      	bx	lr
 10052a0:	2900      	cmp	r1, #0
 10052a2:	6ac1      	ldr	r1, [r0, #44]	; 0x2c
 10052a4:	bf14      	ite	ne
 10052a6:	f041 0101 	orrne.w	r1, r1, #1
 10052aa:	f021 0101 	biceq.w	r1, r1, #1
 10052ae:	62c1      	str	r1, [r0, #44]	; 0x2c
 10052b0:	4770      	bx	lr
 10052b2:	6b82      	ldr	r2, [r0, #56]	; 0x38
 10052b4:	4311      	orrs	r1, r2
 10052b6:	6381      	str	r1, [r0, #56]	; 0x38
 10052b8:	4770      	bx	lr
 10052ba:	6b82      	ldr	r2, [r0, #56]	; 0x38
 10052bc:	ea22 0101 	bic.w	r1, r2, r1
 10052c0:	6381      	str	r1, [r0, #56]	; 0x38
 10052c2:	4770      	bx	lr
 10052c4:	2900      	cmp	r1, #0
 10052c6:	bf14      	ite	ne
 10052c8:	6c00      	ldrne	r0, [r0, #64]	; 0x40
 10052ca:	6bc0      	ldreq	r0, [r0, #60]	; 0x3c
 10052cc:	4770      	bx	lr
 10052ce:	6441      	str	r1, [r0, #68]	; 0x44
 10052d0:	4770      	bx	lr
 10052d2:	6c82      	ldr	r2, [r0, #72]	; 0x48
 10052d4:	4311      	orrs	r1, r2
 10052d6:	6481      	str	r1, [r0, #72]	; 0x48
 10052d8:	4770      	bx	lr
 10052da:	6c82      	ldr	r2, [r0, #72]	; 0x48
 10052dc:	ea22 0101 	bic.w	r1, r2, r1
 10052e0:	6481      	str	r1, [r0, #72]	; 0x48
 10052e2:	4770      	bx	lr
 10052e4:	6ac1      	ldr	r1, [r0, #44]	; 0x2c
 10052e6:	f041 0110 	orr.w	r1, r1, #16
 10052ea:	62c1      	str	r1, [r0, #44]	; 0x2c
 10052ec:	4770      	bx	lr
 10052ee:	6ac1      	ldr	r1, [r0, #44]	; 0x2c
 10052f0:	f021 0110 	bic.w	r1, r1, #16
 10052f4:	62c1      	str	r1, [r0, #44]	; 0x2c
 10052f6:	4770      	bx	lr
 10052f8:	6b02      	ldr	r2, [r0, #48]	; 0x30
 10052fa:	f022 0210 	bic.w	r2, r2, #16
 10052fe:	4311      	orrs	r1, r2
 1005300:	6301      	str	r1, [r0, #48]	; 0x30
 1005302:	4770      	bx	lr
 1005304:	6b00      	ldr	r0, [r0, #48]	; 0x30
 1005306:	f000 0010 	and.w	r0, r0, #16
 100530a:	4770      	bx	lr
 100530c:	6980      	ldr	r0, [r0, #24]
 100530e:	f3c0 00c0 	ubfx	r0, r0, #3, #1
 1005312:	4770      	bx	lr
 1005314:	6840      	ldr	r0, [r0, #4]
 1005316:	f000 000f 	and.w	r0, r0, #15
 100531a:	4770      	bx	lr
 100531c:	2100      	movs	r1, #0
 100531e:	6041      	str	r1, [r0, #4]
 1005320:	4770      	bx	lr
 1005322:	f8c0 1fc8 	str.w	r1, [r0, #4040]	; 0xfc8
 1005326:	4770      	bx	lr
 1005328:	f8d0 0fc8 	ldr.w	r0, [r0, #4040]	; 0xfc8
 100532c:	4770      	bx	lr
 100532e:	f8d0 10a4 	ldr.w	r1, [r0, #164]	; 0xa4
 1005332:	f441 4100 	orr.w	r1, r1, #32768	; 0x8000
 1005336:	f8c0 10a4 	str.w	r1, [r0, #164]	; 0xa4
 100533a:	4770      	bx	lr
 100533c:	f8d0 10a4 	ldr.w	r1, [r0, #164]	; 0xa4
 1005340:	f421 4100 	bic.w	r1, r1, #32768	; 0x8000
 1005344:	f8c0 10a4 	str.w	r1, [r0, #164]	; 0xa4
 1005348:	4770      	bx	lr
 100534a:	f8c0 10a4 	str.w	r1, [r0, #164]	; 0xa4
 100534e:	f8c0 20a8 	str.w	r2, [r0, #168]	; 0xa8
 1005352:	4770      	bx	lr
 1005354:	6982      	ldr	r2, [r0, #24]
 1005356:	f012 0f88 	tst.w	r2, #136	; 0x88
 100535a:	d1fb      	bne.n	0x1005354
 100535c:	6ac2      	ldr	r2, [r0, #44]	; 0x2c
 100535e:	f022 0304 	bic.w	r3, r2, #4
 1005362:	f043 0382 	orr.w	r3, r3, #130	; 0x82
 1005366:	62c3      	str	r3, [r0, #44]	; 0x2c
 1005368:	6001      	str	r1, [r0, #0]
 100536a:	6981      	ldr	r1, [r0, #24]
 100536c:	f011 0f88 	tst.w	r1, #136	; 0x88
 1005370:	d1fb      	bne.n	0x100536a
 1005372:	62c2      	str	r2, [r0, #44]	; 0x2c
 1005374:	4770      	bx	lr
 1005376:	49fc      	ldr	r1, [pc, #1008]	; (0x1005768)
 1005378:	2001      	movs	r0, #1
 100537a:	6048      	str	r0, [r1, #4]
 100537c:	4770      	bx	lr
 100537e:	49fa      	ldr	r1, [pc, #1000]	; (0x1005768)
 1005380:	2000      	movs	r0, #0
 1005382:	6048      	str	r0, [r1, #4]
 1005384:	4770      	bx	lr
 1005386:	48f8      	ldr	r0, [pc, #992]	; (0x1005768)
 1005388:	6cc0      	ldr	r0, [r0, #76]	; 0x4c
 100538a:	4770      	bx	lr
 100538c:	49f6      	ldr	r1, [pc, #984]	; (0x1005768)
 100538e:	2001      	movs	r0, #1
 1005390:	64c8      	str	r0, [r1, #76]	; 0x4c
 1005392:	4770      	bx	lr
 1005394:	f000 001f 	and.w	r0, r0, #31
 1005398:	2101      	movs	r1, #1
 100539a:	fa01 f000 	lsl.w	r0, r1, r0
 100539e:	49f2      	ldr	r1, [pc, #968]	; (0x1005768)
 10053a0:	6288      	str	r0, [r1, #40]	; 0x28
 10053a2:	4770      	bx	lr
 10053a4:	f000 001f 	and.w	r0, r0, #31
 10053a8:	2101      	movs	r1, #1
 10053aa:	fa01 f000 	lsl.w	r0, r1, r0
 10053ae:	49ee      	ldr	r1, [pc, #952]	; (0x1005768)
 10053b0:	62c8      	str	r0, [r1, #44]	; 0x2c
 10053b2:	4770      	bx	lr
 10053b4:	49ec      	ldr	r1, [pc, #944]	; (0x1005768)
 10053b6:	6a89      	ldr	r1, [r1, #40]	; 0x28
 10053b8:	f000 001f 	and.w	r0, r0, #31
 10053bc:	2201      	movs	r2, #1
 10053be:	fa02 f000 	lsl.w	r0, r2, r0
 10053c2:	4008      	ands	r0, r1
 10053c4:	bf18      	it	ne
 10053c6:	2001      	movne	r0, #1
 10053c8:	4770      	bx	lr
 10053ca:	49e7      	ldr	r1, [pc, #924]	; (0x1005768)
 10053cc:	6088      	str	r0, [r1, #8]
 10053ce:	4770      	bx	lr
 10053d0:	48e5      	ldr	r0, [pc, #916]	; (0x1005768)
 10053d2:	6880      	ldr	r0, [r0, #8]
 10053d4:	4770      	bx	lr
 10053d6:	48e4      	ldr	r0, [pc, #912]	; (0x1005768)
 10053d8:	68c0      	ldr	r0, [r0, #12]
 10053da:	4770      	bx	lr
 10053dc:	f000 001f 	and.w	r0, r0, #31
 10053e0:	2101      	movs	r1, #1
 10053e2:	fa01 f000 	lsl.w	r0, r1, r0
 10053e6:	49e0      	ldr	r1, [pc, #896]	; (0x1005768)
 10053e8:	6148      	str	r0, [r1, #20]
 10053ea:	4770      	bx	lr
 10053ec:	4bde      	ldr	r3, [pc, #888]	; (0x1005768)
 10053ee:	f000 001f 	and.w	r0, r0, #31
 10053f2:	f011 0f01 	tst.w	r1, #1
 10053f6:	f04f 0201 	mov.w	r2, #1
 10053fa:	bf1c      	itt	ne
 10053fc:	fa02 fc00 	lslne.w	ip, r2, r0
 1005400:	f8c3 c018 	strne.w	ip, [r3, #24]
 1005404:	f011 0f02 	tst.w	r1, #2
 1005408:	bf1c      	itt	ne
 100540a:	fa02 fc00 	lslne.w	ip, r2, r0
 100540e:	f8c3 c030 	strne.w	ip, [r3, #48]	; 0x30
 1005412:	f011 0f04 	tst.w	r1, #4
 1005416:	bf1c      	itt	ne
 1005418:	fa02 fc00 	lslne.w	ip, r2, r0
 100541c:	f8c3 c038 	strne.w	ip, [r3, #56]	; 0x38
 1005420:	f011 0f08 	tst.w	r1, #8
 1005424:	bf1c      	itt	ne
 1005426:	fa02 f000 	lslne.w	r0, r2, r0
 100542a:	6218      	strne	r0, [r3, #32]
 100542c:	4770      	bx	lr
 100542e:	f000 001f 	and.w	r0, r0, #31
 1005432:	f011 0f01 	tst.w	r1, #1
 1005436:	f04f 0201 	mov.w	r2, #1
 100543a:	4bcb      	ldr	r3, [pc, #812]	; (0x1005768)
 100543c:	bf1c      	itt	ne
 100543e:	fa02 fc00 	lslne.w	ip, r2, r0
 1005442:	f8c3 c01c 	strne.w	ip, [r3, #28]
 1005446:	f011 0f02 	tst.w	r1, #2
 100544a:	bf1c      	itt	ne
 100544c:	fa02 fc00 	lslne.w	ip, r2, r0
 1005450:	f8c3 c034 	strne.w	ip, [r3, #52]	; 0x34
 1005454:	f011 0f04 	tst.w	r1, #4
 1005458:	bf1c      	itt	ne
 100545a:	fa02 fc00 	lslne.w	ip, r2, r0
 100545e:	f8c3 c03c 	strne.w	ip, [r3, #60]	; 0x3c
 1005462:	f011 0f08 	tst.w	r1, #8
 1005466:	bf1c      	itt	ne
 1005468:	fa02 f000 	lslne.w	r0, r2, r0
 100546c:	6258      	strne	r0, [r3, #36]	; 0x24
 100546e:	4770      	bx	lr
 1005470:	4601      	mov	r1, r0
 1005472:	2000      	movs	r0, #0
 1005474:	f001 011f 	and.w	r1, r1, #31
 1005478:	4abb      	ldr	r2, [pc, #748]	; (0x1005768)
 100547a:	f8d2 c018 	ldr.w	ip, [r2, #24]
 100547e:	2301      	movs	r3, #1
 1005480:	fa03 f101 	lsl.w	r1, r3, r1
 1005484:	ea1c 0f01 	tst.w	ip, r1
 1005488:	bf18      	it	ne
 100548a:	2001      	movne	r0, #1
 100548c:	6b13      	ldr	r3, [r2, #48]	; 0x30
 100548e:	420b      	tst	r3, r1
 1005490:	bf18      	it	ne
 1005492:	f040 0002 	orrne.w	r0, r0, #2
 1005496:	6b93      	ldr	r3, [r2, #56]	; 0x38
 1005498:	420b      	tst	r3, r1
 100549a:	bf18      	it	ne
 100549c:	f040 0004 	orrne.w	r0, r0, #4
 10054a0:	6a12      	ldr	r2, [r2, #32]
 10054a2:	420a      	tst	r2, r1
 10054a4:	bf18      	it	ne
 10054a6:	f040 0008 	orrne.w	r0, r0, #8
 10054aa:	4770      	bx	lr
 10054ac:	f000 023f 	and.w	r2, r0, #63	; 0x3f
 10054b0:	48ad      	ldr	r0, [pc, #692]	; (0x1005768)
 10054b2:	6880      	ldr	r0, [r0, #8]
 10054b4:	eb00 1002 	add.w	r0, r0, r2, lsl #4
 10054b8:	6882      	ldr	r2, [r0, #8]
 10054ba:	4bac      	ldr	r3, [pc, #688]	; (0x100576c)
 10054bc:	401a      	ands	r2, r3
 10054be:	4311      	orrs	r1, r2
 10054c0:	6081      	str	r1, [r0, #8]
 10054c2:	4770      	bx	lr
 10054c4:	b4f0      	push	{r4, r5, r6, r7}
 10054c6:	f000 0c3f 	and.w	ip, r0, #63	; 0x3f
 10054ca:	48a7      	ldr	r0, [pc, #668]	; (0x1005768)
 10054cc:	9d04      	ldr	r5, [sp, #16]
 10054ce:	6886      	ldr	r6, [r0, #8]
 10054d0:	eb06 100c 	add.w	r0, r6, ip, lsl #4
 10054d4:	6884      	ldr	r4, [r0, #8]
 10054d6:	f01c 0f20 	tst.w	ip, #32
 10054da:	f024 04f7 	bic.w	r4, r4, #247	; 0xf7
 10054de:	f424 547c 	bic.w	r4, r4, #16128	; 0x3f00
 10054e2:	d004      	beq.n	0x10054ee
 10054e4:	2904      	cmp	r1, #4
 10054e6:	bf14      	ite	ne
 10054e8:	2906      	cmpne	r1, #6
 10054ea:	f041 0101 	orreq.w	r1, r1, #1
 10054ee:	f06f 070f 	mvn.w	r7, #15
 10054f2:	eb07 1705 	add.w	r7, r7, r5, lsl #4
 10054f6:	430f      	orrs	r7, r1
 10054f8:	433c      	orrs	r4, r7
 10054fa:	f004 6740 	and.w	r7, r4, #201326592	; 0xc000000
 10054fe:	f1b7 6f40 	cmp.w	r7, #201326592	; 0xc000000
 1005502:	d004      	beq.n	0x100550e
 1005504:	0ebf      	lsrs	r7, r7, #26
 1005506:	fa05 f707 	lsl.w	r7, r5, r7
 100550a:	443a      	add	r2, r7
 100550c:	1e52      	subs	r2, r2, #1
 100550e:	6002      	str	r2, [r0, #0]
 1005510:	f004 4240 	and.w	r2, r4, #3221225472	; 0xc0000000
 1005514:	f1b2 4f40 	cmp.w	r2, #3221225472	; 0xc0000000
 1005518:	d00e      	beq.n	0x1005538
 100551a:	2904      	cmp	r1, #4
 100551c:	bf11      	iteee	ne
 100551e:	2906      	cmpne	r1, #6
 1005520:	f04c 0120 	orreq.w	r1, ip, #32
 1005524:	eb06 1101 	addeq.w	r1, r6, r1, lsl #4
 1005528:	f101 030c 	addeq.w	r3, r1, #12
 100552c:	bf1f      	itttt	ne
 100552e:	0f91      	lsrne	r1, r2, #30
 1005530:	fa05 f101 	lslne.w	r1, r5, r1
 1005534:	4419      	addne	r1, r3
 1005536:	1e4b      	subne	r3, r1, #1
 1005538:	6084      	str	r4, [r0, #8]
 100553a:	6043      	str	r3, [r0, #4]
 100553c:	bcf0      	pop	{r4, r5, r6, r7}
 100553e:	4770      	bx	lr
 1005540:	b410      	push	{r4}
 1005542:	f000 041f 	and.w	r4, r0, #31
 1005546:	4888      	ldr	r0, [pc, #544]	; (0x1005768)
 1005548:	f8d0 c008 	ldr.w	ip, [r0, #8]
 100554c:	eb02 1001 	add.w	r0, r2, r1, lsl #4
 1005550:	1f02      	subs	r2, r0, #4
 1005552:	eb0c 1004 	add.w	r0, ip, r4, lsl #4
 1005556:	0189      	lsls	r1, r1, #6
 1005558:	6002      	str	r2, [r0, #0]
 100555a:	f044 0220 	orr.w	r2, r4, #32
 100555e:	eb0c 1202 	add.w	r2, ip, r2, lsl #4
 1005562:	320c      	adds	r2, #12
 1005564:	6042      	str	r2, [r0, #4]
 1005566:	f1a1 0210 	sub.w	r2, r1, #16
 100556a:	2b00      	cmp	r3, #0
 100556c:	bf14      	ite	ne
 100556e:	2106      	movne	r1, #6
 1005570:	2104      	moveq	r1, #4
 1005572:	4311      	orrs	r1, r2
 1005574:	f441 4100 	orr.w	r1, r1, #32768	; 0x8000
 1005578:	f041 412a 	orr.w	r1, r1, #2852126720	; 0xaa000000
 100557c:	6081      	str	r1, [r0, #8]
 100557e:	bc10      	pop	{r4}
 1005580:	4770      	bx	lr
 1005582:	4979      	ldr	r1, [pc, #484]	; (0x1005768)
 1005584:	f000 003f 	and.w	r0, r0, #63	; 0x3f
 1005588:	6889      	ldr	r1, [r1, #8]
 100558a:	eb01 1000 	add.w	r0, r1, r0, lsl #4
 100558e:	6880      	ldr	r0, [r0, #8]
 1005590:	f643 71f7 	movw	r1, #16375	; 0x3ff7
 1005594:	4008      	ands	r0, r1
 1005596:	bf1c      	itt	ne
 1005598:	0900      	lsrne	r0, r0, #4
 100559a:	1c40      	addne	r0, r0, #1
 100559c:	4770      	bx	lr
 100559e:	f000 013f 	and.w	r1, r0, #63	; 0x3f
 10055a2:	4871      	ldr	r0, [pc, #452]	; (0x1005768)
 10055a4:	6880      	ldr	r0, [r0, #8]
 10055a6:	eb00 1001 	add.w	r0, r0, r1, lsl #4
 10055aa:	6880      	ldr	r0, [r0, #8]
 10055ac:	f000 0007 	and.w	r0, r0, #7
 10055b0:	f020 0101 	bic.w	r1, r0, #1
 10055b4:	2904      	cmp	r1, #4
 10055b6:	bf14      	ite	ne
 10055b8:	2906      	cmpne	r1, #6
 10055ba:	f020 0001 	biceq.w	r0, r0, #1
 10055be:	4770      	bx	lr
 10055c0:	496b      	ldr	r1, [pc, #428]	; (0x1005770)
 10055c2:	680a      	ldr	r2, [r1, #0]
 10055c4:	ea42 0000 	orr.w	r0, r2, r0
 10055c8:	6008      	str	r0, [r1, #0]
 10055ca:	4770      	bx	lr
 10055cc:	4968      	ldr	r1, [pc, #416]	; (0x1005770)
 10055ce:	680a      	ldr	r2, [r1, #0]
 10055d0:	ea22 0000 	bic.w	r0, r2, r0
 10055d4:	6008      	str	r0, [r1, #0]
 10055d6:	4770      	bx	lr
 10055d8:	4866      	ldr	r0, [pc, #408]	; (0x1005774)
 10055da:	6800      	ldr	r0, [r0, #0]
 10055dc:	4770      	bx	lr
 10055de:	4965      	ldr	r1, [pc, #404]	; (0x1005774)
 10055e0:	6008      	str	r0, [r1, #0]
 10055e2:	4770      	bx	lr
 10055e4:	b2c1      	uxtb	r1, r0
 10055e6:	0c02      	lsrs	r2, r0, #16
 10055e8:	4b63      	ldr	r3, [pc, #396]	; (0x1005778)
 10055ea:	08c8      	lsrs	r0, r1, #3
 10055ec:	eb03 0080 	add.w	r0, r3, r0, lsl #2
 10055f0:	0749      	lsls	r1, r1, #29
 10055f2:	6803      	ldr	r3, [r0, #0]
 10055f4:	0ec9      	lsrs	r1, r1, #27
 10055f6:	f04f 0c0f 	mov.w	ip, #15
 10055fa:	fa0c fc01 	lsl.w	ip, ip, r1
 10055fe:	ea23 030c 	bic.w	r3, r3, ip
 1005602:	fa02 f101 	lsl.w	r1, r2, r1
 1005606:	4319      	orrs	r1, r3
 1005608:	6001      	str	r1, [r0, #0]
 100560a:	4770      	bx	lr
 100560c:	b410      	push	{r4}
 100560e:	f890 c00e 	ldrb.w	ip, [r0, #14]
 1005612:	9c01      	ldr	r4, [sp, #4]
 1005614:	7381      	strb	r1, [r0, #14]
 1005616:	2c01      	cmp	r4, #1
 1005618:	bf0c      	ite	eq
 100561a:	5483      	strbeq	r3, [r0, r2]
 100561c:	5283      	strhne	r3, [r0, r2]
 100561e:	f880 c00e 	strb.w	ip, [r0, #14]
 1005622:	bc10      	pop	{r4}
 1005624:	4770      	bx	lr
 1005626:	f890 c00e 	ldrb.w	ip, [r0, #14]
 100562a:	7381      	strb	r1, [r0, #14]
 100562c:	2b01      	cmp	r3, #1
 100562e:	bf0e      	itee	eq
 1005630:	5c81      	ldrbeq	r1, [r0, r2]
 1005632:	5a81      	ldrhne	r1, [r0, r2]
 1005634:	b2c9      	uxtbne	r1, r1
 1005636:	f880 c00e 	strb.w	ip, [r0, #14]
 100563a:	4608      	mov	r0, r1
 100563c:	4770      	bx	lr
 100563e:	7800      	ldrb	r0, [r0, #0]
 1005640:	4770      	bx	lr
 1005642:	7001      	strb	r1, [r0, #0]
 1005644:	4770      	bx	lr
 1005646:	7841      	ldrb	r1, [r0, #1]
 1005648:	f041 0140 	orr.w	r1, r1, #64	; 0x40
 100564c:	7041      	strb	r1, [r0, #1]
 100564e:	4770      	bx	lr
 1005650:	7841      	ldrb	r1, [r0, #1]
 1005652:	f021 0140 	bic.w	r1, r1, #64	; 0x40
 1005656:	7041      	strb	r1, [r0, #1]
 1005658:	4770      	bx	lr
 100565a:	f8d3 c000 	ldr.w	ip, [r3]
 100565e:	4408      	add	r0, r1
 1005660:	f41c 5f00 	tst.w	ip, #8192	; 0x2000
 1005664:	d023      	beq.n	0x10056ae
 1005666:	f44f 5100 	mov.w	r1, #8192	; 0x2000
 100566a:	6019      	str	r1, [r3, #0]
 100566c:	f8b0 1100 	ldrh.w	r1, [r0, #256]	; 0x100
 1005670:	6011      	str	r1, [r2, #0]
 1005672:	f890 0103 	ldrb.w	r0, [r0, #259]	; 0x103
 1005676:	f010 0f80 	tst.w	r0, #128	; 0x80
 100567a:	d003      	beq.n	0x1005684
 100567c:	6819      	ldr	r1, [r3, #0]
 100567e:	f041 0101 	orr.w	r1, r1, #1
 1005682:	6019      	str	r1, [r3, #0]
 1005684:	f010 0f10 	tst.w	r0, #16
 1005688:	d008      	beq.n	0x100569c
 100568a:	6819      	ldr	r1, [r3, #0]
 100568c:	f010 0f04 	tst.w	r0, #4
 1005690:	bf14      	ite	ne
 1005692:	f041 0110 	orrne.w	r1, r1, #16
 1005696:	f041 0108 	orreq.w	r1, r1, #8
 100569a:	6019      	str	r1, [r3, #0]
 100569c:	f010 0f40 	tst.w	r0, #64	; 0x40
 10056a0:	bf18      	it	ne
 10056a2:	4770      	bxne	lr
 10056a4:	6818      	ldr	r0, [r3, #0]
 10056a6:	f440 7080 	orr.w	r0, r0, #256	; 0x100
 10056aa:	6018      	str	r0, [r3, #0]
 10056ac:	4770      	bx	lr
 10056ae:	2100      	movs	r1, #0
 10056b0:	6019      	str	r1, [r3, #0]
 10056b2:	f8b0 1104 	ldrh.w	r1, [r0, #260]	; 0x104
 10056b6:	6011      	str	r1, [r2, #0]
 10056b8:	f890 0107 	ldrb.w	r0, [r0, #263]	; 0x107
 10056bc:	f010 0f80 	tst.w	r0, #128	; 0x80
 10056c0:	d003      	beq.n	0x10056ca
 10056c2:	6819      	ldr	r1, [r3, #0]
 10056c4:	f041 0104 	orr.w	r1, r1, #4
 10056c8:	6019      	str	r1, [r3, #0]
 10056ca:	f010 0f20 	tst.w	r0, #32
 10056ce:	d008      	beq.n	0x10056e2
 10056d0:	6819      	ldr	r1, [r3, #0]
 10056d2:	f010 0f08 	tst.w	r0, #8
 10056d6:	bf14      	ite	ne
 10056d8:	f041 0110 	orrne.w	r1, r1, #16
 10056dc:	f041 0108 	orreq.w	r1, r1, #8
 10056e0:	6019      	str	r1, [r3, #0]
 10056e2:	f010 0f40 	tst.w	r0, #64	; 0x40
 10056e6:	d0dd      	beq.n	0x10056a4
 10056e8:	4770      	bx	lr
 10056ea:	f413 5f00 	tst.w	r3, #8192	; 0x2000
 10056ee:	b292      	uxth	r2, r2
 10056f0:	4401      	add	r1, r0
 10056f2:	d01c      	beq.n	0x100572e
 10056f4:	f8a1 2100 	strh.w	r2, [r1, #256]	; 0x100
 10056f8:	2000      	movs	r0, #0
 10056fa:	f013 0f01 	tst.w	r3, #1
 10056fe:	bf18      	it	ne
 1005700:	2080      	movne	r0, #128	; 0x80
 1005702:	f013 0f10 	tst.w	r3, #16
 1005706:	bf18      	it	ne
 1005708:	f040 0014 	orrne.w	r0, r0, #20
 100570c:	d104      	bne.n	0x1005718
 100570e:	f013 0f08 	tst.w	r3, #8
 1005712:	bf18      	it	ne
 1005714:	f040 0010 	orrne.w	r0, r0, #16
 1005718:	f413 7f40 	tst.w	r3, #768	; 0x300
 100571c:	bf08      	it	eq
 100571e:	f040 0040 	orreq.w	r0, r0, #64	; 0x40
 1005722:	f881 0103 	strb.w	r0, [r1, #259]	; 0x103
 1005726:	2040      	movs	r0, #64	; 0x40
 1005728:	f881 0102 	strb.w	r0, [r1, #258]	; 0x102
 100572c:	4770      	bx	lr
 100572e:	f8a1 2104 	strh.w	r2, [r1, #260]	; 0x104
 1005732:	2000      	movs	r0, #0
 1005734:	f013 0f04 	tst.w	r3, #4
 1005738:	bf18      	it	ne
 100573a:	2080      	movne	r0, #128	; 0x80
 100573c:	f013 0f10 	tst.w	r3, #16
 1005740:	bf18      	it	ne
 1005742:	f040 0028 	orrne.w	r0, r0, #40	; 0x28
 1005746:	d104      	bne.n	0x1005752
 1005748:	f013 0f08 	tst.w	r3, #8
 100574c:	bf18      	it	ne
 100574e:	f040 0020 	orrne.w	r0, r0, #32
 1005752:	f413 7f40 	tst.w	r3, #768	; 0x300
 1005756:	bf08      	it	eq
 1005758:	f040 0040 	orreq.w	r0, r0, #64	; 0x40
 100575c:	f881 0107 	strb.w	r0, [r1, #263]	; 0x107
 1005760:	2080      	movs	r0, #128	; 0x80
 1005762:	f881 0106 	strb.w	r0, [r1, #262]	; 0x106
 1005766:	4770      	bx	lr
 1005768:	f000 400f 	and.w	r0, r0, #2399141888	; 0x8f000000
 100576c:	3ff7      	subs	r7, #247	; 0xf7
 100576e:	00fc      	lsls	r4, r7, #3
 1005770:	f500 400f 	add.w	r0, r0, #36608	; 0x8f00
 1005774:	f504 400f 	add.w	r0, r4, #36608	; 0x8f00
 1005778:	f510 400f 	adds.w	r0, r0, #36608	; 0x8f00
 100577c:	b139      	cbz	r1, 0x100578e
 100577e:	4408      	add	r0, r1
 1005780:	f890 1106 	ldrb.w	r1, [r0, #262]	; 0x106
 1005784:	f021 0101 	bic.w	r1, r1, #1
 1005788:	f880 1106 	strb.w	r1, [r0, #262]	; 0x106
 100578c:	4770      	bx	lr
 100578e:	2a00      	cmp	r2, #0
 1005790:	bf14      	ite	ne
 1005792:	2108      	movne	r1, #8
 1005794:	2100      	moveq	r1, #0
 1005796:	f041 0140 	orr.w	r1, r1, #64	; 0x40
 100579a:	f880 1102 	strb.w	r1, [r0, #258]	; 0x102
 100579e:	4770      	bx	lr
 10057a0:	2900      	cmp	r1, #0
 10057a2:	bf04      	itt	eq
 10057a4:	f890 1102 	ldrbeq.w	r1, [r0, #258]	; 0x102
 10057a8:	f041 0160 	orreq.w	r1, r1, #96	; 0x60
 10057ac:	d00f      	beq.n	0x10057ce
 10057ae:	4408      	add	r0, r1
 10057b0:	f5b2 5f00 	cmp.w	r2, #8192	; 0x2000
 10057b4:	bf07      	ittee	eq
 10057b6:	f890 1102 	ldrbeq.w	r1, [r0, #258]	; 0x102
 10057ba:	f041 0110 	orreq.w	r1, r1, #16
 10057be:	f890 1106 	ldrbne.w	r1, [r0, #262]	; 0x106
 10057c2:	f041 0120 	orrne.w	r1, r1, #32
 10057c6:	bf1c      	itt	ne
 10057c8:	f880 1106 	strbne.w	r1, [r0, #262]	; 0x106
 10057cc:	4770      	bxne	lr
 10057ce:	f880 1102 	strb.w	r1, [r0, #258]	; 0x102
 10057d2:	4770      	bx	lr
 10057d4:	2900      	cmp	r1, #0
 10057d6:	bf04      	itt	eq
 10057d8:	f890 1102 	ldrbeq.w	r1, [r0, #258]	; 0x102
 10057dc:	f021 0104 	biceq.w	r1, r1, #4
 10057e0:	d01a      	beq.n	0x1005818
 10057e2:	4408      	add	r0, r1
 10057e4:	f5b2 5f00 	cmp.w	r2, #8192	; 0x2000
 10057e8:	d00c      	beq.n	0x1005804
 10057ea:	f890 1106 	ldrb.w	r1, [r0, #262]	; 0x106
 10057ee:	f021 0160 	bic.w	r1, r1, #96	; 0x60
 10057f2:	f880 1106 	strb.w	r1, [r0, #262]	; 0x106
 10057f6:	f890 1106 	ldrb.w	r1, [r0, #262]	; 0x106
 10057fa:	f041 0180 	orr.w	r1, r1, #128	; 0x80
 10057fe:	f880 1106 	strb.w	r1, [r0, #262]	; 0x106
 1005802:	4770      	bx	lr
 1005804:	f890 1102 	ldrb.w	r1, [r0, #258]	; 0x102
 1005808:	f021 0130 	bic.w	r1, r1, #48	; 0x30
 100580c:	f880 1102 	strb.w	r1, [r0, #258]	; 0x102
 1005810:	f890 1102 	ldrb.w	r1, [r0, #258]	; 0x102
 1005814:	f041 0140 	orr.w	r1, r1, #64	; 0x40
 1005818:	f880 1102 	strb.w	r1, [r0, #258]	; 0x102
 100581c:	4770      	bx	lr
 100581e:	b181      	cbz	r1, 0x1005842
 1005820:	4408      	add	r0, r1
 1005822:	f890 1102 	ldrb.w	r1, [r0, #258]	; 0x102
 1005826:	f002 0324 	and.w	r3, r2, #36	; 0x24
 100582a:	4399      	bics	r1, r3
 100582c:	f880 1102 	strb.w	r1, [r0, #258]	; 0x102
 1005830:	f890 1106 	ldrb.w	r1, [r0, #262]	; 0x106
 1005834:	f402 0298 	and.w	r2, r2, #4980736	; 0x4c0000
 1005838:	ea21 4112 	bic.w	r1, r1, r2, lsr #16
 100583c:	f880 1106 	strb.w	r1, [r0, #262]	; 0x106
 1005840:	4770      	bx	lr
 1005842:	f012 0f01 	tst.w	r2, #1
 1005846:	d005      	beq.n	0x1005854
 1005848:	f890 1102 	ldrb.w	r1, [r0, #258]	; 0x102
 100584c:	f041 0140 	orr.w	r1, r1, #64	; 0x40
 1005850:	f880 1102 	strb.w	r1, [r0, #258]	; 0x102
 1005854:	f012 0f10 	tst.w	r2, #16
 1005858:	d005      	beq.n	0x1005866
 100585a:	f890 1102 	ldrb.w	r1, [r0, #258]	; 0x102
 100585e:	f041 0180 	orr.w	r1, r1, #128	; 0x80
 1005862:	f880 1102 	strb.w	r1, [r0, #258]	; 0x102
 1005866:	f012 0f04 	tst.w	r2, #4
 100586a:	bf08      	it	eq
 100586c:	4770      	bxeq	lr
 100586e:	f890 1102 	ldrb.w	r1, [r0, #258]	; 0x102
 1005872:	f021 0104 	bic.w	r1, r1, #4
 1005876:	f880 1102 	strb.w	r1, [r0, #258]	; 0x102
 100587a:	4770      	bx	lr
 100587c:	2103      	movs	r1, #3
 100587e:	f880 141c 	strb.w	r1, [r0, #1052]	; 0x41c
 1005882:	4770      	bx	lr
 1005884:	2900      	cmp	r1, #0
 1005886:	bf0c      	ite	eq
 1005888:	f44f 7281 	moveq.w	r2, #258	; 0x102
 100588c:	f501 7283 	addne.w	r2, r1, #262	; 0x106
 1005890:	5a82      	ldrh	r2, [r0, r2]
 1005892:	f012 0f01 	tst.w	r2, #1
 1005896:	bf0e      	itee	eq
 1005898:	2000      	moveq	r0, #0
 100589a:	4408      	addne	r0, r1
 100589c:	f8b0 0108 	ldrhne.w	r0, [r0, #264]	; 0x108
 10058a0:	4770      	bx	lr
 10058a2:	b410      	push	{r4}
 10058a4:	2900      	cmp	r1, #0
 10058a6:	bf0c      	ite	eq
 10058a8:	f44f 7c81 	moveq.w	ip, #258	; 0x102
 10058ac:	f501 7c83 	addne.w	ip, r1, #262	; 0x106
 10058b0:	f830 c00c 	ldrh.w	ip, [r0, ip]
 10058b4:	f01c 0f01 	tst.w	ip, #1
 10058b8:	d018      	beq.n	0x10058ec
 10058ba:	eb00 0c01 	add.w	ip, r0, r1
 10058be:	f8bc c108 	ldrh.w	ip, [ip, #264]	; 0x108
 10058c2:	681c      	ldr	r4, [r3, #0]
 10058c4:	4564      	cmp	r4, ip
 10058c6:	bf98      	it	ls
 10058c8:	46a4      	movls	ip, r4
 10058ca:	eb00 0091 	add.w	r0, r0, r1, lsr #2
 10058ce:	3020      	adds	r0, #32
 10058d0:	f8c3 c000 	str.w	ip, [r3]
 10058d4:	f1bc 0f00 	cmp.w	ip, #0
 10058d8:	d005      	beq.n	0x10058e6
 10058da:	7801      	ldrb	r1, [r0, #0]
 10058dc:	f802 1b01 	strb.w	r1, [r2], #1
 10058e0:	f1bc 0c01 	subs.w	ip, ip, #1
 10058e4:	d1f9      	bne.n	0x10058da
 10058e6:	bc10      	pop	{r4}
 10058e8:	2000      	movs	r0, #0
 10058ea:	4770      	bx	lr
 10058ec:	2000      	movs	r0, #0
 10058ee:	6018      	str	r0, [r3, #0]
 10058f0:	bc10      	pop	{r4}
 10058f2:	1e40      	subs	r0, r0, #1
 10058f4:	4770      	bx	lr
 10058f6:	b410      	push	{r4}
 10058f8:	2900      	cmp	r1, #0
 10058fa:	bf0c      	ite	eq
 10058fc:	f04f 0c02 	moveq.w	ip, #2
 1005900:	f04f 0c01 	movne.w	ip, #1
 1005904:	1844      	adds	r4, r0, r1
 1005906:	f894 4102 	ldrb.w	r4, [r4, #258]	; 0x102
 100590a:	ea14 0f0c 	tst.w	r4, ip
 100590e:	bf1e      	ittt	ne
 1005910:	f04f 30ff 	movne.w	r0, #4294967295	; 0xffffffff
 1005914:	bc10      	popne	{r4}
 1005916:	4770      	bxne	lr
 1005918:	eb00 0091 	add.w	r0, r0, r1, lsr #2
 100591c:	3020      	adds	r0, #32
 100591e:	b123      	cbz	r3, 0x100592a
 1005920:	f812 1b01 	ldrb.w	r1, [r2], #1
 1005924:	7001      	strb	r1, [r0, #0]
 1005926:	1e5b      	subs	r3, r3, #1
 1005928:	d1fa      	bne.n	0x1005920
 100592a:	bc10      	pop	{r4}
 100592c:	2000      	movs	r0, #0
 100592e:	4770      	bx	lr
 1005930:	2900      	cmp	r1, #0
 1005932:	bf0c      	ite	eq
 1005934:	b2d2      	uxtbeq	r2, r2
 1005936:	f3c2 2207 	ubfxne	r2, r2, #8, #8
 100593a:	4408      	add	r0, r1
 100593c:	f890 1102 	ldrb.w	r1, [r0, #258]	; 0x102
 1005940:	f011 0f02 	tst.w	r1, #2
 1005944:	bf12      	itee	ne
 1005946:	f04f 30ff 	movne.w	r0, #4294967295	; 0xffffffff
 100594a:	f880 2102 	strbeq.w	r2, [r0, #258]	; 0x102
 100594e:	2000      	moveq	r0, #0
 1005950:	4770      	bx	lr
 1005952:	f412 5f00 	tst.w	r2, #8192	; 0x2000
 1005956:	4408      	add	r0, r1
 1005958:	bf1d      	ittte	ne
 100595a:	f890 1102 	ldrbne.w	r1, [r0, #258]	; 0x102
 100595e:	f041 0140 	orrne.w	r1, r1, #64	; 0x40
 1005962:	f880 1102 	strbne.w	r1, [r0, #258]	; 0x102
 1005966:	f890 1106 	ldrbeq.w	r1, [r0, #262]	; 0x106
 100596a:	bf04      	itt	eq
 100596c:	f041 0180 	orreq.w	r1, r1, #128	; 0x80
 1005970:	f880 1106 	strbeq.w	r1, [r0, #262]	; 0x106
 1005974:	4770      	bx	lr
 1005976:	0092      	lsls	r2, r2, #2
 1005978:	230f      	movs	r3, #15
 100597a:	f8d0 c450 	ldr.w	ip, [r0, #1104]	; 0x450
 100597e:	4093      	lsls	r3, r2
 1005980:	0909      	lsrs	r1, r1, #4
 1005982:	ea2c 0303 	bic.w	r3, ip, r3
 1005986:	4091      	lsls	r1, r2
 1005988:	4319      	orrs	r1, r3
 100598a:	f8c0 1450 	str.w	r1, [r0, #1104]	; 0x450
 100598e:	4770      	bx	lr
 1005990:	f412 5f00 	tst.w	r2, #8192	; 0x2000
 1005994:	4408      	add	r0, r1
 1005996:	bf1d      	ittte	ne
 1005998:	f890 1103 	ldrbne.w	r1, [r0, #259]	; 0x103
 100599c:	f021 0110 	bicne.w	r1, r1, #16
 10059a0:	f880 1103 	strbne.w	r1, [r0, #259]	; 0x103
 10059a4:	f890 1107 	ldrbeq.w	r1, [r0, #263]	; 0x107
 10059a8:	bf04      	itt	eq
 10059aa:	f021 0120 	biceq.w	r1, r1, #32
 10059ae:	f880 1107 	strbeq.w	r1, [r0, #263]	; 0x107
 10059b2:	4770      	bx	lr
 10059b4:	f412 5f00 	tst.w	r2, #8192	; 0x2000
 10059b8:	4408      	add	r0, r1
 10059ba:	bf1d      	ittte	ne
 10059bc:	f890 1103 	ldrbne.w	r1, [r0, #259]	; 0x103
 10059c0:	f041 0110 	orrne.w	r1, r1, #16
 10059c4:	f880 1103 	strbne.w	r1, [r0, #259]	; 0x103
 10059c8:	f890 1107 	ldrbeq.w	r1, [r0, #263]	; 0x107
 10059cc:	bf04      	itt	eq
 10059ce:	f041 0120 	orreq.w	r1, r1, #32
 10059d2:	f880 1107 	strbeq.w	r1, [r0, #263]	; 0x107
 10059d6:	4770      	bx	lr
 10059d8:	4408      	add	r0, r1
 10059da:	f8b0 1102 	ldrh.w	r1, [r0, #258]	; 0x102
 10059de:	f8b0 0106 	ldrh.w	r0, [r0, #262]	; 0x106
 10059e2:	ea41 4000 	orr.w	r0, r1, r0, lsl #16
 10059e6:	4770      	bx	lr
 10059e8:	eb00 0091 	add.w	r0, r0, r1, lsr #2
 10059ec:	3020      	adds	r0, #32
 10059ee:	4770      	bx	lr
 10059f0:	e92d 41f0 	stmdb	sp!, {r4, r5, r6, r7, r8, lr}
 10059f4:	4607      	mov	r7, r0
 10059f6:	9806      	ldr	r0, [sp, #24]
 10059f8:	461d      	mov	r5, r3
 10059fa:	4614      	mov	r4, r2
 10059fc:	f410 5f00 	tst.w	r0, #8192	; 0x2000
 1005a00:	ea4f 1611 	mov.w	r6, r1, lsr #4
 1005a04:	f04f 0302 	mov.w	r3, #2
 1005a08:	d00f      	beq.n	0x1005a2a
 1005a0a:	2264      	movs	r2, #100	; 0x64
 1005a0c:	4631      	mov	r1, r6
 1005a0e:	4638      	mov	r0, r7
 1005a10:	f7ff fe09 	bl	0x1005626
 1005a14:	00c0      	lsls	r0, r0, #3
 1005a16:	6020      	str	r0, [r4, #0]
 1005a18:	2301      	movs	r3, #1
 1005a1a:	2262      	movs	r2, #98	; 0x62
 1005a1c:	4631      	mov	r1, r6
 1005a1e:	4638      	mov	r0, r7
 1005a20:	f7ff fe01 	bl	0x1005626
 1005a24:	6028      	str	r0, [r5, #0]
 1005a26:	e8bd 81f0 	ldmia.w	sp!, {r4, r5, r6, r7, r8, pc}
 1005a2a:	2266      	movs	r2, #102	; 0x66
 1005a2c:	4631      	mov	r1, r6
 1005a2e:	4638      	mov	r0, r7
 1005a30:	f7ff fdf9 	bl	0x1005626
 1005a34:	00c0      	lsls	r0, r0, #3
 1005a36:	6020      	str	r0, [r4, #0]
 1005a38:	2301      	movs	r3, #1
 1005a3a:	2263      	movs	r2, #99	; 0x63
 1005a3c:	4631      	mov	r1, r6
 1005a3e:	4638      	mov	r0, r7
 1005a40:	f7ff fdf1 	bl	0x1005626
 1005a44:	6028      	str	r0, [r5, #0]
 1005a46:	e8bd 81f0 	ldmia.w	sp!, {r4, r5, r6, r7, r8, pc}
 1005a4a:	b5f8      	push	{r3, r4, r5, r6, r7, lr}
 1005a4c:	4606      	mov	r6, r0
 1005a4e:	4618      	mov	r0, r3
 1005a50:	9b06      	ldr	r3, [sp, #24]
 1005a52:	ea4f 04d2 	mov.w	r4, r2, lsr #3
 1005a56:	f413 5f00 	tst.w	r3, #8192	; 0x2000
 1005a5a:	f04f 0301 	mov.w	r3, #1
 1005a5e:	9300      	str	r3, [sp, #0]
 1005a60:	ea4f 1511 	mov.w	r5, r1, lsr #4
 1005a64:	4603      	mov	r3, r0
 1005a66:	d00d      	beq.n	0x1005a84
 1005a68:	2262      	movs	r2, #98	; 0x62
 1005a6a:	4629      	mov	r1, r5
 1005a6c:	4630      	mov	r0, r6
 1005a6e:	f7ff fdcd 	bl	0x100560c
 1005a72:	2302      	movs	r3, #2
 1005a74:	9300      	str	r3, [sp, #0]
 1005a76:	4623      	mov	r3, r4
 1005a78:	2264      	movs	r2, #100	; 0x64
 1005a7a:	4629      	mov	r1, r5
 1005a7c:	4630      	mov	r0, r6
 1005a7e:	f7ff fdc5 	bl	0x100560c
 1005a82:	bdf8      	pop	{r3, r4, r5, r6, r7, pc}
 1005a84:	2263      	movs	r2, #99	; 0x63
 1005a86:	4629      	mov	r1, r5
 1005a88:	4630      	mov	r0, r6
 1005a8a:	f7ff fdbf 	bl	0x100560c
 1005a8e:	2302      	movs	r3, #2
 1005a90:	9300      	str	r3, [sp, #0]
 1005a92:	4623      	mov	r3, r4
 1005a94:	2266      	movs	r2, #102	; 0x66
 1005a96:	4629      	mov	r1, r5
 1005a98:	4630      	mov	r0, r6
 1005a9a:	f7ff fdb7 	bl	0x100560c
 1005a9e:	bdf8      	pop	{r3, r4, r5, r6, r7, pc}
 1005aa0:	b181      	cbz	r1, 0x1005ac4
 1005aa2:	f412 5f00 	tst.w	r2, #8192	; 0x2000
 1005aa6:	4408      	add	r0, r1
 1005aa8:	d015      	beq.n	0x1005ad6
 1005aaa:	f890 1102 	ldrb.w	r1, [r0, #258]	; 0x102
 1005aae:	f011 0f01 	tst.w	r1, #1
 1005ab2:	bf08      	it	eq
 1005ab4:	4770      	bxeq	lr
 1005ab6:	f890 1102 	ldrb.w	r1, [r0, #258]	; 0x102
 1005aba:	f041 0108 	orr.w	r1, r1, #8
 1005abe:	f880 1102 	strb.w	r1, [r0, #258]	; 0x102
 1005ac2:	4770      	bx	lr
 1005ac4:	f890 1102 	ldrb.w	r1, [r0, #258]	; 0x102
 1005ac8:	f011 0f03 	tst.w	r1, #3
 1005acc:	bf1c      	itt	ne
 1005ace:	2101      	movne	r1, #1
 1005ad0:	f880 1103 	strbne.w	r1, [r0, #259]	; 0x103
 1005ad4:	4770      	bx	lr
 1005ad6:	f890 1106 	ldrb.w	r1, [r0, #262]	; 0x106
 1005ada:	f011 0f01 	tst.w	r1, #1
 1005ade:	bf08      	it	eq
 1005ae0:	4770      	bxeq	lr
 1005ae2:	f890 1106 	ldrb.w	r1, [r0, #262]	; 0x106
 1005ae6:	f041 0110 	orr.w	r1, r1, #16
 1005aea:	f880 1106 	strb.w	r1, [r0, #262]	; 0x106
 1005aee:	4770      	bx	lr
 1005af0:	8980      	ldrh	r0, [r0, #12]
 1005af2:	4770      	bx	lr
 1005af4:	f412 5f00 	tst.w	r2, #8192	; 0x2000
 1005af8:	eb00 0051 	add.w	r0, r0, r1, lsr #1
 1005afc:	bf14      	ite	ne
 1005afe:	f890 0080 	ldrbne.w	r0, [r0, #128]	; 0x80
 1005b02:	f890 0084 	ldrbeq.w	r0, [r0, #132]	; 0x84
 1005b06:	4770      	bx	lr
 1005b08:	f413 5f00 	tst.w	r3, #8192	; 0x2000
 1005b0c:	b2d2      	uxtb	r2, r2
 1005b0e:	eb00 0051 	add.w	r0, r0, r1, lsr #1
 1005b12:	bf14      	ite	ne
 1005b14:	f880 2080 	strbne.w	r2, [r0, #128]	; 0x80
 1005b18:	f880 2084 	strbeq.w	r2, [r0, #132]	; 0x84
 1005b1c:	4770      	bx	lr
 1005b1e:	b430      	push	{r4, r5}
 1005b20:	b2dd      	uxtb	r5, r3
 1005b22:	e9dd 4c02 	ldrd	r4, ip, [sp, #8]
 1005b26:	2900      	cmp	r1, #0
 1005b28:	d02e      	beq.n	0x1005b88
 1005b2a:	f41c 5f80 	tst.w	ip, #4096	; 0x1000
 1005b2e:	bf0c      	ite	eq
 1005b30:	f044 03c0 	orreq.w	r3, r4, #192	; 0xc0
 1005b34:	f044 0380 	orrne.w	r3, r4, #128	; 0x80
 1005b38:	f41c 7440 	ands.w	r4, ip, #768	; 0x300
 1005b3c:	bf08      	it	eq
 1005b3e:	f043 0310 	orreq.w	r3, r3, #16
 1005b42:	d00a      	beq.n	0x1005b5a
 1005b44:	f5b4 7f80 	cmp.w	r4, #256	; 0x100
 1005b48:	bf08      	it	eq
 1005b4a:	f043 0320 	orreq.w	r3, r3, #32
 1005b4e:	d004      	beq.n	0x1005b5a
 1005b50:	f5b4 7f00 	cmp.w	r4, #512	; 0x200
 1005b54:	bf08      	it	eq
 1005b56:	f043 0330 	orreq.w	r3, r3, #48	; 0x30
 1005b5a:	f41c 5f00 	tst.w	ip, #8192	; 0x2000
 1005b5e:	b292      	uxth	r2, r2
 1005b60:	4408      	add	r0, r1
 1005b62:	d025      	beq.n	0x1005bb0
 1005b64:	f880 310a 	strb.w	r3, [r0, #266]	; 0x10a
 1005b68:	f880 510b 	strb.w	r5, [r0, #267]	; 0x10b
 1005b6c:	f8a0 2100 	strh.w	r2, [r0, #256]	; 0x100
 1005b70:	2100      	movs	r1, #0
 1005b72:	f01c 0f01 	tst.w	ip, #1
 1005b76:	bf18      	it	ne
 1005b78:	2180      	movne	r1, #128	; 0x80
 1005b7a:	f01c 0f10 	tst.w	ip, #16
 1005b7e:	bf18      	it	ne
 1005b80:	f041 0114 	orrne.w	r1, r1, #20
 1005b84:	d110      	bne.n	0x1005ba8
 1005b86:	e00a      	b.n	0x1005b9e
 1005b88:	f880 510b 	strb.w	r5, [r0, #267]	; 0x10b
 1005b8c:	f41c 5f80 	tst.w	ip, #4096	; 0x1000
 1005b90:	bf14      	ite	ne
 1005b92:	2180      	movne	r1, #128	; 0x80
 1005b94:	21c0      	moveq	r1, #192	; 0xc0
 1005b96:	f880 110a 	strb.w	r1, [r0, #266]	; 0x10a
 1005b9a:	bc30      	pop	{r4, r5}
 1005b9c:	4770      	bx	lr
 1005b9e:	f01c 0f08 	tst.w	ip, #8
 1005ba2:	bf18      	it	ne
 1005ba4:	f041 0110 	orrne.w	r1, r1, #16
 1005ba8:	f880 1103 	strb.w	r1, [r0, #259]	; 0x103
 1005bac:	bc30      	pop	{r4, r5}
 1005bae:	4770      	bx	lr
 1005bb0:	f880 310c 	strb.w	r3, [r0, #268]	; 0x10c
 1005bb4:	f880 510d 	strb.w	r5, [r0, #269]	; 0x10d
 1005bb8:	f8a0 2104 	strh.w	r2, [r0, #260]	; 0x104
 1005bbc:	2100      	movs	r1, #0
 1005bbe:	f01c 0f04 	tst.w	ip, #4
 1005bc2:	bf18      	it	ne
 1005bc4:	2180      	movne	r1, #128	; 0x80
 1005bc6:	f01c 0f10 	tst.w	ip, #16
 1005bca:	bf18      	it	ne
 1005bcc:	f041 01e8 	orrne.w	r1, r1, #232	; 0xe8
 1005bd0:	d104      	bne.n	0x1005bdc
 1005bd2:	f01c 0f08 	tst.w	ip, #8
 1005bd6:	bf18      	it	ne
 1005bd8:	f041 0120 	orrne.w	r1, r1, #32
 1005bdc:	f880 1107 	strb.w	r1, [r0, #263]	; 0x107
 1005be0:	bc30      	pop	{r4, r5}
 1005be2:	4770      	bx	lr
 1005be4:	b139      	cbz	r1, 0x1005bf6
 1005be6:	4408      	add	r0, r1
 1005be8:	f890 1106 	ldrb.w	r1, [r0, #262]	; 0x106
 1005bec:	f021 0101 	bic.w	r1, r1, #1
 1005bf0:	f880 1106 	strb.w	r1, [r0, #262]	; 0x106
 1005bf4:	4770      	bx	lr
 1005bf6:	f890 1102 	ldrb.w	r1, [r0, #258]	; 0x102
 1005bfa:	f021 0101 	bic.w	r1, r1, #1
 1005bfe:	f880 1102 	strb.w	r1, [r0, #258]	; 0x102
 1005c02:	4770      	bx	lr
 1005c04:	b410      	push	{r4}
 1005c06:	f04f 0c00 	mov.w	ip, #0
 1005c0a:	1844      	adds	r4, r0, r1
 1005c0c:	b162      	cbz	r2, 0x1005c28
 1005c0e:	2900      	cmp	r1, #0
 1005c10:	bf08      	it	eq
 1005c12:	f04f 0c02 	moveq.w	ip, #2
 1005c16:	d015      	beq.n	0x1005c44
 1005c18:	2b00      	cmp	r3, #0
 1005c1a:	bf0c      	ite	eq
 1005c1c:	f04f 0c02 	moveq.w	ip, #2
 1005c20:	f04f 0c01 	movne.w	ip, #1
 1005c24:	d01a      	beq.n	0x1005c5c
 1005c26:	e001      	b.n	0x1005c2c
 1005c28:	b161      	cbz	r1, 0x1005c44
 1005c2a:	b1bb      	cbz	r3, 0x1005c5c
 1005c2c:	f894 0103 	ldrb.w	r0, [r4, #259]	; 0x103
 1005c30:	f020 0003 	bic.w	r0, r0, #3
 1005c34:	ea40 000c 	orr.w	r0, r0, ip
 1005c38:	f040 0002 	orr.w	r0, r0, #2
 1005c3c:	f884 0103 	strb.w	r0, [r4, #259]	; 0x103
 1005c40:	bc10      	pop	{r4}
 1005c42:	4770      	bx	lr
 1005c44:	f890 1103 	ldrb.w	r1, [r0, #259]	; 0x103
 1005c48:	f021 0106 	bic.w	r1, r1, #6
 1005c4c:	ea41 010c 	orr.w	r1, r1, ip
 1005c50:	f041 0104 	orr.w	r1, r1, #4
 1005c54:	f880 1103 	strb.w	r1, [r0, #259]	; 0x103
 1005c58:	bc10      	pop	{r4}
 1005c5a:	4770      	bx	lr
 1005c5c:	f894 0107 	ldrb.w	r0, [r4, #263]	; 0x107
 1005c60:	f020 0006 	bic.w	r0, r0, #6
 1005c64:	ea40 000c 	orr.w	r0, r0, ip
 1005c68:	f040 0004 	orr.w	r0, r0, #4
 1005c6c:	f884 0107 	strb.w	r0, [r4, #263]	; 0x107
 1005c70:	bc10      	pop	{r4}
 1005c72:	4770      	bx	lr
 1005c74:	b161      	cbz	r1, 0x1005c90
 1005c76:	4408      	add	r0, r1
 1005c78:	f890 1102 	ldrb.w	r1, [r0, #258]	; 0x102
 1005c7c:	4391      	bics	r1, r2
 1005c7e:	f880 1102 	strb.w	r1, [r0, #258]	; 0x102
 1005c82:	f890 1106 	ldrb.w	r1, [r0, #262]	; 0x106
 1005c86:	ea21 4112 	bic.w	r1, r1, r2, lsr #16
 1005c8a:	f880 1106 	strb.w	r1, [r0, #262]	; 0x106
 1005c8e:	4770      	bx	lr
 1005c90:	f890 1102 	ldrb.w	r1, [r0, #258]	; 0x102
 1005c94:	4391      	bics	r1, r2
 1005c96:	f880 1102 	strb.w	r1, [r0, #258]	; 0x102
 1005c9a:	4770      	bx	lr
 1005c9c:	f412 5f00 	tst.w	r2, #8192	; 0x2000
 1005ca0:	eb00 0051 	add.w	r0, r0, r1, lsr #1
 1005ca4:	bf14      	ite	ne
 1005ca6:	f890 0082 	ldrbne.w	r0, [r0, #130]	; 0x82
 1005caa:	f890 0086 	ldrbeq.w	r0, [r0, #134]	; 0x86
 1005cae:	4770      	bx	lr
 1005cb0:	b410      	push	{r4}
 1005cb2:	f413 5f00 	tst.w	r3, #8192	; 0x2000
 1005cb6:	b292      	uxth	r2, r2
 1005cb8:	eb00 0c51 	add.w	ip, r0, r1, lsr #1
 1005cbc:	bf14      	ite	ne
 1005cbe:	f8ac 2082 	strhne.w	r2, [ip, #130]	; 0x82
 1005cc2:	f8ac 2086 	strheq.w	r2, [ip, #134]	; 0x86
 1005cc6:	2900      	cmp	r1, #0
 1005cc8:	bf1c      	itt	ne
 1005cca:	bc10      	popne	{r4}
 1005ccc:	4770      	bxne	lr
 1005cce:	f413 5f80 	tst.w	r3, #4096	; 0x1000
 1005cd2:	bf14      	ite	ne
 1005cd4:	2180      	movne	r1, #128	; 0x80
 1005cd6:	21c0      	moveq	r1, #192	; 0xc0
 1005cd8:	f880 110a 	strb.w	r1, [r0, #266]	; 0x10a
 1005cdc:	bc10      	pop	{r4}
 1005cde:	4770      	bx	lr
 1005ce0:	2102      	movs	r1, #2
 1005ce2:	f880 141c 	strb.w	r1, [r0, #1052]	; 0x41c
 1005ce6:	4770      	bx	lr
 1005ce8:	f8b0 1400 	ldrh.w	r1, [r0, #1024]	; 0x400
 1005cec:	f021 0104 	bic.w	r1, r1, #4
 1005cf0:	f8a0 1400 	strh.w	r1, [r0, #1024]	; 0x400
 1005cf4:	4770      	bx	lr
 1005cf6:	f8b0 1400 	ldrh.w	r1, [r0, #1024]	; 0x400
 1005cfa:	f041 0104 	orr.w	r1, r1, #4
 1005cfe:	f8a0 1400 	strh.w	r1, [r0, #1024]	; 0x400
 1005d02:	4770      	bx	lr
 1005d04:	0c0a      	lsrs	r2, r1, #16
 1005d06:	f8c0 2430 	str.w	r2, [r0, #1072]	; 0x430
 1005d0a:	f8b0 2400 	ldrh.w	r2, [r0, #1024]	; 0x400
 1005d0e:	f022 0263 	bic.w	r2, r2, #99	; 0x63
 1005d12:	f422 7240 	bic.w	r2, r2, #768	; 0x300
 1005d16:	4311      	orrs	r1, r2
 1005d18:	f8a0 1400 	strh.w	r1, [r0, #1024]	; 0x400
 1005d1c:	4770      	bx	lr
 1005d1e:	f8b0 1400 	ldrh.w	r1, [r0, #1024]	; 0x400
 1005d22:	f021 0110 	bic.w	r1, r1, #16
 1005d26:	f8a0 1400 	strh.w	r1, [r0, #1024]	; 0x400
 1005d2a:	4770      	bx	lr
 1005d2c:	f8b0 1400 	ldrh.w	r1, [r0, #1024]	; 0x400
 1005d30:	f041 0110 	orr.w	r1, r1, #16
 1005d34:	f8a0 1400 	strh.w	r1, [r0, #1024]	; 0x400
 1005d38:	4770      	bx	lr
 1005d3a:	2900      	cmp	r1, #0
 1005d3c:	bf0c      	ite	eq
 1005d3e:	f44f 7181 	moveq.w	r1, #258	; 0x102
 1005d42:	f501 7183 	addne.w	r1, r1, #262	; 0x106
 1005d46:	2220      	movs	r2, #32
 1005d48:	5442      	strb	r2, [r0, r1]
 1005d4a:	4770      	bx	lr
 1005d4c:	2900      	cmp	r1, #0
 1005d4e:	bf0c      	ite	eq
 1005d50:	f44f 7181 	moveq.w	r1, #258	; 0x102
 1005d54:	f501 7183 	addne.w	r1, r1, #262	; 0x106
 1005d58:	5c42      	ldrb	r2, [r0, r1]
 1005d5a:	f022 0220 	bic.w	r2, r2, #32
 1005d5e:	5442      	strb	r2, [r0, r1]
 1005d60:	4770      	bx	lr
 1005d62:	2160      	movs	r1, #96	; 0x60
 1005d64:	f880 1102 	strb.w	r1, [r0, #258]	; 0x102
 1005d68:	4770      	bx	lr
 1005d6a:	2900      	cmp	r1, #0
 1005d6c:	7841      	ldrb	r1, [r0, #1]
 1005d6e:	bf14      	ite	ne
 1005d70:	f041 0108 	orrne.w	r1, r1, #8
 1005d74:	f021 0108 	biceq.w	r1, r1, #8
 1005d78:	7041      	strb	r1, [r0, #1]
 1005d7a:	4770      	bx	lr
 1005d7c:	2900      	cmp	r1, #0
 1005d7e:	7841      	ldrb	r1, [r0, #1]
 1005d80:	bf14      	ite	ne
 1005d82:	f041 0104 	orrne.w	r1, r1, #4
 1005d86:	f021 0104 	biceq.w	r1, r1, #4
 1005d8a:	7041      	strb	r1, [r0, #1]
 1005d8c:	4770      	bx	lr
 1005d8e:	f890 1060 	ldrb.w	r1, [r0, #96]	; 0x60
 1005d92:	f011 0f40 	tst.w	r1, #64	; 0x40
 1005d96:	bf1c      	itt	ne
 1005d98:	2001      	movne	r0, #1
 1005d9a:	4770      	bxne	lr
 1005d9c:	f890 0060 	ldrb.w	r0, [r0, #96]	; 0x60
 1005da0:	f010 0f20 	tst.w	r0, #32
 1005da4:	bf14      	ite	ne
 1005da6:	2000      	movne	r0, #0
 1005da8:	f04f 4000 	moveq.w	r0, #2147483648	; 0x80000000
 1005dac:	4770      	bx	lr
 1005dae:	7841      	ldrb	r1, [r0, #1]
 1005db0:	f041 0102 	orr.w	r1, r1, #2
 1005db4:	7041      	strb	r1, [r0, #1]
 1005db6:	4770      	bx	lr
 1005db8:	f011 0f0f 	tst.w	r1, #15
 1005dbc:	d004      	beq.n	0x1005dc8
 1005dbe:	88c2      	ldrh	r2, [r0, #6]
 1005dc0:	f001 030f 	and.w	r3, r1, #15
 1005dc4:	439a      	bics	r2, r3
 1005dc6:	80c2      	strh	r2, [r0, #6]
 1005dc8:	f411 6f60 	tst.w	r1, #3584	; 0xe00
 1005dcc:	d005      	beq.n	0x1005dda
 1005dce:	8902      	ldrh	r2, [r0, #8]
 1005dd0:	f401 6360 	and.w	r3, r1, #3584	; 0xe00
 1005dd4:	ea22 2213 	bic.w	r2, r2, r3, lsr #8
 1005dd8:	8102      	strh	r2, [r0, #8]
 1005dda:	f011 4f7f 	tst.w	r1, #4278190080	; 0xff000000
 1005dde:	d003      	beq.n	0x1005de8
 1005de0:	7ac2      	ldrb	r2, [r0, #11]
 1005de2:	ea22 6211 	bic.w	r2, r2, r1, lsr #24
 1005de6:	72c2      	strb	r2, [r0, #11]
 1005de8:	f411 3f80 	tst.w	r1, #65536	; 0x10000
 1005dec:	f04f 0200 	mov.w	r2, #0
 1005df0:	bf18      	it	ne
 1005df2:	f8c0 2408 	strne.w	r2, [r0, #1032]	; 0x408
 1005df6:	f411 3f00 	tst.w	r1, #131072	; 0x20000
 1005dfa:	bf08      	it	eq
 1005dfc:	4770      	bxeq	lr
 1005dfe:	488a      	ldr	r0, [pc, #552]	; (0x1006028)
 1005e00:	6002      	str	r2, [r0, #0]
 1005e02:	4770      	bx	lr
 1005e04:	f011 0fff 	tst.w	r1, #255	; 0xff
 1005e08:	d002      	beq.n	0x1005e10
 1005e0a:	7ac2      	ldrb	r2, [r0, #11]
 1005e0c:	438a      	bics	r2, r1
 1005e0e:	72c2      	strb	r2, [r0, #11]
 1005e10:	f411 7f80 	tst.w	r1, #256	; 0x100
 1005e14:	f04f 0200 	mov.w	r2, #0
 1005e18:	bf18      	it	ne
 1005e1a:	f8c0 2408 	strne.w	r2, [r0, #1032]	; 0x408
 1005e1e:	f411 7f00 	tst.w	r1, #512	; 0x200
 1005e22:	bf08      	it	eq
 1005e24:	4770      	bxeq	lr
 1005e26:	4880      	ldr	r0, [pc, #512]	; (0x1006028)
 1005e28:	6002      	str	r2, [r0, #0]
 1005e2a:	4770      	bx	lr
 1005e2c:	88c2      	ldrh	r2, [r0, #6]
 1005e2e:	438a      	bics	r2, r1
 1005e30:	80c2      	strh	r2, [r0, #6]
 1005e32:	8902      	ldrh	r2, [r0, #8]
 1005e34:	f421 3180 	bic.w	r1, r1, #65536	; 0x10000
 1005e38:	ea22 4111 	bic.w	r1, r2, r1, lsr #16
 1005e3c:	8101      	strh	r1, [r0, #8]
 1005e3e:	4770      	bx	lr
 1005e40:	f011 0f0f 	tst.w	r1, #15
 1005e44:	d004      	beq.n	0x1005e50
 1005e46:	88c2      	ldrh	r2, [r0, #6]
 1005e48:	f001 030f 	and.w	r3, r1, #15
 1005e4c:	431a      	orrs	r2, r3
 1005e4e:	80c2      	strh	r2, [r0, #6]
 1005e50:	f411 6f60 	tst.w	r1, #3584	; 0xe00
 1005e54:	d005      	beq.n	0x1005e62
 1005e56:	8902      	ldrh	r2, [r0, #8]
 1005e58:	f401 6360 	and.w	r3, r1, #3584	; 0xe00
 1005e5c:	ea42 2213 	orr.w	r2, r2, r3, lsr #8
 1005e60:	8102      	strh	r2, [r0, #8]
 1005e62:	f011 4f7f 	tst.w	r1, #4278190080	; 0xff000000
 1005e66:	d003      	beq.n	0x1005e70
 1005e68:	7ac2      	ldrb	r2, [r0, #11]
 1005e6a:	ea42 6211 	orr.w	r2, r2, r1, lsr #24
 1005e6e:	72c2      	strb	r2, [r0, #11]
 1005e70:	f411 3f80 	tst.w	r1, #65536	; 0x10000
 1005e74:	f04f 0201 	mov.w	r2, #1
 1005e78:	bf18      	it	ne
 1005e7a:	f8c0 2408 	strne.w	r2, [r0, #1032]	; 0x408
 1005e7e:	f411 3f00 	tst.w	r1, #131072	; 0x20000
 1005e82:	bf08      	it	eq
 1005e84:	4770      	bxeq	lr
 1005e86:	4868      	ldr	r0, [pc, #416]	; (0x1006028)
 1005e88:	6002      	str	r2, [r0, #0]
 1005e8a:	4770      	bx	lr
 1005e8c:	f011 0fff 	tst.w	r1, #255	; 0xff
 1005e90:	d002      	beq.n	0x1005e98
 1005e92:	7ac2      	ldrb	r2, [r0, #11]
 1005e94:	430a      	orrs	r2, r1
 1005e96:	72c2      	strb	r2, [r0, #11]
 1005e98:	f411 7f80 	tst.w	r1, #256	; 0x100
 1005e9c:	f04f 0201 	mov.w	r2, #1
 1005ea0:	bf18      	it	ne
 1005ea2:	f8c0 2408 	strne.w	r2, [r0, #1032]	; 0x408
 1005ea6:	f411 7f00 	tst.w	r1, #512	; 0x200
 1005eaa:	bf08      	it	eq
 1005eac:	4770      	bxeq	lr
 1005eae:	485e      	ldr	r0, [pc, #376]	; (0x1006028)
 1005eb0:	6002      	str	r2, [r0, #0]
 1005eb2:	4770      	bx	lr
 1005eb4:	88c2      	ldrh	r2, [r0, #6]
 1005eb6:	430a      	orrs	r2, r1
 1005eb8:	80c2      	strh	r2, [r0, #6]
 1005eba:	8902      	ldrh	r2, [r0, #8]
 1005ebc:	f421 3180 	bic.w	r1, r1, #65536	; 0x10000
 1005ec0:	ea42 4111 	orr.w	r1, r2, r1, lsr #16
 1005ec4:	8101      	strh	r1, [r0, #8]
 1005ec6:	4770      	bx	lr
 1005ec8:	7881      	ldrb	r1, [r0, #2]
 1005eca:	7902      	ldrb	r2, [r0, #4]
 1005ecc:	ea41 2102 	orr.w	r1, r1, r2, lsl #8
 1005ed0:	7a82      	ldrb	r2, [r0, #10]
 1005ed2:	ea41 6102 	orr.w	r1, r1, r2, lsl #24
 1005ed6:	f8d0 240c 	ldr.w	r2, [r0, #1036]	; 0x40c
 1005eda:	f012 0f01 	tst.w	r2, #1
 1005ede:	d007      	beq.n	0x1005ef0
 1005ee0:	f890 240c 	ldrb.w	r2, [r0, #1036]	; 0x40c
 1005ee4:	f441 3180 	orr.w	r1, r1, #65536	; 0x10000
 1005ee8:	f042 0201 	orr.w	r2, r2, #1
 1005eec:	f880 240c 	strb.w	r2, [r0, #1036]	; 0x40c
 1005ef0:	484e      	ldr	r0, [pc, #312]	; (0x100602c)
 1005ef2:	f8d0 244c 	ldr.w	r2, [r0, #1100]	; 0x44c
 1005ef6:	f012 0f01 	tst.w	r2, #1
 1005efa:	d007      	beq.n	0x1005f0c
 1005efc:	f8d0 244c 	ldr.w	r2, [r0, #1100]	; 0x44c
 1005f00:	f441 3100 	orr.w	r1, r1, #131072	; 0x20000
 1005f04:	f042 0201 	orr.w	r2, r2, #1
 1005f08:	f8c0 244c 	str.w	r2, [r0, #1100]	; 0x44c
 1005f0c:	4608      	mov	r0, r1
 1005f0e:	4770      	bx	lr
 1005f10:	4601      	mov	r1, r0
 1005f12:	7a80      	ldrb	r0, [r0, #10]
 1005f14:	f8d1 240c 	ldr.w	r2, [r1, #1036]	; 0x40c
 1005f18:	f012 0f01 	tst.w	r2, #1
 1005f1c:	d007      	beq.n	0x1005f2e
 1005f1e:	f891 240c 	ldrb.w	r2, [r1, #1036]	; 0x40c
 1005f22:	f440 7080 	orr.w	r0, r0, #256	; 0x100
 1005f26:	f042 0201 	orr.w	r2, r2, #1
 1005f2a:	f881 240c 	strb.w	r2, [r1, #1036]	; 0x40c
 1005f2e:	493f      	ldr	r1, [pc, #252]	; (0x100602c)
 1005f30:	f8d1 244c 	ldr.w	r2, [r1, #1100]	; 0x44c
 1005f34:	f012 0f01 	tst.w	r2, #1
 1005f38:	bf08      	it	eq
 1005f3a:	4770      	bxeq	lr
 1005f3c:	f440 7000 	orr.w	r0, r0, #512	; 0x200
 1005f40:	f8d1 244c 	ldr.w	r2, [r1, #1100]	; 0x44c
 1005f44:	f042 0201 	orr.w	r2, r2, #1
 1005f48:	f8c1 244c 	str.w	r2, [r1, #1100]	; 0x44c
 1005f4c:	4770      	bx	lr
 1005f4e:	8841      	ldrh	r1, [r0, #2]
 1005f50:	8880      	ldrh	r0, [r0, #4]
 1005f52:	ea41 4000 	orr.w	r0, r1, r0, lsl #16
 1005f56:	4770      	bx	lr
 1005f58:	f890 0060 	ldrb.w	r0, [r0, #96]	; 0x60
 1005f5c:	f000 009d 	and.w	r0, r0, #157	; 0x9d
 1005f60:	4770      	bx	lr
 1005f62:	2007      	movs	r0, #7
 1005f64:	4770      	bx	lr
 1005f66:	2900      	cmp	r1, #0
 1005f68:	f890 1060 	ldrb.w	r1, [r0, #96]	; 0x60
 1005f6c:	bf14      	ite	ne
 1005f6e:	f041 0102 	orrne.w	r1, r1, #2
 1005f72:	f021 0102 	biceq.w	r1, r1, #2
 1005f76:	f880 1060 	strb.w	r1, [r0, #96]	; 0x60
 1005f7a:	4770      	bx	lr
 1005f7c:	2100      	movs	r1, #0
 1005f7e:	f880 141c 	strb.w	r1, [r0, #1052]	; 0x41c
 1005f82:	4770      	bx	lr
 1005f84:	7841      	ldrb	r1, [r0, #1]
 1005f86:	f041 0101 	orr.w	r1, r1, #1
 1005f8a:	7041      	strb	r1, [r0, #1]
 1005f8c:	4770      	bx	lr
 1005f8e:	7841      	ldrb	r1, [r0, #1]
 1005f90:	f021 0101 	bic.w	r1, r1, #1
 1005f94:	7041      	strb	r1, [r0, #1]
 1005f96:	4770      	bx	lr
 1005f98:	6880      	ldr	r0, [r0, #8]
 1005f9a:	f000 0001 	and.w	r0, r0, #1
 1005f9e:	4770      	bx	lr
 1005fa0:	6881      	ldr	r1, [r0, #8]
 1005fa2:	f041 0101 	orr.w	r1, r1, #1
 1005fa6:	6081      	str	r1, [r0, #8]
 1005fa8:	4770      	bx	lr
 1005faa:	6881      	ldr	r1, [r0, #8]
 1005fac:	f041 0102 	orr.w	r1, r1, #2
 1005fb0:	6081      	str	r1, [r0, #8]
 1005fb2:	4770      	bx	lr
 1005fb4:	6881      	ldr	r1, [r0, #8]
 1005fb6:	f021 0102 	bic.w	r1, r1, #2
 1005fba:	6081      	str	r1, [r0, #8]
 1005fbc:	4770      	bx	lr
 1005fbe:	2101      	movs	r1, #1
 1005fc0:	f8c0 1c00 	str.w	r1, [r0, #3072]	; 0xc00
 1005fc4:	4770      	bx	lr
 1005fc6:	491a      	ldr	r1, [pc, #104]	; (0x1006030)
 1005fc8:	f8c0 1c00 	str.w	r1, [r0, #3072]	; 0xc00
 1005fcc:	4770      	bx	lr
 1005fce:	f8d0 0c00 	ldr.w	r0, [r0, #3072]	; 0xc00
 1005fd2:	2801      	cmp	r0, #1
 1005fd4:	bf18      	it	ne
 1005fd6:	2000      	movne	r0, #0
 1005fd8:	4770      	bx	lr
 1005fda:	6001      	str	r1, [r0, #0]
 1005fdc:	4770      	bx	lr
 1005fde:	6800      	ldr	r0, [r0, #0]
 1005fe0:	4770      	bx	lr
 1005fe2:	6840      	ldr	r0, [r0, #4]
 1005fe4:	4770      	bx	lr
 1005fe6:	6881      	ldr	r1, [r0, #8]
 1005fe8:	f041 0101 	orr.w	r1, r1, #1
 1005fec:	6081      	str	r1, [r0, #8]
 1005fee:	4770      	bx	lr
 1005ff0:	2900      	cmp	r1, #0
 1005ff2:	bf14      	ite	ne
 1005ff4:	6940      	ldrne	r0, [r0, #20]
 1005ff6:	6900      	ldreq	r0, [r0, #16]
 1005ff8:	4770      	bx	lr
 1005ffa:	2101      	movs	r1, #1
 1005ffc:	60c1      	str	r1, [r0, #12]
 1005ffe:	4770      	bx	lr
 1006000:	f8d0 1418 	ldr.w	r1, [r0, #1048]	; 0x418
 1006004:	f441 7180 	orr.w	r1, r1, #256	; 0x100
 1006008:	f8c0 1418 	str.w	r1, [r0, #1048]	; 0x418
 100600c:	4770      	bx	lr
 100600e:	f8d0 1418 	ldr.w	r1, [r0, #1048]	; 0x418
 1006012:	f421 7180 	bic.w	r1, r1, #256	; 0x100
 1006016:	f8c0 1418 	str.w	r1, [r0, #1048]	; 0x418
 100601a:	4770      	bx	lr
 100601c:	6882      	ldr	r2, [r0, #8]
 100601e:	f022 0204 	bic.w	r2, r2, #4
 1006022:	4311      	orrs	r1, r2
 1006024:	6081      	str	r1, [r0, #8]
 1006026:	4770      	bx	lr
 1006028:	0448      	lsls	r0, r1, #17
 100602a:	4005      	ands	r5, r0
 100602c:	0000      	movs	r0, r0
 100602e:	4005      	ands	r5, r0
 1006030:	e551      	b.n	0x1005ad6
 1006032:	1acc      	subs	r4, r1, r3
 1006034:	4956      	ldr	r1, [pc, #344]	; (0x1006190)
 1006036:	2001      	movs	r0, #1
 1006038:	6008      	str	r0, [r1, #0]
 100603a:	4a56      	ldr	r2, [pc, #344]	; (0x1006194)
 100603c:	6810      	ldr	r0, [r2, #0]
 100603e:	2814      	cmp	r0, #20
 1006040:	bf28      	it	cs
 1006042:	4770      	bxcs	lr
 1006044:	f04f 20e0 	mov.w	r0, #3758153728	; 0xe000e000
 1006048:	6981      	ldr	r1, [r0, #24]
 100604a:	6810      	ldr	r0, [r2, #0]
 100604c:	4b52      	ldr	r3, [pc, #328]	; (0x1006198)
 100604e:	eb03 0380 	add.w	r3, r3, r0, lsl #2
 1006052:	1c40      	adds	r0, r0, #1
 1006054:	6010      	str	r0, [r2, #0]
 1006056:	6019      	str	r1, [r3, #0]
 1006058:	4770      	bx	lr
 100605a:	e92d 47f0 	stmdb	sp!, {r4, r5, r6, r7, r8, r9, sl, lr}
 100605e:	4e4d      	ldr	r6, [pc, #308]	; (0x1006194)
 1006060:	2400      	movs	r4, #0
 1006062:	4680      	mov	r8, r0
 1006064:	460f      	mov	r7, r1
 1006066:	4625      	mov	r5, r4
 1006068:	6034      	str	r4, [r6, #0]
 100606a:	f010 0f01 	tst.w	r0, #1
 100606e:	d00c      	beq.n	0x100608a
 1006070:	f04f 5100 	mov.w	r1, #536870912	; 0x20000000
 1006074:	4849      	ldr	r0, [pc, #292]	; (0x100619c)
 1006076:	6408      	str	r0, [r1, #64]	; 0x40
 1006078:	4849      	ldr	r0, [pc, #292]	; (0x10061a0)
 100607a:	2101      	movs	r1, #1
 100607c:	6001      	str	r1, [r0, #0]
 100607e:	6141      	str	r1, [r0, #20]
 1006080:	6081      	str	r1, [r0, #8]
 1006082:	f04f 0010 	mov.w	r0, #16
 1006086:	f7fc fb85 	bl	0x1002794
 100608a:	6830      	ldr	r0, [r6, #0]
 100608c:	2812      	cmp	r0, #18
 100608e:	bf3c      	itt	cc
 1006090:	f8df 9110 	ldrcc.w	r9, [pc, #272]	; 0x10061a4
 1006094:	f8df a110 	ldrcc.w	sl, [pc, #272]	; 0x10061a8
 1006098:	d22b      	bcs.n	0x10060f2
 100609a:	f418 3f40 	tst.w	r8, #196608	; 0x30000
 100609e:	d003      	beq.n	0x10060a8
 10060a0:	f001 f8b8 	bl	0x1007214
 10060a4:	2801      	cmp	r0, #1
 10060a6:	d00d      	beq.n	0x10060c4
 10060a8:	f018 0f10 	tst.w	r8, #16
 10060ac:	d010      	beq.n	0x10060d0
 10060ae:	f8d9 000c 	ldr.w	r0, [r9, #12]
 10060b2:	f010 0f04 	tst.w	r0, #4
 10060b6:	d00b      	beq.n	0x10060d0
 10060b8:	2010      	movs	r0, #16
 10060ba:	f7fc fb9d 	bl	0x10027f8
 10060be:	2002      	movs	r0, #2
 10060c0:	e8bd 87f0 	ldmia.w	sp!, {r4, r5, r6, r7, r8, r9, sl, pc}
 10060c4:	2010      	movs	r0, #16
 10060c6:	f7fc fb97 	bl	0x10027f8
 10060ca:	2005      	movs	r0, #5
 10060cc:	e8bd 87f0 	ldmia.w	sp!, {r4, r5, r6, r7, r8, r9, sl, pc}
 10060d0:	f418 5f80 	tst.w	r8, #4096	; 0x1000
 10060d4:	d00a      	beq.n	0x10060ec
 10060d6:	f8da 0804 	ldr.w	r0, [sl, #2052]	; 0x804
 10060da:	f010 0f01 	tst.w	r0, #1
 10060de:	d005      	beq.n	0x10060ec
 10060e0:	2010      	movs	r0, #16
 10060e2:	f7fc fb89 	bl	0x10027f8
 10060e6:	2003      	movs	r0, #3
 10060e8:	e8bd 87f0 	ldmia.w	sp!, {r4, r5, r6, r7, r8, r9, sl, pc}
 10060ec:	6830      	ldr	r0, [r6, #0]
 10060ee:	2812      	cmp	r0, #18
 10060f0:	d3d3      	bcc.n	0x100609a
 10060f2:	2010      	movs	r0, #16
 10060f4:	f7fc fb80 	bl	0x10027f8
 10060f8:	6831      	ldr	r1, [r6, #0]
 10060fa:	2000      	movs	r0, #0
 10060fc:	1e49      	subs	r1, r1, #1
 10060fe:	4b26      	ldr	r3, [pc, #152]	; (0x1006198)
 1006100:	4288      	cmp	r0, r1
 1006102:	d213      	bcs.n	0x100612c
 1006104:	f853 2020 	ldr.w	r2, [r3, r0, lsl #2]
 1006108:	eb03 0180 	add.w	r1, r3, r0, lsl #2
 100610c:	f8d1 c004 	ldr.w	ip, [r1, #4]
 1006110:	6849      	ldr	r1, [r1, #4]
 1006112:	4594      	cmp	ip, r2
 1006114:	eba2 0101 	sub.w	r1, r2, r1
 1006118:	bfc8      	it	gt
 100611a:	f101 7180 	addgt.w	r1, r1, #16777216	; 0x1000000
 100611e:	f843 1020 	str.w	r1, [r3, r0, lsl #2]
 1006122:	6831      	ldr	r1, [r6, #0]
 1006124:	1c40      	adds	r0, r0, #1
 1006126:	1e49      	subs	r1, r1, #1
 1006128:	4288      	cmp	r0, r1
 100612a:	d3eb      	bcc.n	0x1006104
 100612c:	6831      	ldr	r1, [r6, #0]
 100612e:	2000      	movs	r0, #0
 1006130:	1e49      	subs	r1, r1, #1
 1006132:	4288      	cmp	r0, r1
 1006134:	d21c      	bcs.n	0x1006170
 1006136:	f853 2020 	ldr.w	r2, [r3, r0, lsl #2]
 100613a:	eb03 0180 	add.w	r1, r3, r0, lsl #2
 100613e:	f8d1 c004 	ldr.w	ip, [r1, #4]
 1006142:	ebb2 020c 	subs.w	r2, r2, ip
 1006146:	bf48      	it	mi
 1006148:	4252      	negmi	r2, r2
 100614a:	eb02 0242 	add.w	r2, r2, r2, lsl #1
 100614e:	6849      	ldr	r1, [r1, #4]
 1006150:	428a      	cmp	r2, r1
 1006152:	bfa4      	itt	ge
 1006154:	2400      	movge	r4, #0
 1006156:	4625      	movge	r5, r4
 1006158:	da05      	bge.n	0x1006166
 100615a:	f853 1020 	ldr.w	r1, [r3, r0, lsl #2]
 100615e:	1c64      	adds	r4, r4, #1
 1006160:	440d      	add	r5, r1
 1006162:	2c07      	cmp	r4, #7
 1006164:	d007      	beq.n	0x1006176
 1006166:	6831      	ldr	r1, [r6, #0]
 1006168:	1c40      	adds	r0, r0, #1
 100616a:	1e49      	subs	r1, r1, #1
 100616c:	4288      	cmp	r0, r1
 100616e:	d3e2      	bcc.n	0x1006136
 1006170:	2000      	movs	r0, #0
 1006172:	e8bd 87f0 	ldmia.w	sp!, {r4, r5, r6, r7, r8, r9, sl, pc}
 1006176:	f853 0020 	ldr.w	r0, [r3, r0, lsl #2]
 100617a:	1941      	adds	r1, r0, r5
 100617c:	1048      	asrs	r0, r1, #1
 100617e:	6038      	str	r0, [r7, #0]
 1006180:	0008      	movs	r0, r1
 1006182:	f1a1 0101 	sub.w	r1, r1, #1
 1006186:	d1fb      	bne.n	0x1006180
 1006188:	2001      	movs	r0, #1
 100618a:	e8bd 87f0 	ldmia.w	sp!, {r4, r5, r6, r7, r8, r9, sl, pc}
 100618e:	0000      	movs	r0, r0
 1006190:	441c      	add	r4, r3
 1006192:	4000      	ands	r0, r0
 1006194:	00f4      	lsls	r4, r6, #3
 1006196:	2000      	movs	r0, #0
 1006198:	00f8      	lsls	r0, r7, #3
 100619a:	2000      	movs	r0, #0
 100619c:	6035      	str	r5, [r6, #0]
 100619e:	0100      	lsls	r0, r0, #4
 10061a0:	4408      	add	r0, r1
 10061a2:	4000      	ands	r0, r0
 10061a4:	8000      	strh	r0, [r0, #0]
 10061a6:	4000      	ands	r0, r0
 10061a8:	0000      	movs	r0, r0
 10061aa:	4002      	ands	r2, r0
 10061ac:	6801      	ldr	r1, [r0, #0]
 10061ae:	78c0      	ldrb	r0, [r0, #3]
 10061b0:	ba09      	rev	r1, r1
 10061b2:	f021 01ff 	bic.w	r1, r1, #255	; 0xff
 10061b6:	4308      	orrs	r0, r1
 10061b8:	4770      	bx	lr
 10061ba:	b5f8      	push	{r3, r4, r5, r6, r7, lr}
 10061bc:	4cb3      	ldr	r4, [pc, #716]	; (0x100648c)
 10061be:	f240 500b 	movw	r0, #1291	; 0x50b
 10061c2:	f8c4 0608 	str.w	r0, [r4, #1544]	; 0x608
 10061c6:	2501      	movs	r5, #1
 10061c8:	f8c4 5618 	str.w	r5, [r4, #1560]	; 0x618
 10061cc:	f8c4 561c 	str.w	r5, [r4, #1564]	; 0x61c
 10061d0:	f8c4 5620 	str.w	r5, [r4, #1568]	; 0x620
 10061d4:	f8c4 5628 	str.w	r5, [r4, #1576]	; 0x628
 10061d8:	6960      	ldr	r0, [r4, #20]
 10061da:	f241 0111 	movw	r1, #4113	; 0x1011
 10061de:	4008      	ands	r0, r1
 10061e0:	6a61      	ldr	r1, [r4, #36]	; 0x24
 10061e2:	f001 0103 	and.w	r1, r1, #3
 10061e6:	ea40 4001 	orr.w	r0, r0, r1, lsl #16
 10061ea:	9000      	str	r0, [sp, #0]
 10061ec:	f010 0f01 	tst.w	r0, #1
 10061f0:	d007      	beq.n	0x1006202
 10061f2:	2000      	movs	r0, #0
 10061f4:	f000 fb1c 	bl	0x1006830
 10061f8:	2000      	movs	r0, #0
 10061fa:	f7fe feb5 	bl	0x1004f68
 10061fe:	f7fe fe97 	bl	0x1004f30
 1006202:	9800      	ldr	r0, [sp, #0]
 1006204:	f010 0f10 	tst.w	r0, #16
 1006208:	d004      	beq.n	0x1006214
 100620a:	f000 fa95 	bl	0x1006738
 100620e:	9800      	ldr	r0, [sp, #0]
 1006210:	2810      	cmp	r0, #16
 1006212:	d044      	beq.n	0x100629e
 1006214:	9800      	ldr	r0, [sp, #0]
 1006216:	f410 5f80 	tst.w	r0, #4096	; 0x1000
 100621a:	d005      	beq.n	0x1006228
 100621c:	f000 f96c 	bl	0x10064f8
 1006220:	9800      	ldr	r0, [sp, #0]
 1006222:	f5b0 5f80 	cmp.w	r0, #4096	; 0x1000
 1006226:	d037      	beq.n	0x1006298
 1006228:	9800      	ldr	r0, [sp, #0]
 100622a:	f04f 0600 	mov.w	r6, #0
 100622e:	f410 3f40 	tst.w	r0, #196608	; 0x30000
 1006232:	d016      	beq.n	0x1006262
 1006234:	4896      	ldr	r0, [pc, #600]	; (0x1006490)
 1006236:	6800      	ldr	r0, [r0, #0]
 1006238:	f010 4f00 	tst.w	r0, #2147483648	; 0x80000000
 100623c:	d109      	bne.n	0x1006252
 100623e:	f001 f906 	bl	0x100744e
 1006242:	b130      	cbz	r0, 0x1006252
 1006244:	f001 f8c1 	bl	0x10073ca
 1006248:	9800      	ldr	r0, [sp, #0]
 100624a:	f430 3040 	bics.w	r0, r0, #196608	; 0x30000
 100624e:	d020      	beq.n	0x1006292
 1006250:	e007      	b.n	0x1006262
 1006252:	9800      	ldr	r0, [sp, #0]
 1006254:	f420 3040 	bic.w	r0, r0, #196608	; 0x30000
 1006258:	9000      	str	r0, [sp, #0]
 100625a:	f8c4 6628 	str.w	r6, [r4, #1576]	; 0x628
 100625e:	f8c4 5528 	str.w	r5, [r4, #1320]	; 0x528
 1006262:	4669      	mov	r1, sp
 1006264:	9800      	ldr	r0, [sp, #0]
 1006266:	f7ff fef8 	bl	0x100605a
 100626a:	2800      	cmp	r0, #0
 100626c:	d0f9      	beq.n	0x1006262
 100626e:	2805      	cmp	r0, #5
 1006270:	d00f      	beq.n	0x1006292
 1006272:	f8c4 6628 	str.w	r6, [r4, #1576]	; 0x628
 1006276:	f8c4 5528 	str.w	r5, [r4, #1320]	; 0x528
 100627a:	2803      	cmp	r0, #3
 100627c:	d00c      	beq.n	0x1006298
 100627e:	2802      	cmp	r0, #2
 1006280:	d00d      	beq.n	0x100629e
 1006282:	9800      	ldr	r0, [sp, #0]
 1006284:	f000 fad4 	bl	0x1006830
 1006288:	f000 faf8 	bl	0x100687c
 100628c:	f000 f97c 	bl	0x1006588
 1006290:	bdf8      	pop	{r3, r4, r5, r6, r7, pc}
 1006292:	f001 f8b5 	bl	0x1007400
 1006296:	bdf8      	pop	{r3, r4, r5, r6, r7, pc}
 1006298:	f000 f953 	bl	0x1006542
 100629c:	bdf8      	pop	{r3, r4, r5, r6, r7, pc}
 100629e:	f000 fa6b 	bl	0x1006778
 10062a2:	bdf8      	pop	{r3, r4, r5, r6, r7, pc}
 10062a4:	b430      	push	{r4, r5}
 10062a6:	f8df c1ec 	ldr.w	ip, [pc, #492]	; 0x1006494
 10062aa:	f10c 0418 	add.w	r4, ip, #24
 10062ae:	f8dc 3010 	ldr.w	r3, [ip, #16]
 10062b2:	e008      	b.n	0x10062c6
 10062b4:	f850 5b04 	ldr.w	r5, [r0], #4
 10062b8:	f844 5023 	str.w	r5, [r4, r3, lsl #2]
 10062bc:	1d09      	adds	r1, r1, #4
 10062be:	1f12      	subs	r2, r2, #4
 10062c0:	1c5b      	adds	r3, r3, #1
 10062c2:	f8cc 3010 	str.w	r3, [ip, #16]
 10062c6:	2b02      	cmp	r3, #2
 10062c8:	d202      	bcs.n	0x10062d0
 10062ca:	2a00      	cmp	r2, #0
 10062cc:	d1f2      	bne.n	0x10062b4
 10062ce:	e003      	b.n	0x10062d8
 10062d0:	b112      	cbz	r2, 0x10062d8
 10062d2:	bc30      	pop	{r4, r5}
 10062d4:	f7fb bd45 	b.w	0x1001d62
 10062d8:	bc30      	pop	{r4, r5}
 10062da:	2000      	movs	r0, #0
 10062dc:	4770      	bx	lr
 10062de:	4c6d      	ldr	r4, [pc, #436]	; (0x1006494)
 10062e0:	496d      	ldr	r1, [pc, #436]	; (0x1006498)
 10062e2:	b082      	sub	sp, #8
 10062e4:	6860      	ldr	r0, [r4, #4]
 10062e6:	4288      	cmp	r0, r1
 10062e8:	d102      	bne.n	0x10062f0
 10062ea:	f000 ff93 	bl	0x1007214
 10062ee:	e7fc      	b.n	0x10062ea
 10062f0:	f04f 0900 	mov.w	r9, #0
 10062f4:	4d69      	ldr	r5, [pc, #420]	; (0x100649c)
 10062f6:	2740      	movs	r7, #64	; 0x40
 10062f8:	f04f 0a42 	mov.w	sl, #66	; 0x42
 10062fc:	2644      	movs	r6, #68	; 0x44
 10062fe:	f04f 0843 	mov.w	r8, #67	; 0x43
 1006302:	f04f 0b41 	mov.w	fp, #65	; 0x41
 1006306:	f8c4 9008 	str.w	r9, [r4, #8]
 100630a:	4669      	mov	r1, sp
 100630c:	4628      	mov	r0, r5
 100630e:	f000 f940 	bl	0x1006592
 1006312:	2800      	cmp	r0, #0
 1006314:	d1f9      	bne.n	0x100630a
 1006316:	7828      	ldrb	r0, [r5, #0]
 1006318:	3820      	subs	r0, #32
 100631a:	2806      	cmp	r0, #6
 100631c:	d27a      	bcs.n	0x1006414
 100631e:	e8df f000 	tbb	[pc, r0]
 1006322:	0703      	lsls	r3, r0, #28
 1006324:	a147      	add	r1, pc, #284	; (adr r1, 0x1006444)
 1006326:	a87a      	add	r0, sp, #488	; 0x1e8
 1006328:	7027      	strb	r7, [r4, #0]
 100632a:	f000 f92d 	bl	0x1006588
 100632e:	e7ec      	b.n	0x100630a
 1006330:	9800      	ldr	r0, [sp, #0]
 1006332:	2809      	cmp	r0, #9
 1006334:	bf1c      	itt	ne
 1006336:	f8c4 9008 	strne.w	r9, [r4, #8]
 100633a:	f884 a000 	strbne.w	sl, [r4]
 100633e:	d134      	bne.n	0x10063aa
 1006340:	1c68      	adds	r0, r5, #1
 1006342:	f7ff ff33 	bl	0x10061ac
 1006346:	60e0      	str	r0, [r4, #12]
 1006348:	1d68      	adds	r0, r5, #5
 100634a:	f7ff ff2f 	bl	0x10061ac
 100634e:	f8c4 9010 	str.w	r9, [r4, #16]
 1006352:	60a0      	str	r0, [r4, #8]
 1006354:	68e0      	ldr	r0, [r4, #12]
 1006356:	6160      	str	r0, [r4, #20]
 1006358:	f7fe fbc4 	bl	0x1004ae4
 100635c:	4601      	mov	r1, r0
 100635e:	68e0      	ldr	r0, [r4, #12]
 1006360:	4288      	cmp	r0, r1
 1006362:	d206      	bcs.n	0x1006372
 1006364:	68a2      	ldr	r2, [r4, #8]
 1006366:	4402      	add	r2, r0
 1006368:	4291      	cmp	r1, r2
 100636a:	d302      	bcc.n	0x1006372
 100636c:	f010 0f03 	tst.w	r0, #3
 1006370:	d004      	beq.n	0x100637c
 1006372:	f8c4 9008 	str.w	r9, [r4, #8]
 1006376:	f884 8000 	strb.w	r8, [r4]
 100637a:	e016      	b.n	0x10063aa
 100637c:	7027      	strb	r7, [r4, #0]
 100637e:	f36f 0009 	bfc	r0, #0, #10
 1006382:	9000      	str	r0, [sp, #0]
 1006384:	e9d4 2102 	ldrd	r2, r1, [r4, #8]
 1006388:	4411      	add	r1, r2
 100638a:	4281      	cmp	r1, r0
 100638c:	d90d      	bls.n	0x10063aa
 100638e:	f7fb fcd7 	bl	0x1001d40
 1006392:	2800      	cmp	r0, #0
 1006394:	bf18      	it	ne
 1006396:	7026      	strbne	r6, [r4, #0]
 1006398:	9800      	ldr	r0, [sp, #0]
 100639a:	f500 6080 	add.w	r0, r0, #1024	; 0x400
 100639e:	9000      	str	r0, [sp, #0]
 10063a0:	e9d4 2102 	ldrd	r2, r1, [r4, #8]
 10063a4:	4411      	add	r1, r2
 10063a6:	4281      	cmp	r1, r0
 10063a8:	d8f1      	bhi.n	0x100638e
 10063aa:	f000 f8ed 	bl	0x1006588
 10063ae:	e7ac      	b.n	0x100630a
 10063b0:	f000 f8ea 	bl	0x1006588
 10063b4:	9800      	ldr	r0, [sp, #0]
 10063b6:	2805      	cmp	r0, #5
 10063b8:	bf18      	it	ne
 10063ba:	f884 a000 	strbne.w	sl, [r4]
 10063be:	d1a4      	bne.n	0x100630a
 10063c0:	1c68      	adds	r0, r5, #1
 10063c2:	f7ff fef3 	bl	0x10061ac
 10063c6:	60e0      	str	r0, [r4, #12]
 10063c8:	f7fe fb8c 	bl	0x1004ae4
 10063cc:	68e1      	ldr	r1, [r4, #12]
 10063ce:	4281      	cmp	r1, r0
 10063d0:	bf28      	it	cs
 10063d2:	f884 8000 	strbcs.w	r8, [r4]
 10063d6:	d298      	bcs.n	0x100630a
 10063d8:	6860      	ldr	r0, [r4, #4]
 10063da:	4780      	blx	r0
 10063dc:	482b      	ldr	r0, [pc, #172]	; (0x100648c)
 10063de:	f8c0 9104 	str.w	r9, [r0, #260]	; 0x104
 10063e2:	f8c0 9108 	str.w	r9, [r0, #264]	; 0x108
 10063e6:	f241 0111 	movw	r1, #4113	; 0x1011
 10063ea:	6441      	str	r1, [r0, #68]	; 0x44
 10063ec:	2103      	movs	r1, #3
 10063ee:	6481      	str	r1, [r0, #72]	; 0x48
 10063f0:	f8c0 9044 	str.w	r9, [r0, #68]	; 0x44
 10063f4:	f8c0 9048 	str.w	r9, [r0, #72]	; 0x48
 10063f8:	f04f 25e0 	mov.w	r5, #3758153728	; 0xe000e000
 10063fc:	f8c5 9010 	str.w	r9, [r5, #16]
 1006400:	f8c5 9014 	str.w	r9, [r5, #20]
 1006404:	f8c5 9018 	str.w	r9, [r5, #24]
 1006408:	68e0      	ldr	r0, [r4, #12]
 100640a:	4780      	blx	r0
 100640c:	4824      	ldr	r0, [pc, #144]	; (0x10064a0)
 100640e:	f8c5 0d0c 	str.w	r0, [r5, #3340]	; 0xd0c
 1006412:	e7fe      	b.n	0x1006412
 1006414:	e034      	b.n	0x1006480
 1006416:	7027      	strb	r7, [r4, #0]
 1006418:	9800      	ldr	r0, [sp, #0]
 100641a:	1e40      	subs	r0, r0, #1
 100641c:	9000      	str	r0, [sp, #0]
 100641e:	68a1      	ldr	r1, [r4, #8]
 1006420:	4288      	cmp	r0, r1
 1006422:	d803      	bhi.n	0x100642c
 1006424:	68e1      	ldr	r1, [r4, #12]
 1006426:	f011 0f03 	tst.w	r1, #3
 100642a:	d002      	beq.n	0x1006432
 100642c:	f884 8000 	strb.w	r8, [r4]
 1006430:	e7bb      	b.n	0x10063aa
 1006432:	1cc0      	adds	r0, r0, #3
 1006434:	f020 0203 	bic.w	r2, r0, #3
 1006438:	1c68      	adds	r0, r5, #1
 100643a:	f7ff ff33 	bl	0x10062a4
 100643e:	b108      	cbz	r0, 0x1006444
 1006440:	7026      	strb	r6, [r4, #0]
 1006442:	e7b2      	b.n	0x10063aa
 1006444:	68a1      	ldr	r1, [r4, #8]
 1006446:	9800      	ldr	r0, [sp, #0]
 1006448:	1a09      	subs	r1, r1, r0
 100644a:	60a1      	str	r1, [r4, #8]
 100644c:	68e2      	ldr	r2, [r4, #12]
 100644e:	4410      	add	r0, r2
 1006450:	60e0      	str	r0, [r4, #12]
 1006452:	d1aa      	bne.n	0x10063aa
 1006454:	2208      	movs	r2, #8
 1006456:	4813      	ldr	r0, [pc, #76]	; (0x10064a4)
 1006458:	6961      	ldr	r1, [r4, #20]
 100645a:	f7fb fc82 	bl	0x1001d62
 100645e:	2800      	cmp	r0, #0
 1006460:	d1ee      	bne.n	0x1006440
 1006462:	e7a2      	b.n	0x10063aa
 1006464:	f000 f890 	bl	0x1006588
 1006468:	2101      	movs	r1, #1
 100646a:	480a      	ldr	r0, [pc, #40]	; (0x1006494)
 100646c:	f000 f8c6 	bl	0x10065fc
 1006470:	e74b      	b.n	0x100630a
 1006472:	f000 f889 	bl	0x1006588
 1006476:	6860      	ldr	r0, [r4, #4]
 1006478:	4780      	blx	r0
 100647a:	f7fa fd63 	bl	0x1000f44
 100647e:	e7fe      	b.n	0x100647e
 1006480:	f000 f882 	bl	0x1006588
 1006484:	f884 b000 	strb.w	fp, [r4]
 1006488:	e73f      	b.n	0x100630a
 100648a:	0000      	movs	r0, r0
 100648c:	e000      	b.n	0x1006490
 100648e:	400f      	ands	r7, r1
 1006490:	0fc0      	lsrs	r0, r0, #31
 1006492:	4005      	ands	r5, r0
 1006494:	0150      	lsls	r0, r2, #5
 1006496:	2000      	movs	r0, #0
 1006498:	7215      	strb	r5, [r2, #8]
 100649a:	0100      	lsls	r0, r0, #4
 100649c:	0173      	lsls	r3, r6, #5
 100649e:	2000      	movs	r0, #0
 10064a0:	0004      	movs	r4, r0
 10064a2:	05fa      	lsls	r2, r7, #23
 10064a4:	0168      	lsls	r0, r5, #5
 10064a6:	2000      	movs	r0, #0
 10064a8:	1e49      	subs	r1, r1, #1
 10064aa:	1c4a      	adds	r2, r1, #1
 10064ac:	bf14      	ite	ne
 10064ae:	4a2b      	ldrne	r2, [pc, #172]	; (0x100655c)
 10064b0:	4770      	bxeq	lr
 10064b2:	f8d2 3804 	ldr.w	r3, [r2, #2052]	; 0x804
 10064b6:	f013 0f02 	tst.w	r3, #2
 10064ba:	d0fa      	beq.n	0x10064b2
 10064bc:	f810 3b01 	ldrb.w	r3, [r0], #1
 10064c0:	f8c2 3808 	str.w	r3, [r2, #2056]	; 0x808
 10064c4:	1e49      	subs	r1, r1, #1
 10064c6:	d2f4      	bcs.n	0x10064b2
 10064c8:	4770      	bx	lr
 10064ca:	4824      	ldr	r0, [pc, #144]	; (0x100655c)
 10064cc:	6841      	ldr	r1, [r0, #4]
 10064ce:	f011 0f40 	tst.w	r1, #64	; 0x40
 10064d2:	d1fb      	bne.n	0x10064cc
 10064d4:	4770      	bx	lr
 10064d6:	1e49      	subs	r1, r1, #1
 10064d8:	1c4a      	adds	r2, r1, #1
 10064da:	bf14      	ite	ne
 10064dc:	4a1f      	ldrne	r2, [pc, #124]	; (0x100655c)
 10064de:	4770      	bxeq	lr
 10064e0:	f8d2 3804 	ldr.w	r3, [r2, #2052]	; 0x804
 10064e4:	f013 0f01 	tst.w	r3, #1
 10064e8:	d0fa      	beq.n	0x10064e0
 10064ea:	f8d2 3808 	ldr.w	r3, [r2, #2056]	; 0x808
 10064ee:	f800 3b01 	strb.w	r3, [r0], #1
 10064f2:	1e49      	subs	r1, r1, #1
 10064f4:	d2f4      	bcs.n	0x10064e0
 10064f6:	4770      	bx	lr
 10064f8:	b510      	push	{r4, lr}
 10064fa:	4c19      	ldr	r4, [pc, #100]	; (0x1006560)
 10064fc:	2308      	movs	r3, #8
 10064fe:	2201      	movs	r2, #1
 1006500:	2104      	movs	r1, #4
 1006502:	4620      	mov	r0, r4
 1006504:	f7fb fe16 	bl	0x1002134
 1006508:	2309      	movs	r3, #9
 100650a:	2201      	movs	r2, #1
 100650c:	2108      	movs	r1, #8
 100650e:	4620      	mov	r0, r4
 1006510:	f7fb fe10 	bl	0x1002134
 1006514:	f8d4 152c 	ldr.w	r1, [r4, #1324]	; 0x52c
 1006518:	f421 417f 	bic.w	r1, r1, #65280	; 0xff00
 100651c:	f441 514c 	orr.w	r1, r1, #13056	; 0x3300
 1006520:	f8c4 152c 	str.w	r1, [r4, #1324]	; 0x52c
 1006524:	2202      	movs	r2, #2
 1006526:	210c      	movs	r1, #12
 1006528:	4620      	mov	r0, r4
 100652a:	f7fb fd67 	bl	0x1001ffc
 100652e:	480b      	ldr	r0, [pc, #44]	; (0x100655c)
 1006530:	2130      	movs	r1, #48	; 0x30
 1006532:	6201      	str	r1, [r0, #32]
 1006534:	2142      	movs	r1, #66	; 0x42
 1006536:	f8c0 1800 	str.w	r1, [r0, #2048]	; 0x800
 100653a:	2101      	movs	r1, #1
 100653c:	f8c0 1804 	str.w	r1, [r0, #2052]	; 0x804
 1006540:	bd10      	pop	{r4, pc}
 1006542:	f2af 009b 	subw	r0, pc, #155	; 0x9b
 1006546:	4907      	ldr	r1, [pc, #28]	; (0x1006564)
 1006548:	6008      	str	r0, [r1, #0]
 100654a:	f2af 0075 	subw	r0, pc, #117	; 0x75
 100654e:	4906      	ldr	r1, [pc, #24]	; (0x1006568)
 1006550:	6008      	str	r0, [r1, #0]
 1006552:	f2af 0089 	subw	r0, pc, #137	; 0x89
 1006556:	4905      	ldr	r1, [pc, #20]	; (0x100656c)
 1006558:	6008      	str	r0, [r1, #0]
 100655a:	4770      	bx	lr
 100655c:	0000      	movs	r0, r0
 100655e:	4002      	ands	r2, r0
 1006560:	5000      	str	r0, [r0, r0]
 1006562:	4000      	ands	r0, r0
 1006564:	0148      	lsls	r0, r1, #5
 1006566:	2000      	movs	r0, #0
 1006568:	014c      	lsls	r4, r1, #5
 100656a:	2000      	movs	r0, #0
 100656c:	0154      	lsls	r4, r2, #5
 100656e:	2000      	movs	r0, #0
 1006570:	2300      	movs	r3, #0
 1006572:	461a      	mov	r2, r3
 1006574:	2900      	cmp	r1, #0
 1006576:	d905      	bls.n	0x1006584
 1006578:	f810 c002 	ldrb.w	ip, [r0, r2]
 100657c:	1c52      	adds	r2, r2, #1
 100657e:	4463      	add	r3, ip
 1006580:	4291      	cmp	r1, r2
 1006582:	d8f9      	bhi.n	0x1006578
 1006584:	b2d8      	uxtb	r0, r3
 1006586:	4770      	bx	lr
 1006588:	4a34      	ldr	r2, [pc, #208]	; (0x100665c)
 100658a:	2102      	movs	r1, #2
 100658c:	4832      	ldr	r0, [pc, #200]	; (0x1006658)
 100658e:	6812      	ldr	r2, [r2, #0]
 1006590:	4710      	bx	r2
 1006592:	b570      	push	{r4, r5, r6, lr}
 1006594:	b082      	sub	sp, #8
 1006596:	4606      	mov	r6, r0
 1006598:	2000      	movs	r0, #0
 100659a:	4c31      	ldr	r4, [pc, #196]	; (0x1006660)
 100659c:	460d      	mov	r5, r1
 100659e:	f88d 0000 	strb.w	r0, [sp]
 10065a2:	6822      	ldr	r2, [r4, #0]
 10065a4:	2101      	movs	r1, #1
 10065a6:	4668      	mov	r0, sp
 10065a8:	4790      	blx	r2
 10065aa:	f89d 2000 	ldrb.w	r2, [sp]
 10065ae:	2a00      	cmp	r2, #0
 10065b0:	d0f7      	beq.n	0x10065a2
 10065b2:	b2d0      	uxtb	r0, r2
 10065b4:	1e80      	subs	r0, r0, #2
 10065b6:	f88d 0000 	strb.w	r0, [sp]
 10065ba:	6822      	ldr	r2, [r4, #0]
 10065bc:	2101      	movs	r1, #1
 10065be:	a801      	add	r0, sp, #4
 10065c0:	4790      	blx	r2
 10065c2:	6822      	ldr	r2, [r4, #0]
 10065c4:	f89d 1000 	ldrb.w	r1, [sp]
 10065c8:	4630      	mov	r0, r6
 10065ca:	4790      	blx	r2
 10065cc:	f89d 1000 	ldrb.w	r1, [sp]
 10065d0:	4630      	mov	r0, r6
 10065d2:	f7ff ffcd 	bl	0x1006570
 10065d6:	f89d 1004 	ldrb.w	r1, [sp, #4]
 10065da:	4288      	cmp	r0, r1
 10065dc:	d008      	beq.n	0x10065f0
 10065de:	4a1f      	ldr	r2, [pc, #124]	; (0x100665c)
 10065e0:	2102      	movs	r1, #2
 10065e2:	4820      	ldr	r0, [pc, #128]	; (0x1006664)
 10065e4:	6812      	ldr	r2, [r2, #0]
 10065e6:	4790      	blx	r2
 10065e8:	b002      	add	sp, #8
 10065ea:	f04f 30ff 	mov.w	r0, #4294967295	; 0xffffffff
 10065ee:	bd70      	pop	{r4, r5, r6, pc}
 10065f0:	f89d 0000 	ldrb.w	r0, [sp]
 10065f4:	6028      	str	r0, [r5, #0]
 10065f6:	b002      	add	sp, #8
 10065f8:	2000      	movs	r0, #0
 10065fa:	bd70      	pop	{r4, r5, r6, pc}
 10065fc:	b533      	push	{r0, r1, r4, r5, lr}
 10065fe:	b081      	sub	sp, #4
 1006600:	4605      	mov	r5, r0
 1006602:	9902      	ldr	r1, [sp, #8]
 1006604:	f7ff ffb4 	bl	0x1006570
 1006608:	f88d 0000 	strb.w	r0, [sp]
 100660c:	9802      	ldr	r0, [sp, #8]
 100660e:	4c13      	ldr	r4, [pc, #76]	; (0x100665c)
 1006610:	1c80      	adds	r0, r0, #2
 1006612:	9002      	str	r0, [sp, #8]
 1006614:	6822      	ldr	r2, [r4, #0]
 1006616:	2101      	movs	r1, #1
 1006618:	a802      	add	r0, sp, #8
 100661a:	4790      	blx	r2
 100661c:	6822      	ldr	r2, [r4, #0]
 100661e:	2101      	movs	r1, #1
 1006620:	4668      	mov	r0, sp
 1006622:	4790      	blx	r2
 1006624:	9802      	ldr	r0, [sp, #8]
 1006626:	6822      	ldr	r2, [r4, #0]
 1006628:	1e81      	subs	r1, r0, #2
 100662a:	4628      	mov	r0, r5
 100662c:	4790      	blx	r2
 100662e:	2000      	movs	r0, #0
 1006630:	4c0b      	ldr	r4, [pc, #44]	; (0x1006660)
 1006632:	f88d 0000 	strb.w	r0, [sp]
 1006636:	2101      	movs	r1, #1
 1006638:	6822      	ldr	r2, [r4, #0]
 100663a:	4668      	mov	r0, sp
 100663c:	4790      	blx	r2
 100663e:	f89d 0000 	ldrb.w	r0, [sp]
 1006642:	2800      	cmp	r0, #0
 1006644:	d0f7      	beq.n	0x1006636
 1006646:	b2c0      	uxtb	r0, r0
 1006648:	28cc      	cmp	r0, #204	; 0xcc
 100664a:	bf14      	ite	ne
 100664c:	f04f 30ff 	movne.w	r0, #4294967295	; 0xffffffff
 1006650:	2000      	moveq	r0, #0
 1006652:	b003      	add	sp, #12
 1006654:	bd30      	pop	{r4, r5, pc}
 1006656:	0000      	movs	r0, r0
 1006658:	8684      	strh	r4, [r0, #52]	; 0x34
 100665a:	0100      	lsls	r0, r0, #4
 100665c:	0148      	lsls	r0, r1, #5
 100665e:	2000      	movs	r0, #0
 1006660:	014c      	lsls	r4, r1, #5
 1006662:	2000      	movs	r0, #0
 1006664:	8686      	strh	r6, [r0, #52]	; 0x34
 1006666:	0100      	lsls	r0, r0, #4
 1006668:	b530      	push	{r4, r5, lr}
 100666a:	4c18      	ldr	r4, [pc, #96]	; (0x10066cc)
 100666c:	b083      	sub	sp, #12
 100666e:	f8d4 00fc 	ldr.w	r0, [r4, #252]	; 0xfc
 1006672:	f040 0001 	orr.w	r0, r0, #1
 1006676:	f8c4 00fc 	str.w	r0, [r4, #252]	; 0xfc
 100667a:	f8d4 00fc 	ldr.w	r0, [r4, #252]	; 0xfc
 100667e:	f400 2570 	and.w	r5, r0, #983040	; 0xf0000
 1006682:	f8d4 00fc 	ldr.w	r0, [r4, #252]	; 0xfc
 1006686:	f440 2070 	orr.w	r0, r0, #983040	; 0xf0000
 100668a:	f8c4 00fc 	str.w	r0, [r4, #252]	; 0xfc
 100668e:	f04f 7004 	mov.w	r0, #34603008	; 0x2100000
 1006692:	aa02      	add	r2, sp, #8
 1006694:	6ac3      	ldr	r3, [r0, #44]	; 0x2c
 1006696:	4669      	mov	r1, sp
 1006698:	a801      	add	r0, sp, #4
 100669a:	4798      	blx	r3
 100669c:	f8d4 10fc 	ldr.w	r1, [r4, #252]	; 0xfc
 10066a0:	f421 2170 	bic.w	r1, r1, #983040	; 0xf0000
 10066a4:	4329      	orrs	r1, r5
 10066a6:	f8c4 10fc 	str.w	r1, [r4, #252]	; 0xfc
 10066aa:	b130      	cbz	r0, 0x10066ba
 10066ac:	9901      	ldr	r1, [sp, #4]
 10066ae:	6001      	str	r1, [r0, #0]
 10066b0:	9800      	ldr	r0, [sp, #0]
 10066b2:	2800      	cmp	r0, #0
 10066b4:	bf1c      	itt	ne
 10066b6:	9902      	ldrne	r1, [sp, #8]
 10066b8:	6001      	strne	r1, [r0, #0]
 10066ba:	f8d4 00fc 	ldr.w	r0, [r4, #252]	; 0xfc
 10066be:	f020 0001 	bic.w	r0, r0, #1
 10066c2:	f8c4 00fc 	str.w	r0, [r4, #252]	; 0xfc
 10066c6:	b003      	add	sp, #12
 10066c8:	bd30      	pop	{r4, r5, pc}
 10066ca:	0000      	movs	r0, r0
 10066cc:	d000      	beq.n	0x10066d0
 10066ce:	400f      	ands	r7, r1
 10066d0:	b573      	push	{r0, r1, r4, r5, r6, lr}
 10066d2:	4604      	mov	r4, r0
 10066d4:	9801      	ldr	r0, [sp, #4]
 10066d6:	4d36      	ldr	r5, [pc, #216]	; (0x10067b0)
 10066d8:	1e40      	subs	r0, r0, #1
 10066da:	9001      	str	r0, [sp, #4]
 10066dc:	d308      	bcc.n	0x10066f0
 10066de:	f814 1b01 	ldrb.w	r1, [r4], #1
 10066e2:	4628      	mov	r0, r5
 10066e4:	f7fe f876 	bl	0x10047d4
 10066e8:	9801      	ldr	r0, [sp, #4]
 10066ea:	1e40      	subs	r0, r0, #1
 10066ec:	9001      	str	r0, [sp, #4]
 10066ee:	d2f6      	bcs.n	0x10066de
 10066f0:	a901      	add	r1, sp, #4
 10066f2:	4628      	mov	r0, r5
 10066f4:	f7fe f865 	bl	0x10047c2
 10066f8:	2800      	cmp	r0, #0
 10066fa:	d1f9      	bne.n	0x10066f0
 10066fc:	b002      	add	sp, #8
 10066fe:	bd70      	pop	{r4, r5, r6, pc}
 1006700:	482b      	ldr	r0, [pc, #172]	; (0x10067b0)
 1006702:	68c1      	ldr	r1, [r0, #12]
 1006704:	2900      	cmp	r1, #0
 1006706:	d0fc      	beq.n	0x1006702
 1006708:	68c1      	ldr	r1, [r0, #12]
 100670a:	f011 0f10 	tst.w	r1, #16
 100670e:	d1fb      	bne.n	0x1006708
 1006710:	4770      	bx	lr
 1006712:	4a27      	ldr	r2, [pc, #156]	; (0x10067b0)
 1006714:	2300      	movs	r3, #0
 1006716:	6093      	str	r3, [r2, #8]
 1006718:	1e49      	subs	r1, r1, #1
 100671a:	bf38      	it	cc
 100671c:	4770      	bxcc	lr
 100671e:	f8d2 c00c 	ldr.w	ip, [r2, #12]
 1006722:	f01c 0f04 	tst.w	ip, #4
 1006726:	d0fa      	beq.n	0x100671e
 1006728:	f8d2 c008 	ldr.w	ip, [r2, #8]
 100672c:	f800 cb01 	strb.w	ip, [r0], #1
 1006730:	6093      	str	r3, [r2, #8]
 1006732:	1e49      	subs	r1, r1, #1
 1006734:	d2f3      	bcs.n	0x100671e
 1006736:	4770      	bx	lr
 1006738:	481e      	ldr	r0, [pc, #120]	; (0x10067b4)
 100673a:	b510      	push	{r4, lr}
 100673c:	6801      	ldr	r1, [r0, #0]
 100673e:	f36f 2117 	bfc	r1, #8, #16
 1006742:	f441 5108 	orr.w	r1, r1, #8704	; 0x2200
 1006746:	f441 1108 	orr.w	r1, r1, #2228224	; 0x220000
 100674a:	6001      	str	r1, [r0, #0]
 100674c:	f04f 030a 	mov.w	r3, #10
 1006750:	f04f 0201 	mov.w	r2, #1
 1006754:	f04f 011c 	mov.w	r1, #28
 1006758:	f04f 2040 	mov.w	r0, #1073758208	; 0x40004000
 100675c:	f7fb fcea 	bl	0x1002134
 1006760:	2202      	movs	r2, #2
 1006762:	211c      	movs	r1, #28
 1006764:	f04f 2040 	mov.w	r0, #1073758208	; 0x40004000
 1006768:	f7fb fc48 	bl	0x1001ffc
 100676c:	4810      	ldr	r0, [pc, #64]	; (0x10067b0)
 100676e:	21c7      	movs	r1, #199	; 0xc7
 1006770:	6001      	str	r1, [r0, #0]
 1006772:	2106      	movs	r1, #6
 1006774:	6041      	str	r1, [r0, #4]
 1006776:	bd10      	pop	{r4, pc}
 1006778:	b510      	push	{r4, lr}
 100677a:	2308      	movs	r3, #8
 100677c:	2201      	movs	r2, #1
 100677e:	2120      	movs	r1, #32
 1006780:	f04f 2040 	mov.w	r0, #1073758208	; 0x40004000
 1006784:	f7fb fcd6 	bl	0x1002134
 1006788:	2202      	movs	r2, #2
 100678a:	2120      	movs	r1, #32
 100678c:	f04f 2040 	mov.w	r0, #1073758208	; 0x40004000
 1006790:	f7fb fc34 	bl	0x1001ffc
 1006794:	f2af 00c7 	subw	r0, pc, #199	; 0xc7
 1006798:	4907      	ldr	r1, [pc, #28]	; (0x10067b8)
 100679a:	6008      	str	r0, [r1, #0]
 100679c:	f2af 008d 	subw	r0, pc, #141	; 0x8d
 10067a0:	4906      	ldr	r1, [pc, #24]	; (0x10067bc)
 10067a2:	6008      	str	r0, [r1, #0]
 10067a4:	f2af 00a7 	subw	r0, pc, #167	; 0xa7
 10067a8:	4905      	ldr	r1, [pc, #20]	; (0x10067c0)
 10067aa:	6008      	str	r0, [r1, #0]
 10067ac:	bd10      	pop	{r4, pc}
 10067ae:	0000      	movs	r0, r0
 10067b0:	8000      	strh	r0, [r0, #0]
 10067b2:	4000      	ands	r0, r0
 10067b4:	452c      	cmp	r4, r5
 10067b6:	4000      	ands	r0, r0
 10067b8:	0148      	lsls	r0, r1, #5
 10067ba:	2000      	movs	r0, #0
 10067bc:	014c      	lsls	r4, r1, #5
 10067be:	2000      	movs	r0, #0
 10067c0:	0154      	lsls	r4, r2, #5
 10067c2:	2000      	movs	r0, #0
 10067c4:	e92d 41f0 	stmdb	sp!, {r4, r5, r6, r7, r8, lr}
 10067c8:	4d3a      	ldr	r5, [pc, #232]	; (0x10068b4)
 10067ca:	4606      	mov	r6, r0
 10067cc:	1e0f      	subs	r7, r1, #0
 10067ce:	f04f 0400 	mov.w	r4, #0
 10067d2:	d906      	bls.n	0x10067e2
 10067d4:	5d31      	ldrb	r1, [r6, r4]
 10067d6:	4628      	mov	r0, r5
 10067d8:	f7fe fd5c 	bl	0x1005294
 10067dc:	1c64      	adds	r4, r4, #1
 10067de:	42a7      	cmp	r7, r4
 10067e0:	d8f8      	bhi.n	0x10067d4
 10067e2:	69a8      	ldr	r0, [r5, #24]
 10067e4:	f010 0f80 	tst.w	r0, #128	; 0x80
 10067e8:	d0fb      	beq.n	0x10067e2
 10067ea:	69a8      	ldr	r0, [r5, #24]
 10067ec:	f010 0f08 	tst.w	r0, #8
 10067f0:	d1fb      	bne.n	0x10067ea
 10067f2:	e8bd 81f0 	ldmia.w	sp!, {r4, r5, r6, r7, r8, pc}
 10067f6:	482f      	ldr	r0, [pc, #188]	; (0x10068b4)
 10067f8:	6981      	ldr	r1, [r0, #24]
 10067fa:	f011 0f80 	tst.w	r1, #128	; 0x80
 10067fe:	d0fb      	beq.n	0x10067f8
 1006800:	6981      	ldr	r1, [r0, #24]
 1006802:	f011 0f08 	tst.w	r1, #8
 1006806:	d1fb      	bne.n	0x1006800
 1006808:	4770      	bx	lr
 100680a:	e92d 41f0 	stmdb	sp!, {r4, r5, r6, r7, r8, lr}
 100680e:	4605      	mov	r5, r0
 1006810:	1e0e      	subs	r6, r1, #0
 1006812:	f04f 0400 	mov.w	r4, #0
 1006816:	bf8c      	ite	hi
 1006818:	4f26      	ldrhi	r7, [pc, #152]	; (0x10068b4)
 100681a:	e8bd 81f0 	ldmials.w	sp!, {r4, r5, r6, r7, r8, pc}
 100681e:	4638      	mov	r0, r7
 1006820:	f7fe fd2a 	bl	0x1005278
 1006824:	5528      	strb	r0, [r5, r4]
 1006826:	1c64      	adds	r4, r4, #1
 1006828:	42b4      	cmp	r4, r6
 100682a:	d3f8      	bcc.n	0x100681e
 100682c:	e8bd 81f0 	ldmia.w	sp!, {r4, r5, r6, r7, r8, pc}
 1006830:	4921      	ldr	r1, [pc, #132]	; (0x10068b8)
 1006832:	b510      	push	{r4, lr}
 1006834:	680a      	ldr	r2, [r1, #0]
 1006836:	f022 02ff 	bic.w	r2, r2, #255	; 0xff
 100683a:	f042 0211 	orr.w	r2, r2, #17
 100683e:	600a      	str	r2, [r1, #0]
 1006840:	b168      	cbz	r0, 0x100685e
 1006842:	491c      	ldr	r1, [pc, #112]	; (0x10068b4)
 1006844:	1182      	asrs	r2, r0, #6
 1006846:	624a      	str	r2, [r1, #36]	; 0x24
 1006848:	f000 003f 	and.w	r0, r0, #63	; 0x3f
 100684c:	6288      	str	r0, [r1, #40]	; 0x28
 100684e:	2070      	movs	r0, #112	; 0x70
 1006850:	62c8      	str	r0, [r1, #44]	; 0x2c
 1006852:	6b08      	ldr	r0, [r1, #48]	; 0x30
 1006854:	f240 3201 	movw	r2, #769	; 0x301
 1006858:	4310      	orrs	r0, r2
 100685a:	6308      	str	r0, [r1, #48]	; 0x30
 100685c:	bd10      	pop	{r4, pc}
 100685e:	2201      	movs	r2, #1
 1006860:	230a      	movs	r3, #10
 1006862:	4611      	mov	r1, r2
 1006864:	f04f 2040 	mov.w	r0, #1073758208	; 0x40004000
 1006868:	f7fb fc64 	bl	0x1002134
 100686c:	2202      	movs	r2, #2
 100686e:	e8bd 4010 	ldmia.w	sp!, {r4, lr}
 1006872:	2101      	movs	r1, #1
 1006874:	f04f 2040 	mov.w	r0, #1073758208	; 0x40004000
 1006878:	f7fb bbc0 	b.w	0x1001ffc
 100687c:	b510      	push	{r4, lr}
 100687e:	2308      	movs	r3, #8
 1006880:	2201      	movs	r2, #1
 1006882:	2102      	movs	r1, #2
 1006884:	f04f 2040 	mov.w	r0, #1073758208	; 0x40004000
 1006888:	f7fb fc54 	bl	0x1002134
 100688c:	2202      	movs	r2, #2
 100688e:	4611      	mov	r1, r2
 1006890:	f04f 2040 	mov.w	r0, #1073758208	; 0x40004000
 1006894:	f7fb fbb2 	bl	0x1001ffc
 1006898:	f2af 00d7 	subw	r0, pc, #215	; 0xd7
 100689c:	4907      	ldr	r1, [pc, #28]	; (0x10068bc)
 100689e:	6008      	str	r0, [r1, #0]
 10068a0:	f2af 0099 	subw	r0, pc, #153	; 0x99
 10068a4:	4906      	ldr	r1, [pc, #24]	; (0x10068c0)
 10068a6:	6008      	str	r0, [r1, #0]
 10068a8:	f2af 00b5 	subw	r0, pc, #181	; 0xb5
 10068ac:	4905      	ldr	r1, [pc, #20]	; (0x10068c4)
 10068ae:	6008      	str	r0, [r1, #0]
 10068b0:	bd10      	pop	{r4, pc}
 10068b2:	0000      	movs	r0, r0
 10068b4:	c000      	stmia	r0!, {}
 10068b6:	4000      	ands	r0, r0
 10068b8:	452c      	cmp	r4, r5
 10068ba:	4000      	ands	r0, r0
 10068bc:	0148      	lsls	r0, r1, #5
 10068be:	2000      	movs	r0, #0
 10068c0:	014c      	lsls	r4, r1, #5
 10068c2:	2000      	movs	r0, #0
 10068c4:	0154      	lsls	r4, r2, #5
 10068c6:	2000      	movs	r0, #0
 10068c8:	48fa      	ldr	r0, [pc, #1000]	; (0x1006cb4)
 10068ca:	b510      	push	{r4, lr}
 10068cc:	2101      	movs	r1, #1
 10068ce:	7101      	strb	r1, [r0, #4]
 10068d0:	48f9      	ldr	r0, [pc, #996]	; (0x1006cb8)
 10068d2:	8842      	ldrh	r2, [r0, #2]
 10068d4:	7a82      	ldrb	r2, [r0, #10]
 10068d6:	80c1      	strh	r1, [r0, #6]
 10068d8:	2124      	movs	r1, #36	; 0x24
 10068da:	72c1      	strb	r1, [r0, #11]
 10068dc:	f7fe feb3 	bl	0x1005646
 10068e0:	49f6      	ldr	r1, [pc, #984]	; (0x1006cbc)
 10068e2:	f44f 5080 	mov.w	r0, #4096	; 0x1000
 10068e6:	6008      	str	r0, [r1, #0]
 10068e8:	bd10      	pop	{r4, pc}
 10068ea:	4bf5      	ldr	r3, [pc, #980]	; (0x1006cc0)
 10068ec:	2202      	movs	r2, #2
 10068ee:	609a      	str	r2, [r3, #8]
 10068f0:	f103 0284 	add.w	r2, r3, #132	; 0x84
 10068f4:	6090      	str	r0, [r2, #8]
 10068f6:	6111      	str	r1, [r2, #16]
 10068f8:	60d1      	str	r1, [r2, #12]
 10068fa:	4770      	bx	lr
 10068fc:	e92d 41f0 	stmdb	sp!, {r4, r5, r6, r7, r8, lr}
 1006900:	4eef      	ldr	r6, [pc, #956]	; (0x1006cc0)
 1006902:	2001      	movs	r0, #1
 1006904:	60b0      	str	r0, [r6, #8]
 1006906:	f106 0584 	add.w	r5, r6, #132	; 0x84
 100690a:	68ec      	ldr	r4, [r5, #12]
 100690c:	2c40      	cmp	r4, #64	; 0x40
 100690e:	bf88      	it	hi
 1006910:	2440      	movhi	r4, #64	; 0x40
 1006912:	68aa      	ldr	r2, [r5, #8]
 1006914:	68e8      	ldr	r0, [r5, #12]
 1006916:	1b00      	subs	r0, r0, r4
 1006918:	60e8      	str	r0, [r5, #12]
 100691a:	68a8      	ldr	r0, [r5, #8]
 100691c:	4420      	add	r0, r4
 100691e:	60a8      	str	r0, [r5, #8]
 1006920:	4fe5      	ldr	r7, [pc, #916]	; (0x1006cb8)
 1006922:	4623      	mov	r3, r4
 1006924:	2100      	movs	r1, #0
 1006926:	4638      	mov	r0, r7
 1006928:	f7fe ffe5 	bl	0x10058f6
 100692c:	2c40      	cmp	r4, #64	; 0x40
 100692e:	d00b      	beq.n	0x1006948
 1006930:	2103      	movs	r1, #3
 1006932:	60b1      	str	r1, [r6, #8]
 1006934:	f44f 7285 	mov.w	r2, #266	; 0x10a
 1006938:	2100      	movs	r1, #0
 100693a:	4638      	mov	r0, r7
 100693c:	f7fe fff8 	bl	0x1005930
 1006940:	2000      	movs	r0, #0
 1006942:	6128      	str	r0, [r5, #16]
 1006944:	e8bd 81f0 	ldmia.w	sp!, {r4, r5, r6, r7, r8, pc}
 1006948:	4638      	mov	r0, r7
 100694a:	e8bd 41f0 	ldmia.w	sp!, {r4, r5, r6, r7, r8, lr}
 100694e:	f44f 7281 	mov.w	r2, #258	; 0x102
 1006952:	2100      	movs	r1, #0
 1006954:	f7fe bfec 	b.w	0x1005930
 1006958:	4ad6      	ldr	r2, [pc, #856]	; (0x1006cb4)
 100695a:	6090      	str	r0, [r2, #8]
 100695c:	60d1      	str	r1, [r2, #12]
 100695e:	6111      	str	r1, [r2, #16]
 1006960:	e7cc      	b.n	0x10068fc
 1006962:	b510      	push	{r4, lr}
 1006964:	2200      	movs	r2, #0
 1006966:	4611      	mov	r1, r2
 1006968:	48d3      	ldr	r0, [pc, #844]	; (0x1006cb8)
 100696a:	f7fe ff19 	bl	0x10057a0
 100696e:	49d4      	ldr	r1, [pc, #848]	; (0x1006cc0)
 1006970:	2004      	movs	r0, #4
 1006972:	6088      	str	r0, [r1, #8]
 1006974:	bd10      	pop	{r4, pc}
 1006976:	b510      	push	{r4, lr}
 1006978:	7841      	ldrb	r1, [r0, #1]
 100697a:	2942      	cmp	r1, #66	; 0x42
 100697c:	d00b      	beq.n	0x1006996
 100697e:	49d0      	ldr	r1, [pc, #832]	; (0x1006cc0)
 1006980:	4ad0      	ldr	r2, [pc, #832]	; (0x1006cc4)
 1006982:	690b      	ldr	r3, [r1, #16]
 1006984:	f852 3023 	ldr.w	r3, [r2, r3, lsl #2]
 1006988:	b15b      	cbz	r3, 0x10069a2
 100698a:	6909      	ldr	r1, [r1, #16]
 100698c:	f852 1021 	ldr.w	r1, [r2, r1, lsl #2]
 1006990:	e8bd 4010 	ldmia.w	sp!, {r4, lr}
 1006994:	4708      	bx	r1
 1006996:	88c1      	ldrh	r1, [r0, #6]
 1006998:	2904      	cmp	r1, #4
 100699a:	bf04      	itt	eq
 100699c:	8840      	ldrheq	r0, [r0, #2]
 100699e:	2823      	cmpeq	r0, #35	; 0x23
 10069a0:	d002      	beq.n	0x10069a8
 10069a2:	e8bd 4010 	ldmia.w	sp!, {r4, lr}
 10069a6:	e7dc      	b.n	0x1006962
 10069a8:	2200      	movs	r2, #0
 10069aa:	4611      	mov	r1, r2
 10069ac:	48c2      	ldr	r0, [pc, #776]	; (0x1006cb8)
 10069ae:	f7fe fee5 	bl	0x100577c
 10069b2:	e8bd 4010 	ldmia.w	sp!, {r4, lr}
 10069b6:	2104      	movs	r1, #4
 10069b8:	48c3      	ldr	r0, [pc, #780]	; (0x1006cc8)
 10069ba:	e7cd      	b.n	0x1006958
 10069bc:	b538      	push	{r3, r4, r5, lr}
 10069be:	4cc3      	ldr	r4, [pc, #780]	; (0x1006ccc)
 10069c0:	2040      	movs	r0, #64	; 0x40
 10069c2:	9000      	str	r0, [sp, #0]
 10069c4:	466b      	mov	r3, sp
 10069c6:	4622      	mov	r2, r4
 10069c8:	2100      	movs	r1, #0
 10069ca:	48bb      	ldr	r0, [pc, #748]	; (0x1006cb8)
 10069cc:	f7fe ff69 	bl	0x10058a2
 10069d0:	9800      	ldr	r0, [sp, #0]
 10069d2:	2800      	cmp	r0, #0
 10069d4:	bf08      	it	eq
 10069d6:	bd38      	popeq	{r3, r4, r5, pc}
 10069d8:	7820      	ldrb	r0, [r4, #0]
 10069da:	f010 0f60 	tst.w	r0, #96	; 0x60
 10069de:	d003      	beq.n	0x10069e8
 10069e0:	4620      	mov	r0, r4
 10069e2:	f7ff ffc8 	bl	0x1006976
 10069e6:	bd38      	pop	{r3, r4, r5, pc}
 10069e8:	7860      	ldrb	r0, [r4, #1]
 10069ea:	280c      	cmp	r0, #12
 10069ec:	d206      	bcs.n	0x10069fc
 10069ee:	49b8      	ldr	r1, [pc, #736]	; (0x1006cd0)
 10069f0:	f851 1020 	ldr.w	r1, [r1, r0, lsl #2]
 10069f4:	b111      	cbz	r1, 0x10069fc
 10069f6:	4620      	mov	r0, r4
 10069f8:	4788      	blx	r1
 10069fa:	bd38      	pop	{r3, r4, r5, pc}
 10069fc:	f7ff ffb1 	bl	0x1006962
 1006a00:	bd38      	pop	{r3, r4, r5, pc}
 1006a02:	4408      	add	r0, r1
 1006a04:	49b3      	ldr	r1, [pc, #716]	; (0x1006cd4)
 1006a06:	68c9      	ldr	r1, [r1, #12]
 1006a08:	4288      	cmp	r0, r1
 1006a0a:	bf9c      	itt	ls
 1006a0c:	2001      	movls	r0, #1
 1006a0e:	4770      	bxls	lr
 1006a10:	2008      	movs	r0, #8
 1006a12:	49ab      	ldr	r1, [pc, #684]	; (0x1006cc0)
 1006a14:	6148      	str	r0, [r1, #20]
 1006a16:	2000      	movs	r0, #0
 1006a18:	4770      	bx	lr
 1006a1a:	2908      	cmp	r1, #8
 1006a1c:	bf3c      	itt	cc
 1006a1e:	2000      	movcc	r0, #0
 1006a20:	4770      	bxcc	lr
 1006a22:	e92d 41f0 	stmdb	sp!, {r4, r5, r6, r7, r8, lr}
 1006a26:	f8df c298 	ldr.w	ip, [pc, #664]	; 0x1006cc0
 1006a2a:	460e      	mov	r6, r1
 1006a2c:	7801      	ldrb	r1, [r0, #0]
 1006a2e:	f88c 1000 	strb.w	r1, [ip]
 1006a32:	f10c 0484 	add.w	r4, ip, #132	; 0x84
 1006a36:	f1a4 0268 	sub.w	r2, r4, #104	; 0x68
 1006a3a:	f890 8000 	ldrb.w	r8, [r0]
 1006a3e:	f002 4170 	and.w	r1, r2, #4026531840	; 0xf0000000
 1006a42:	2501      	movs	r5, #1
 1006a44:	f3c2 0213 	ubfx	r2, r2, #0, #20
 1006a48:	f1a4 0758 	sub.w	r7, r4, #88	; 0x58
 1006a4c:	ea41 1342 	orr.w	r3, r1, r2, lsl #5
 1006a50:	f1b8 0f08 	cmp.w	r8, #8
 1006a54:	d27e      	bcs.n	0x1006b54
 1006a56:	e8df f008 	tbb	[pc, r8]
 1006a5a:	04a0      	lsls	r0, r4, #18
 1006a5c:	3f2b      	subs	r7, #43	; 0x2b
 1006a5e:	8266      	strh	r6, [r4, #18]
 1006a60:	9489      	str	r4, [sp, #548]	; 0x224
 1006a62:	4602      	mov	r2, r0
 1006a64:	79a0      	ldrb	r0, [r4, #6]
 1006a66:	f040 0001 	orr.w	r0, r0, #1
 1006a6a:	71a0      	strb	r0, [r4, #6]
 1006a6c:	8850      	ldrh	r0, [r2, #2]
 1006a6e:	4c9a      	ldr	r4, [pc, #616]	; (0x1006cd8)
 1006a70:	0280      	lsls	r0, r0, #10
 1006a72:	6020      	str	r0, [r4, #0]
 1006a74:	8850      	ldrh	r0, [r2, #2]
 1006a76:	6851      	ldr	r1, [r2, #4]
 1006a78:	0280      	lsls	r0, r0, #10
 1006a7a:	f7ff ffc2 	bl	0x1006a02
 1006a7e:	2800      	cmp	r0, #0
 1006a80:	bf08      	it	eq
 1006a82:	e8bd 81f0 	ldmiaeq.w	sp!, {r4, r5, r6, r7, r8, pc}
 1006a86:	4995      	ldr	r1, [pc, #596]	; (0x1006cdc)
 1006a88:	6820      	ldr	r0, [r4, #0]
 1006a8a:	6008      	str	r0, [r1, #0]
 1006a8c:	6854      	ldr	r4, [r2, #4]
 1006a8e:	604c      	str	r4, [r1, #4]
 1006a90:	6038      	str	r0, [r7, #0]
 1006a92:	6850      	ldr	r0, [r2, #4]
 1006a94:	6078      	str	r0, [r7, #4]
 1006a96:	f102 0008 	add.w	r0, r2, #8
 1006a9a:	f8cc 0018 	str.w	r0, [ip, #24]
 1006a9e:	f1a6 0008 	sub.w	r0, r6, #8
 1006aa2:	f8ac 0004 	strh.w	r0, [ip, #4]
 1006aa6:	f043 0004 	orr.w	r0, r3, #4
 1006aaa:	f040 7000 	orr.w	r0, r0, #33554432	; 0x2000000
 1006aae:	e054      	b.n	0x1006b5a
 1006ab0:	79a1      	ldrb	r1, [r4, #6]
 1006ab2:	f041 0101 	orr.w	r1, r1, #1
 1006ab6:	71a1      	strb	r1, [r4, #6]
 1006ab8:	4602      	mov	r2, r0
 1006aba:	6841      	ldr	r1, [r0, #4]
 1006abc:	8840      	ldrh	r0, [r0, #2]
 1006abe:	0280      	lsls	r0, r0, #10
 1006ac0:	f7ff ff9f 	bl	0x1006a02
 1006ac4:	2800      	cmp	r0, #0
 1006ac6:	bf08      	it	eq
 1006ac8:	e8bd 81f0 	ldmiaeq.w	sp!, {r4, r5, r6, r7, r8, pc}
 1006acc:	8850      	ldrh	r0, [r2, #2]
 1006ace:	0280      	lsls	r0, r0, #10
 1006ad0:	6038      	str	r0, [r7, #0]
 1006ad2:	6850      	ldr	r0, [r2, #4]
 1006ad4:	6078      	str	r0, [r7, #4]
 1006ad6:	e05d      	b.n	0x1006b94
 1006ad8:	79a1      	ldrb	r1, [r4, #6]
 1006ada:	f041 0101 	orr.w	r1, r1, #1
 1006ade:	71a1      	strb	r1, [r4, #6]
 1006ae0:	4602      	mov	r2, r0
 1006ae2:	6841      	ldr	r1, [r0, #4]
 1006ae4:	8840      	ldrh	r0, [r0, #2]
 1006ae6:	0280      	lsls	r0, r0, #10
 1006ae8:	f7ff ff8b 	bl	0x1006a02
 1006aec:	2800      	cmp	r0, #0
 1006aee:	bf08      	it	eq
 1006af0:	e8bd 81f0 	ldmiaeq.w	sp!, {r4, r5, r6, r7, r8, pc}
 1006af4:	8850      	ldrh	r0, [r2, #2]
 1006af6:	6852      	ldr	r2, [r2, #4]
 1006af8:	0281      	lsls	r1, r0, #10
 1006afa:	2000      	movs	r0, #0
 1006afc:	ebb0 0f92 	cmp.w	r0, r2, lsr #2
 1006b00:	d20d      	bcs.n	0x1006b1e
 1006b02:	680b      	ldr	r3, [r1, #0]
 1006b04:	1c5b      	adds	r3, r3, #1
 1006b06:	d005      	beq.n	0x1006b14
 1006b08:	2005      	movs	r0, #5
 1006b0a:	f8cc 0014 	str.w	r0, [ip, #20]
 1006b0e:	2000      	movs	r0, #0
 1006b10:	e8bd 81f0 	ldmia.w	sp!, {r4, r5, r6, r7, r8, pc}
 1006b14:	1d09      	adds	r1, r1, #4
 1006b16:	1c40      	adds	r0, r0, #1
 1006b18:	ebb0 0f92 	cmp.w	r0, r2, lsr #2
 1006b1c:	d3f1      	bcc.n	0x1006b02
 1006b1e:	2000      	movs	r0, #0
 1006b20:	f8cc 0014 	str.w	r0, [ip, #20]
 1006b24:	e036      	b.n	0x1006b94
 1006b26:	79a1      	ldrb	r1, [r4, #6]
 1006b28:	f041 0101 	orr.w	r1, r1, #1
 1006b2c:	71a1      	strb	r1, [r4, #6]
 1006b2e:	4602      	mov	r2, r0
 1006b30:	8880      	ldrh	r0, [r0, #4]
 1006b32:	0281      	lsls	r1, r0, #10
 1006b34:	8850      	ldrh	r0, [r2, #2]
 1006b36:	0280      	lsls	r0, r0, #10
 1006b38:	f7ff ff63 	bl	0x1006a02
 1006b3c:	2800      	cmp	r0, #0
 1006b3e:	bf08      	it	eq
 1006b40:	e8bd 81f0 	ldmiaeq.w	sp!, {r4, r5, r6, r7, r8, pc}
 1006b44:	8850      	ldrh	r0, [r2, #2]
 1006b46:	0281      	lsls	r1, r0, #10
 1006b48:	4865      	ldr	r0, [pc, #404]	; (0x1006ce0)
 1006b4a:	6001      	str	r1, [r0, #0]
 1006b4c:	8891      	ldrh	r1, [r2, #4]
 1006b4e:	0289      	lsls	r1, r1, #10
 1006b50:	6041      	str	r1, [r0, #4]
 1006b52:	e000      	b.n	0x1006b56
 1006b54:	e021      	b.n	0x1006b9a
 1006b56:	f043 7000 	orr.w	r0, r3, #33554432	; 0x2000000
 1006b5a:	6005      	str	r5, [r0, #0]
 1006b5c:	e01a      	b.n	0x1006b94
 1006b5e:	485d      	ldr	r0, [pc, #372]	; (0x1006cd4)
 1006b60:	6038      	str	r0, [r7, #0]
 1006b62:	2014      	movs	r0, #20
 1006b64:	6078      	str	r0, [r7, #4]
 1006b66:	f88c 5002 	strb.w	r5, [ip, #2]
 1006b6a:	e013      	b.n	0x1006b94
 1006b6c:	79a1      	ldrb	r1, [r4, #6]
 1006b6e:	f041 0101 	orr.w	r1, r1, #1
 1006b72:	71a1      	strb	r1, [r4, #6]
 1006b74:	7840      	ldrb	r0, [r0, #1]
 1006b76:	2800      	cmp	r0, #0
 1006b78:	bf18      	it	ne
 1006b7a:	2001      	movne	r0, #1
 1006b7c:	f88c 0001 	strb.w	r0, [ip, #1]
 1006b80:	e008      	b.n	0x1006b94
 1006b82:	79a0      	ldrb	r0, [r4, #6]
 1006b84:	f040 0001 	orr.w	r0, r0, #1
 1006b88:	71a0      	strb	r0, [r4, #6]
 1006b8a:	f043 0008 	orr.w	r0, r3, #8
 1006b8e:	f040 7000 	orr.w	r0, r0, #33554432	; 0x2000000
 1006b92:	6005      	str	r5, [r0, #0]
 1006b94:	2001      	movs	r0, #1
 1006b96:	e8bd 81f0 	ldmia.w	sp!, {r4, r5, r6, r7, r8, pc}
 1006b9a:	200b      	movs	r0, #11
 1006b9c:	f8cc 0014 	str.w	r0, [ip, #20]
 1006ba0:	2000      	movs	r0, #0
 1006ba2:	e8bd 81f0 	ldmia.w	sp!, {r4, r5, r6, r7, r8, pc}
 1006ba6:	b510      	push	{r4, lr}
 1006ba8:	4c45      	ldr	r4, [pc, #276]	; (0x1006cc0)
 1006baa:	6922      	ldr	r2, [r4, #16]
 1006bac:	2a02      	cmp	r2, #2
 1006bae:	d016      	beq.n	0x1006bde
 1006bb0:	80a0      	strh	r0, [r4, #4]
 1006bb2:	f104 011c 	add.w	r1, r4, #28
 1006bb6:	f104 021c 	add.w	r2, r4, #28
 1006bba:	f001 4170 	and.w	r1, r1, #4026531840	; 0xf0000000
 1006bbe:	f3c2 0213 	ubfx	r2, r2, #0, #20
 1006bc2:	ea41 1142 	orr.w	r1, r1, r2, lsl #5
 1006bc6:	f104 00ac 	add.w	r0, r4, #172	; 0xac
 1006bca:	f041 0104 	orr.w	r1, r1, #4
 1006bce:	61a0      	str	r0, [r4, #24]
 1006bd0:	f041 7100 	orr.w	r1, r1, #33554432	; 0x2000000
 1006bd4:	2001      	movs	r0, #1
 1006bd6:	6008      	str	r0, [r1, #0]
 1006bd8:	2003      	movs	r0, #3
 1006bda:	6120      	str	r0, [r4, #16]
 1006bdc:	bd10      	pop	{r4, pc}
 1006bde:	4601      	mov	r1, r0
 1006be0:	4840      	ldr	r0, [pc, #256]	; (0x1006ce4)
 1006be2:	f7ff ff1a 	bl	0x1006a1a
 1006be6:	2800      	cmp	r0, #0
 1006be8:	bf08      	it	eq
 1006bea:	200a      	moveq	r0, #10
 1006bec:	d0f5      	beq.n	0x1006bda
 1006bee:	e7f3      	b.n	0x1006bd8
 1006bf0:	b5f8      	push	{r3, r4, r5, r6, r7, lr}
 1006bf2:	4e31      	ldr	r6, [pc, #196]	; (0x1006cb8)
 1006bf4:	2100      	movs	r1, #0
 1006bf6:	4630      	mov	r0, r6
 1006bf8:	f7fe feee 	bl	0x10059d8
 1006bfc:	4d30      	ldr	r5, [pc, #192]	; (0x1006cc0)
 1006bfe:	68a9      	ldr	r1, [r5, #8]
 1006c00:	2700      	movs	r7, #0
 1006c02:	f105 0484 	add.w	r4, r5, #132	; 0x84
 1006c06:	2905      	cmp	r1, #5
 1006c08:	bf28      	it	cs
 1006c0a:	bdf8      	popcs	{r3, r4, r5, r6, r7, pc}
 1006c0c:	e8df f001 	tbb	[pc, r1]
 1006c10:	1912      	adds	r2, r2, r4
 1006c12:	031c      	lsls	r4, r3, #12
 1006c14:	0046      	lsls	r6, r0, #1
 1006c16:	60af      	str	r7, [r5, #8]
 1006c18:	6821      	ldr	r1, [r4, #0]
 1006c1a:	f011 4f00 	tst.w	r1, #2147483648	; 0x80000000
 1006c1e:	d005      	beq.n	0x1006c2c
 1006c20:	6821      	ldr	r1, [r4, #0]
 1006c22:	f021 4100 	bic.w	r1, r1, #2147483648	; 0x80000000
 1006c26:	6021      	str	r1, [r4, #0]
 1006c28:	6821      	ldr	r1, [r4, #0]
 1006c2a:	7031      	strb	r1, [r6, #0]
 1006c2c:	f010 0f01 	tst.w	r0, #1
 1006c30:	d104      	bne.n	0x1006c3c
 1006c32:	bdf8      	pop	{r3, r4, r5, r6, r7, pc}
 1006c34:	f010 0f01 	tst.w	r0, #1
 1006c38:	bf08      	it	eq
 1006c3a:	bdf8      	popeq	{r3, r4, r5, r6, r7, pc}
 1006c3c:	e8bd 40f8 	ldmia.w	sp!, {r3, r4, r5, r6, r7, lr}
 1006c40:	e6bc      	b.n	0x10069bc
 1006c42:	e8bd 40f8 	ldmia.w	sp!, {r3, r4, r5, r6, r7, lr}
 1006c46:	e659      	b.n	0x10068fc
 1006c48:	68e0      	ldr	r0, [r4, #12]
 1006c4a:	2840      	cmp	r0, #64	; 0x40
 1006c4c:	bf8c      	ite	hi
 1006c4e:	2040      	movhi	r0, #64	; 0x40
 1006c50:	68e0      	ldrls	r0, [r4, #12]
 1006c52:	9000      	str	r0, [sp, #0]
 1006c54:	68a2      	ldr	r2, [r4, #8]
 1006c56:	466b      	mov	r3, sp
 1006c58:	2100      	movs	r1, #0
 1006c5a:	4630      	mov	r0, r6
 1006c5c:	f7fe fe21 	bl	0x10058a2
 1006c60:	68e1      	ldr	r1, [r4, #12]
 1006c62:	2940      	cmp	r1, #64	; 0x40
 1006c64:	d20d      	bcs.n	0x1006c82
 1006c66:	2201      	movs	r2, #1
 1006c68:	2100      	movs	r1, #0
 1006c6a:	4630      	mov	r0, r6
 1006c6c:	f7fe fd86 	bl	0x100577c
 1006c70:	2003      	movs	r0, #3
 1006c72:	60a8      	str	r0, [r5, #8]
 1006c74:	6920      	ldr	r0, [r4, #16]
 1006c76:	b148      	cbz	r0, 0x1006c8c
 1006c78:	6920      	ldr	r0, [r4, #16]
 1006c7a:	f7ff ff94 	bl	0x1006ba6
 1006c7e:	6127      	str	r7, [r4, #16]
 1006c80:	e004      	b.n	0x1006c8c
 1006c82:	2200      	movs	r2, #0
 1006c84:	4611      	mov	r1, r2
 1006c86:	4630      	mov	r0, r6
 1006c88:	f7fe fd78 	bl	0x100577c
 1006c8c:	68a1      	ldr	r1, [r4, #8]
 1006c8e:	9800      	ldr	r0, [sp, #0]
 1006c90:	4401      	add	r1, r0
 1006c92:	60a1      	str	r1, [r4, #8]
 1006c94:	68e1      	ldr	r1, [r4, #12]
 1006c96:	1a08      	subs	r0, r1, r0
 1006c98:	60e0      	str	r0, [r4, #12]
 1006c9a:	bdf8      	pop	{r3, r4, r5, r6, r7, pc}
 1006c9c:	f010 0f04 	tst.w	r0, #4
 1006ca0:	bf08      	it	eq
 1006ca2:	bdf8      	popeq	{r3, r4, r5, r6, r7, pc}
 1006ca4:	f896 0102 	ldrb.w	r0, [r6, #258]	; 0x102
 1006ca8:	f020 0004 	bic.w	r0, r0, #4
 1006cac:	f886 0102 	strb.w	r0, [r6, #258]	; 0x102
 1006cb0:	60af      	str	r7, [r5, #8]
 1006cb2:	bdf8      	pop	{r3, r4, r5, r6, r7, pc}
 1006cb4:	02f8      	lsls	r0, r7, #11
 1006cb6:	2000      	movs	r0, #0
 1006cb8:	0000      	movs	r0, r0
 1006cba:	4005      	ands	r5, r0
 1006cbc:	e104      	b.n	0x1006ec8
 1006cbe:	e000      	b.n	0x1006cc2
 1006cc0:	0274      	lsls	r4, r6, #9
 1006cc2:	2000      	movs	r0, #0
 1006cc4:	8704      	strh	r4, [r0, #56]	; 0x38
 1006cc6:	0100      	lsls	r0, r0, #4
 1006cc8:	0280      	lsls	r0, r0, #10
 1006cca:	2000      	movs	r0, #0
 1006ccc:	02b8      	lsls	r0, r7, #10
 1006cce:	2000      	movs	r0, #0
 1006cd0:	86d4      	strh	r4, [r2, #54]	; 0x36
 1006cd2:	0100      	lsls	r0, r0, #4
 1006cd4:	030c      	lsls	r4, r1, #12
 1006cd6:	2000      	movs	r0, #0
 1006cd8:	0164      	lsls	r4, r4, #5
 1006cda:	2000      	movs	r0, #0
 1006cdc:	02a8      	lsls	r0, r5, #10
 1006cde:	2000      	movs	r0, #0
 1006ce0:	02b0      	lsls	r0, r6, #10
 1006ce2:	2000      	movs	r0, #0
 1006ce4:	0320      	lsls	r0, r4, #12
 1006ce6:	2000      	movs	r0, #0
 1006ce8:	48f9      	ldr	r0, [pc, #996]	; (0x10070d0)
 1006cea:	6901      	ldr	r1, [r0, #16]
 1006cec:	2905      	cmp	r1, #5
 1006cee:	bf1a      	itte	ne
 1006cf0:	6901      	ldrne	r1, [r0, #16]
 1006cf2:	2903      	cmpne	r1, #3
 1006cf4:	4770      	bxeq	lr
 1006cf6:	6901      	ldr	r1, [r0, #16]
 1006cf8:	2902      	cmp	r1, #2
 1006cfa:	bf1a      	itte	ne
 1006cfc:	78c0      	ldrbne	r0, [r0, #3]
 1006cfe:	2800      	cmpne	r0, #0
 1006d00:	4770      	bxeq	lr
 1006d02:	2001      	movs	r0, #1
 1006d04:	49f3      	ldr	r1, [pc, #972]	; (0x10070d4)
 1006d06:	4af3      	ldr	r2, [pc, #972]	; (0x10070d4)
 1006d08:	f001 4170 	and.w	r1, r1, #4026531840	; 0xf0000000
 1006d0c:	f3c2 0213 	ubfx	r2, r2, #0, #20
 1006d10:	ea41 1142 	orr.w	r1, r1, r2, lsl #5
 1006d14:	f041 0108 	orr.w	r1, r1, #8
 1006d18:	f041 7100 	orr.w	r1, r1, #33554432	; 0x2000000
 1006d1c:	6008      	str	r0, [r1, #0]
 1006d1e:	4770      	bx	lr
 1006d20:	b500      	push	{lr}
 1006d22:	f7ff ffe1 	bl	0x1006ce8
 1006d26:	48ec      	ldr	r0, [pc, #944]	; (0x10070d8)
 1006d28:	2101      	movs	r1, #1
 1006d2a:	7101      	strb	r1, [r0, #4]
 1006d2c:	2100      	movs	r1, #0
 1006d2e:	7141      	strb	r1, [r0, #5]
 1006d30:	bd00      	pop	{pc}
 1006d32:	b508      	push	{r3, lr}
 1006d34:	7800      	ldrb	r0, [r0, #0]
 1006d36:	f010 001f 	ands.w	r0, r0, #31
 1006d3a:	bf08      	it	eq
 1006d3c:	2001      	moveq	r0, #1
 1006d3e:	d006      	beq.n	0x1006d4e
 1006d40:	2801      	cmp	r0, #1
 1006d42:	bf08      	it	eq
 1006d44:	2000      	moveq	r0, #0
 1006d46:	d002      	beq.n	0x1006d4e
 1006d48:	f7ff fe0b 	bl	0x1006962
 1006d4c:	bd08      	pop	{r3, pc}
 1006d4e:	f8ad 0000 	strh.w	r0, [sp]
 1006d52:	48e1      	ldr	r0, [pc, #900]	; (0x10070d8)
 1006d54:	2102      	movs	r1, #2
 1006d56:	60c1      	str	r1, [r0, #12]
 1006d58:	f8c0 d008 	str.w	sp, [r0, #8]
 1006d5c:	f7ff fdce 	bl	0x10068fc
 1006d60:	bd08      	pop	{r3, pc}
 1006d62:	48db      	ldr	r0, [pc, #876]	; (0x10070d0)
 1006d64:	2102      	movs	r1, #2
 1006d66:	6101      	str	r1, [r0, #16]
 1006d68:	2100      	movs	r1, #0
 1006d6a:	6141      	str	r1, [r0, #20]
 1006d6c:	2201      	movs	r2, #1
 1006d6e:	70c2      	strb	r2, [r0, #3]
 1006d70:	f100 0234 	add.w	r2, r0, #52	; 0x34
 1006d74:	6011      	str	r1, [r2, #0]
 1006d76:	3098      	adds	r0, #152	; 0x98
 1006d78:	68c0      	ldr	r0, [r0, #12]
 1006d7a:	6050      	str	r0, [r2, #4]
 1006d7c:	3a08      	subs	r2, #8
 1006d7e:	e9c2 1000 	strd	r1, r0, [r2]
 1006d82:	4770      	bx	lr
 1006d84:	b510      	push	{r4, lr}
 1006d86:	4604      	mov	r4, r0
 1006d88:	2201      	movs	r2, #1
 1006d8a:	2100      	movs	r1, #0
 1006d8c:	48d3      	ldr	r0, [pc, #844]	; (0x10070dc)
 1006d8e:	f7fe fcf5 	bl	0x100577c
 1006d92:	8860      	ldrh	r0, [r4, #2]
 1006d94:	49d0      	ldr	r1, [pc, #832]	; (0x10070d8)
 1006d96:	f040 4000 	orr.w	r0, r0, #2147483648	; 0x80000000
 1006d9a:	6008      	str	r0, [r1, #0]
 1006d9c:	2003      	movs	r0, #3
 1006d9e:	3984      	subs	r1, #132	; 0x84
 1006da0:	6088      	str	r0, [r1, #8]
 1006da2:	e8bd 4010 	ldmia.w	sp!, {r4, lr}
 1006da6:	e7dc      	b.n	0x1006d62
 1006da8:	4603      	mov	r3, r0
 1006daa:	b470      	push	{r4, r5, r6}
 1006dac:	48c8      	ldr	r0, [pc, #800]	; (0x10070d0)
 1006dae:	2900      	cmp	r1, #0
 1006db0:	6a00      	ldr	r0, [r0, #32]
 1006db2:	bf04      	itt	eq
 1006db4:	bc70      	popeq	{r4, r5, r6}
 1006db6:	4770      	bxeq	lr
 1006db8:	f890 c000 	ldrb.w	ip, [r0]
 1006dbc:	f04f 36ff 	mov.w	r6, #4294967295	; 0xffffffff
 1006dc0:	f1ac 0202 	sub.w	r2, ip, #2
 1006dc4:	1055      	asrs	r5, r2, #1
 1006dc6:	2200      	movs	r2, #0
 1006dc8:	2d00      	cmp	r5, #0
 1006dca:	dd08      	ble.n	0x1006dde
 1006dcc:	eb00 0442 	add.w	r4, r0, r2, lsl #1
 1006dd0:	8864      	ldrh	r4, [r4, #2]
 1006dd2:	429c      	cmp	r4, r3
 1006dd4:	bf08      	it	eq
 1006dd6:	4616      	moveq	r6, r2
 1006dd8:	1c52      	adds	r2, r2, #1
 1006dda:	42aa      	cmp	r2, r5
 1006ddc:	dbf6      	blt.n	0x1006dcc
 1006dde:	1c72      	adds	r2, r6, #1
 1006de0:	d01d      	beq.n	0x1006e1e
 1006de2:	eb0c 0400 	add.w	r4, ip, r0
 1006de6:	f04f 0c00 	mov.w	ip, #0
 1006dea:	2301      	movs	r3, #1
 1006dec:	4660      	mov	r0, ip
 1006dee:	4299      	cmp	r1, r3
 1006df0:	d10b      	bne.n	0x1006e0a
 1006df2:	f1bc 0f00 	cmp.w	ip, #0
 1006df6:	bf08      	it	eq
 1006df8:	4620      	moveq	r0, r4
 1006dfa:	45b4      	cmp	ip, r6
 1006dfc:	d105      	bne.n	0x1006e0a
 1006dfe:	7821      	ldrb	r1, [r4, #0]
 1006e00:	2902      	cmp	r1, #2
 1006e02:	bf18      	it	ne
 1006e04:	4620      	movne	r0, r4
 1006e06:	bc70      	pop	{r4, r5, r6}
 1006e08:	4770      	bx	lr
 1006e0a:	7822      	ldrb	r2, [r4, #0]
 1006e0c:	2b03      	cmp	r3, #3
 1006e0e:	4414      	add	r4, r2
 1006e10:	bfa6      	itte	ge
 1006e12:	2301      	movge	r3, #1
 1006e14:	f10c 0c01 	addge.w	ip, ip, #1
 1006e18:	1c5b      	addlt	r3, r3, #1
 1006e1a:	45ac      	cmp	ip, r5
 1006e1c:	dbe7      	blt.n	0x1006dee
 1006e1e:	bc70      	pop	{r4, r5, r6}
 1006e20:	2000      	movs	r0, #0
 1006e22:	4770      	bx	lr
 1006e24:	b570      	push	{r4, r5, r6, lr}
 1006e26:	4604      	mov	r4, r0
 1006e28:	2200      	movs	r2, #0
 1006e2a:	4611      	mov	r1, r2
 1006e2c:	48ab      	ldr	r0, [pc, #684]	; (0x10070dc)
 1006e2e:	f7fe fca5 	bl	0x100577c
 1006e32:	8860      	ldrh	r0, [r4, #2]
 1006e34:	4da8      	ldr	r5, [pc, #672]	; (0x10070d8)
 1006e36:	0a01      	lsrs	r1, r0, #8
 1006e38:	2901      	cmp	r1, #1
 1006e3a:	d013      	beq.n	0x1006e64
 1006e3c:	2600      	movs	r6, #0
 1006e3e:	2902      	cmp	r1, #2
 1006e40:	d014      	beq.n	0x1006e6c
 1006e42:	2903      	cmp	r1, #3
 1006e44:	d01f      	beq.n	0x1006e86
 1006e46:	f7ff fd8c 	bl	0x1006962
 1006e4a:	60ae      	str	r6, [r5, #8]
 1006e4c:	68a8      	ldr	r0, [r5, #8]
 1006e4e:	2800      	cmp	r0, #0
 1006e50:	bf08      	it	eq
 1006e52:	bd70      	popeq	{r4, r5, r6, pc}
 1006e54:	68e9      	ldr	r1, [r5, #12]
 1006e56:	88e0      	ldrh	r0, [r4, #6]
 1006e58:	4281      	cmp	r1, r0
 1006e5a:	bf88      	it	hi
 1006e5c:	60e8      	strhi	r0, [r5, #12]
 1006e5e:	e8bd 4070 	ldmia.w	sp!, {r4, r5, r6, lr}
 1006e62:	e54b      	b.n	0x10068fc
 1006e64:	489e      	ldr	r0, [pc, #632]	; (0x10070e0)
 1006e66:	60a8      	str	r0, [r5, #8]
 1006e68:	7800      	ldrb	r0, [r0, #0]
 1006e6a:	e00a      	b.n	0x1006e82
 1006e6c:	f010 0fff 	tst.w	r0, #255	; 0xff
 1006e70:	d004      	beq.n	0x1006e7c
 1006e72:	f7ff fd76 	bl	0x1006962
 1006e76:	60ae      	str	r6, [r5, #8]
 1006e78:	60ee      	str	r6, [r5, #12]
 1006e7a:	e7e7      	b.n	0x1006e4c
 1006e7c:	4899      	ldr	r0, [pc, #612]	; (0x10070e4)
 1006e7e:	60a8      	str	r0, [r5, #8]
 1006e80:	8840      	ldrh	r0, [r0, #2]
 1006e82:	60e8      	str	r0, [r5, #12]
 1006e84:	e7e2      	b.n	0x1006e4c
 1006e86:	b2c1      	uxtb	r1, r0
 1006e88:	88a0      	ldrh	r0, [r4, #4]
 1006e8a:	f7ff ff8d 	bl	0x1006da8
 1006e8e:	60a8      	str	r0, [r5, #8]
 1006e90:	68a8      	ldr	r0, [r5, #8]
 1006e92:	b118      	cbz	r0, 0x1006e9c
 1006e94:	68a8      	ldr	r0, [r5, #8]
 1006e96:	7800      	ldrb	r0, [r0, #0]
 1006e98:	60e8      	str	r0, [r5, #12]
 1006e9a:	e7d7      	b.n	0x1006e4c
 1006e9c:	f7ff fd61 	bl	0x1006962
 1006ea0:	e7d4      	b.n	0x1006e4c
 1006ea2:	488d      	ldr	r0, [pc, #564]	; (0x10070d8)
 1006ea4:	b508      	push	{r3, lr}
 1006ea6:	6801      	ldr	r1, [r0, #0]
 1006ea8:	f011 4f00 	tst.w	r1, #2147483648	; 0x80000000
 1006eac:	bf14      	ite	ne
 1006eae:	2100      	movne	r1, #0
 1006eb0:	7901      	ldrbeq	r1, [r0, #4]
 1006eb2:	f88d 1000 	strb.w	r1, [sp]
 1006eb6:	2101      	movs	r1, #1
 1006eb8:	60c1      	str	r1, [r0, #12]
 1006eba:	f8c0 d008 	str.w	sp, [r0, #8]
 1006ebe:	f7ff fd1d 	bl	0x10068fc
 1006ec2:	bd08      	pop	{r3, pc}
 1006ec4:	4882      	ldr	r0, [pc, #520]	; (0x10070d0)
 1006ec6:	2102      	movs	r1, #2
 1006ec8:	6101      	str	r1, [r0, #16]
 1006eca:	2100      	movs	r1, #0
 1006ecc:	6141      	str	r1, [r0, #20]
 1006ece:	4770      	bx	lr
 1006ed0:	b510      	push	{r4, lr}
 1006ed2:	4604      	mov	r4, r0
 1006ed4:	8840      	ldrh	r0, [r0, #2]
 1006ed6:	2801      	cmp	r0, #1
 1006ed8:	d902      	bls.n	0x1006ee0
 1006eda:	e8bd 4010 	ldmia.w	sp!, {r4, lr}
 1006ede:	e540      	b.n	0x1006962
 1006ee0:	2201      	movs	r2, #1
 1006ee2:	2100      	movs	r1, #0
 1006ee4:	487d      	ldr	r0, [pc, #500]	; (0x10070dc)
 1006ee6:	f7fe fc49 	bl	0x100577c
 1006eea:	487b      	ldr	r0, [pc, #492]	; (0x10070d8)
 1006eec:	8861      	ldrh	r1, [r4, #2]
 1006eee:	7101      	strb	r1, [r0, #4]
 1006ef0:	7900      	ldrb	r0, [r0, #4]
 1006ef2:	e8bd 4010 	ldmia.w	sp!, {r4, lr}
 1006ef6:	e7e5      	b.n	0x1006ec4
 1006ef8:	4977      	ldr	r1, [pc, #476]	; (0x10070d8)
 1006efa:	b508      	push	{r3, lr}
 1006efc:	680a      	ldr	r2, [r1, #0]
 1006efe:	f012 4f00 	tst.w	r2, #2147483648	; 0x80000000
 1006f02:	bf18      	it	ne
 1006f04:	2000      	movne	r0, #0
 1006f06:	d008      	beq.n	0x1006f1a
 1006f08:	f88d 0000 	strb.w	r0, [sp]
 1006f0c:	2001      	movs	r0, #1
 1006f0e:	60c8      	str	r0, [r1, #12]
 1006f10:	f8c1 d008 	str.w	sp, [r1, #8]
 1006f14:	f7ff fcf2 	bl	0x10068fc
 1006f18:	bd08      	pop	{r3, pc}
 1006f1a:	8880      	ldrh	r0, [r0, #4]
 1006f1c:	2800      	cmp	r0, #0
 1006f1e:	bf08      	it	eq
 1006f20:	7948      	ldrbeq	r0, [r1, #5]
 1006f22:	d0f1      	beq.n	0x1006f08
 1006f24:	f7ff fd1d 	bl	0x1006962
 1006f28:	bd08      	pop	{r3, pc}
 1006f2a:	8881      	ldrh	r1, [r0, #4]
 1006f2c:	2900      	cmp	r1, #0
 1006f2e:	bf04      	itt	eq
 1006f30:	8840      	ldrheq	r0, [r0, #2]
 1006f32:	2800      	cmpeq	r0, #0
 1006f34:	d000      	beq.n	0x1006f38
 1006f36:	e514      	b.n	0x1006962
 1006f38:	2201      	movs	r2, #1
 1006f3a:	2100      	movs	r1, #0
 1006f3c:	4867      	ldr	r0, [pc, #412]	; (0x10070dc)
 1006f3e:	f7fe bc1d 	b.w	0x100577c
 1006f42:	4963      	ldr	r1, [pc, #396]	; (0x10070d0)
 1006f44:	2000      	movs	r0, #0
 1006f46:	70c8      	strb	r0, [r1, #3]
 1006f48:	4770      	bx	lr
 1006f4a:	4864      	ldr	r0, [pc, #400]	; (0x10070dc)
 1006f4c:	b510      	push	{r4, lr}
 1006f4e:	f8b0 c002 	ldrh.w	ip, [r0, #2]
 1006f52:	7a83      	ldrb	r3, [r0, #10]
 1006f54:	f013 0f04 	tst.w	r3, #4
 1006f58:	bf18      	it	ne
 1006f5a:	f7ff fee1 	blne	0x1006d20
 1006f5e:	f013 0f20 	tst.w	r3, #32
 1006f62:	bf18      	it	ne
 1006f64:	f7ff ffed 	blne	0x1006f42
 1006f68:	f01c 0f01 	tst.w	ip, #1
 1006f6c:	bf08      	it	eq
 1006f6e:	bd10      	popeq	{r4, pc}
 1006f70:	e8bd 4010 	ldmia.w	sp!, {r4, lr}
 1006f74:	e63c      	b.n	0x1006bf0
 1006f76:	b510      	push	{r4, lr}
 1006f78:	2200      	movs	r2, #0
 1006f7a:	4611      	mov	r1, r2
 1006f7c:	4857      	ldr	r0, [pc, #348]	; (0x10070dc)
 1006f7e:	f7fe fbfd 	bl	0x100577c
 1006f82:	4953      	ldr	r1, [pc, #332]	; (0x10070d0)
 1006f84:	690a      	ldr	r2, [r1, #16]
 1006f86:	f101 0024 	add.w	r0, r1, #36	; 0x24
 1006f8a:	7102      	strb	r2, [r0, #4]
 1006f8c:	6949      	ldr	r1, [r1, #20]
 1006f8e:	7001      	strb	r1, [r0, #0]
 1006f90:	e8bd 4010 	ldmia.w	sp!, {r4, lr}
 1006f94:	2106      	movs	r1, #6
 1006f96:	e4df      	b.n	0x1006958
 1006f98:	b570      	push	{r4, r5, r6, lr}
 1006f9a:	4604      	mov	r4, r0
 1006f9c:	460e      	mov	r6, r1
 1006f9e:	2200      	movs	r2, #0
 1006fa0:	4611      	mov	r1, r2
 1006fa2:	484e      	ldr	r0, [pc, #312]	; (0x10070dc)
 1006fa4:	f7fe fbea 	bl	0x100577c
 1006fa8:	4d4f      	ldr	r5, [pc, #316]	; (0x10070e8)
 1006faa:	2e00      	cmp	r6, #0
 1006fac:	6868      	ldr	r0, [r5, #4]
 1006fae:	bf14      	ite	ne
 1006fb0:	2108      	movne	r1, #8
 1006fb2:	2100      	moveq	r1, #0
 1006fb4:	4401      	add	r1, r0
 1006fb6:	f5b4 6f80 	cmp.w	r4, #1024	; 0x400
 1006fba:	bf88      	it	hi
 1006fbc:	f44f 6480 	movhi.w	r4, #1024	; 0x400
 1006fc0:	4620      	mov	r0, r4
 1006fc2:	428c      	cmp	r4, r1
 1006fc4:	bf88      	it	hi
 1006fc6:	4608      	movhi	r0, r1
 1006fc8:	b284      	uxth	r4, r0
 1006fca:	b336      	cbz	r6, 0x100701a
 1006fcc:	4847      	ldr	r0, [pc, #284]	; (0x10070ec)
 1006fce:	2101      	movs	r1, #1
 1006fd0:	f100 0308 	add.w	r3, r0, #8
 1006fd4:	7001      	strb	r1, [r0, #0]
 1006fd6:	2100      	movs	r1, #0
 1006fd8:	7041      	strb	r1, [r0, #1]
 1006fda:	6829      	ldr	r1, [r5, #0]
 1006fdc:	0a89      	lsrs	r1, r1, #10
 1006fde:	8041      	strh	r1, [r0, #2]
 1006fe0:	6869      	ldr	r1, [r5, #4]
 1006fe2:	6041      	str	r1, [r0, #4]
 1006fe4:	f8d5 c000 	ldr.w	ip, [r5]
 1006fe8:	f1b4 0208 	subs.w	r2, r4, #8
 1006fec:	d005      	beq.n	0x1006ffa
 1006fee:	f81c 1b01 	ldrb.w	r1, [ip], #1
 1006ff2:	f803 1b01 	strb.w	r1, [r3], #1
 1006ff6:	1e52      	subs	r2, r2, #1
 1006ff8:	d1f9      	bne.n	0x1006fee
 1006ffa:	4621      	mov	r1, r4
 1006ffc:	f7ff fcac 	bl	0x1006958
 1007000:	6828      	ldr	r0, [r5, #0]
 1007002:	f1a4 0108 	sub.w	r1, r4, #8
 1007006:	4408      	add	r0, r1
 1007008:	6028      	str	r0, [r5, #0]
 100700a:	6868      	ldr	r0, [r5, #4]
 100700c:	1b00      	subs	r0, r0, r4
 100700e:	3008      	adds	r0, #8
 1007010:	6068      	str	r0, [r5, #4]
 1007012:	f5b4 6f80 	cmp.w	r4, #1024	; 0x400
 1007016:	d10e      	bne.n	0x1007036
 1007018:	e009      	b.n	0x100702e
 100701a:	4621      	mov	r1, r4
 100701c:	6828      	ldr	r0, [r5, #0]
 100701e:	f7ff fc9b 	bl	0x1006958
 1007022:	6828      	ldr	r0, [r5, #0]
 1007024:	4420      	add	r0, r4
 1007026:	6028      	str	r0, [r5, #0]
 1007028:	6868      	ldr	r0, [r5, #4]
 100702a:	1b00      	subs	r0, r0, r4
 100702c:	e7f0      	b.n	0x1007010
 100702e:	2800      	cmp	r0, #0
 1007030:	bf1c      	itt	ne
 1007032:	2001      	movne	r0, #1
 1007034:	bd70      	popne	{r4, r5, r6, pc}
 1007036:	2000      	movs	r0, #0
 1007038:	bd70      	pop	{r4, r5, r6, pc}
 100703a:	b510      	push	{r4, lr}
 100703c:	2200      	movs	r2, #0
 100703e:	4611      	mov	r1, r2
 1007040:	4826      	ldr	r0, [pc, #152]	; (0x10070dc)
 1007042:	f7fe fb9b 	bl	0x100577c
 1007046:	4822      	ldr	r0, [pc, #136]	; (0x10070d0)
 1007048:	6901      	ldr	r1, [r0, #16]
 100704a:	3024      	adds	r0, #36	; 0x24
 100704c:	f800 1f04 	strb.w	r1, [r0, #4]!
 1007050:	e8bd 4010 	ldmia.w	sp!, {r4, lr}
 1007054:	2101      	movs	r1, #1
 1007056:	e47f      	b.n	0x1006958
 1007058:	b510      	push	{r4, lr}
 100705a:	7841      	ldrb	r1, [r0, #1]
 100705c:	2907      	cmp	r1, #7
 100705e:	d229      	bcs.n	0x10070b4
 1007060:	e8df f001 	tbb	[pc, r1]
 1007064:	0428      	lsls	r0, r5, #16
 1007066:	2210      	movs	r2, #16
 1007068:	2528      	movs	r5, #40	; 0x28
 100706a:	0009      	movs	r1, r1
 100706c:	88c1      	ldrh	r1, [r0, #6]
 100706e:	b309      	cbz	r1, 0x10070b4
 1007070:	481e      	ldr	r0, [pc, #120]	; (0x10070ec)
 1007072:	f7ff fc3a 	bl	0x10068ea
 1007076:	2200      	movs	r2, #0
 1007078:	e8bd 4010 	ldmia.w	sp!, {r4, lr}
 100707c:	4611      	mov	r1, r2
 100707e:	4817      	ldr	r0, [pc, #92]	; (0x10070dc)
 1007080:	f7fe bb7c 	b.w	0x100577c
 1007084:	4c12      	ldr	r4, [pc, #72]	; (0x10070d0)
 1007086:	78a1      	ldrb	r1, [r4, #2]
 1007088:	2900      	cmp	r1, #0
 100708a:	bf05      	ittet	eq
 100708c:	7861      	ldrbeq	r1, [r4, #1]
 100708e:	2900      	cmpeq	r1, #0
 1007090:	2100      	movne	r1, #0
 1007092:	2101      	moveq	r1, #1
 1007094:	88c0      	ldrh	r0, [r0, #6]
 1007096:	f7ff ff7f 	bl	0x1006f98
 100709a:	2800      	cmp	r0, #0
 100709c:	bf1c      	itt	ne
 100709e:	2009      	movne	r0, #9
 10070a0:	6120      	strne	r0, [r4, #16]
 10070a2:	2000      	movs	r0, #0
 10070a4:	70a0      	strb	r0, [r4, #2]
 10070a6:	bd10      	pop	{r4, pc}
 10070a8:	e8bd 4010 	ldmia.w	sp!, {r4, lr}
 10070ac:	e763      	b.n	0x1006f76
 10070ae:	e8bd 4010 	ldmia.w	sp!, {r4, lr}
 10070b2:	e7c2      	b.n	0x100703a
 10070b4:	e8bd 4010 	ldmia.w	sp!, {r4, lr}
 10070b8:	e453      	b.n	0x1006962
 10070ba:	7840      	ldrb	r0, [r0, #1]
 10070bc:	4904      	ldr	r1, [pc, #16]	; (0x10070d0)
 10070be:	2803      	cmp	r0, #3
 10070c0:	d016      	beq.n	0x10070f0
 10070c2:	2805      	cmp	r0, #5
 10070c4:	bf04      	itt	eq
 10070c6:	6908      	ldreq	r0, [r1, #16]
 10070c8:	2803      	cmpeq	r0, #3
 10070ca:	d01a      	beq.n	0x1007102
 10070cc:	e449      	b.n	0x1006962
 10070ce:	0000      	movs	r0, r0
 10070d0:	0274      	lsls	r4, r6, #9
 10070d2:	2000      	movs	r0, #0
 10070d4:	0290      	lsls	r0, r2, #10
 10070d6:	2000      	movs	r0, #0
 10070d8:	02f8      	lsls	r0, r7, #11
 10070da:	2000      	movs	r0, #0
 10070dc:	0000      	movs	r0, r0
 10070de:	4005      	ands	r5, r0
 10070e0:	0720      	lsls	r0, r4, #28
 10070e2:	2000      	movs	r0, #0
 10070e4:	0732      	lsls	r2, r6, #28
 10070e6:	2000      	movs	r0, #0
 10070e8:	02a0      	lsls	r0, r4, #10
 10070ea:	2000      	movs	r0, #0
 10070ec:	0320      	lsls	r0, r4, #12
 10070ee:	2000      	movs	r0, #0
 10070f0:	69c8      	ldr	r0, [r1, #28]
 10070f2:	b928      	cbnz	r0, 0x1007100
 10070f4:	7808      	ldrb	r0, [r1, #0]
 10070f6:	2801      	cmp	r0, #1
 10070f8:	bf14      	ite	ne
 10070fa:	2002      	movne	r0, #2
 10070fc:	2005      	moveq	r0, #5
 10070fe:	6108      	str	r0, [r1, #16]
 1007100:	e739      	b.n	0x1006f76
 1007102:	e79a      	b.n	0x100703a
 1007104:	b510      	push	{r4, lr}
 1007106:	7841      	ldrb	r1, [r0, #1]
 1007108:	4bff      	ldr	r3, [pc, #1020]	; (0x1007508)
 100710a:	2901      	cmp	r1, #1
 100710c:	f1a3 0234 	sub.w	r2, r3, #52	; 0x34
 1007110:	d008      	beq.n	0x1007124
 1007112:	2903      	cmp	r1, #3
 1007114:	d01e      	beq.n	0x1007154
 1007116:	2905      	cmp	r1, #5
 1007118:	d01f      	beq.n	0x100715a
 100711a:	2906      	cmp	r1, #6
 100711c:	d020      	beq.n	0x1007160
 100711e:	e8bd 4010 	ldmia.w	sp!, {r4, lr}
 1007122:	e41e      	b.n	0x1006962
 1007124:	88c1      	ldrh	r1, [r0, #6]
 1007126:	b119      	cbz	r1, 0x1007130
 1007128:	48f8      	ldr	r0, [pc, #992]	; (0x100750c)
 100712a:	f7ff fbde 	bl	0x10068ea
 100712e:	e00a      	b.n	0x1007146
 1007130:	6858      	ldr	r0, [r3, #4]
 1007132:	2800      	cmp	r0, #0
 1007134:	bf1f      	itttt	ne
 1007136:	200a      	movne	r0, #10
 1007138:	6110      	strne	r0, [r2, #16]
 100713a:	2009      	movne	r0, #9
 100713c:	6150      	strne	r0, [r2, #20]
 100713e:	bf08      	it	eq
 1007140:	2006      	moveq	r0, #6
 1007142:	d100      	bne.n	0x1007146
 1007144:	6110      	str	r0, [r2, #16]
 1007146:	2200      	movs	r2, #0
 1007148:	e8bd 4010 	ldmia.w	sp!, {r4, lr}
 100714c:	4611      	mov	r1, r2
 100714e:	48f0      	ldr	r0, [pc, #960]	; (0x1007510)
 1007150:	f7fe bb14 	b.w	0x100577c
 1007154:	e8bd 4010 	ldmia.w	sp!, {r4, lr}
 1007158:	e70d      	b.n	0x1006f76
 100715a:	e8bd 4010 	ldmia.w	sp!, {r4, lr}
 100715e:	e76c      	b.n	0x100703a
 1007160:	2000      	movs	r0, #0
 1007162:	6018      	str	r0, [r3, #0]
 1007164:	48eb      	ldr	r0, [pc, #940]	; (0x1007514)
 1007166:	68c0      	ldr	r0, [r0, #12]
 1007168:	6058      	str	r0, [r3, #4]
 100716a:	2002      	movs	r0, #2
 100716c:	e7ea      	b.n	0x1007144
 100716e:	7840      	ldrb	r0, [r0, #1]
 1007170:	2803      	cmp	r0, #3
 1007172:	d003      	beq.n	0x100717c
 1007174:	2805      	cmp	r0, #5
 1007176:	d005      	beq.n	0x1007184
 1007178:	f7ff bbf3 	b.w	0x1006962
 100717c:	49e6      	ldr	r1, [pc, #920]	; (0x1007518)
 100717e:	2002      	movs	r0, #2
 1007180:	6108      	str	r0, [r1, #16]
 1007182:	e6f8      	b.n	0x1006f76
 1007184:	e759      	b.n	0x100703a
 1007186:	e92d 41f0 	stmdb	sp!, {r4, r5, r6, r7, r8, lr}
 100718a:	4ee3      	ldr	r6, [pc, #908]	; (0x1007518)
 100718c:	7841      	ldrb	r1, [r0, #1]
 100718e:	2502      	movs	r5, #2
 1007190:	f106 042c 	add.w	r4, r6, #44	; 0x2c
 1007194:	f04f 0800 	mov.w	r8, #0
 1007198:	f104 076c 	add.w	r7, r4, #108	; 0x6c
 100719c:	2902      	cmp	r1, #2
 100719e:	d009      	beq.n	0x10071b4
 10071a0:	2903      	cmp	r1, #3
 10071a2:	d016      	beq.n	0x10071d2
 10071a4:	2905      	cmp	r1, #5
 10071a6:	d017      	beq.n	0x10071d8
 10071a8:	2906      	cmp	r1, #6
 10071aa:	d018      	beq.n	0x10071de
 10071ac:	e8bd 41f0 	ldmia.w	sp!, {r4, r5, r6, r7, r8, lr}
 10071b0:	f7ff bbd7 	b.w	0x1006962
 10071b4:	88c0      	ldrh	r0, [r0, #6]
 10071b6:	2100      	movs	r1, #0
 10071b8:	f7ff feee 	bl	0x1006f98
 10071bc:	2800      	cmp	r0, #0
 10071be:	bf18      	it	ne
 10071c0:	e8bd 81f0 	ldmiane.w	sp!, {r4, r5, r6, r7, r8, pc}
 10071c4:	6135      	str	r5, [r6, #16]
 10071c6:	f8c4 8000 	str.w	r8, [r4]
 10071ca:	68f8      	ldr	r0, [r7, #12]
 10071cc:	6060      	str	r0, [r4, #4]
 10071ce:	e8bd 81f0 	ldmia.w	sp!, {r4, r5, r6, r7, r8, pc}
 10071d2:	e8bd 41f0 	ldmia.w	sp!, {r4, r5, r6, r7, r8, lr}
 10071d6:	e6ce      	b.n	0x1006f76
 10071d8:	e8bd 41f0 	ldmia.w	sp!, {r4, r5, r6, r7, r8, lr}
 10071dc:	e72d      	b.n	0x100703a
 10071de:	f8c4 8000 	str.w	r8, [r4]
 10071e2:	68f8      	ldr	r0, [r7, #12]
 10071e4:	6060      	str	r0, [r4, #4]
 10071e6:	6135      	str	r5, [r6, #16]
 10071e8:	e8bd 81f0 	ldmia.w	sp!, {r4, r5, r6, r7, r8, pc}
 10071ec:	7840      	ldrb	r0, [r0, #1]
 10071ee:	2803      	cmp	r0, #3
 10071f0:	d005      	beq.n	0x10071fe
 10071f2:	2804      	cmp	r0, #4
 10071f4:	d005      	beq.n	0x1007202
 10071f6:	2805      	cmp	r0, #5
 10071f8:	d002      	beq.n	0x1007200
 10071fa:	f7ff bbb2 	b.w	0x1006962
 10071fe:	e6ba      	b.n	0x1006f76
 1007200:	e71b      	b.n	0x100703a
 1007202:	48c5      	ldr	r0, [pc, #788]	; (0x1007518)
 1007204:	2102      	movs	r1, #2
 1007206:	6101      	str	r1, [r0, #16]
 1007208:	2100      	movs	r1, #0
 100720a:	6141      	str	r1, [r0, #20]
 100720c:	460a      	mov	r2, r1
 100720e:	48c0      	ldr	r0, [pc, #768]	; (0x1007510)
 1007210:	f7fe bab4 	b.w	0x100577c
 1007214:	48c1      	ldr	r0, [pc, #772]	; (0x100751c)
 1007216:	7980      	ldrb	r0, [r0, #6]
 1007218:	f010 0001 	ands.w	r0, r0, #1
 100721c:	bf08      	it	eq
 100721e:	4770      	bxeq	lr
 1007220:	e92d 47f0 	stmdb	sp!, {r4, r5, r6, r7, r8, r9, sl, lr}
 1007224:	f8df 92f0 	ldr.w	r9, [pc, #752]	; 0x1007518
 1007228:	f8d9 001c 	ldr.w	r0, [r9, #28]
 100722c:	2800      	cmp	r0, #0
 100722e:	d06f      	beq.n	0x1007310
 1007230:	f109 001c 	add.w	r0, r9, #28
 1007234:	f109 011c 	add.w	r1, r9, #28
 1007238:	f000 4070 	and.w	r0, r0, #4026531840	; 0xf0000000
 100723c:	f3c1 0113 	ubfx	r1, r1, #0, #20
 1007240:	ea40 1741 	orr.w	r7, r0, r1, lsl #5
 1007244:	f047 0008 	orr.w	r0, r7, #8
 1007248:	f040 7000 	orr.w	r0, r0, #33554432	; 0x2000000
 100724c:	6800      	ldr	r0, [r0, #0]
 100724e:	b118      	cbz	r0, 0x1007258
 1007250:	f8d9 0008 	ldr.w	r0, [r9, #8]
 1007254:	2800      	cmp	r0, #0
 1007256:	d05c      	beq.n	0x1007312
 1007258:	f047 7800 	orr.w	r8, r7, #33554432	; 0x2000000
 100725c:	f8d8 0000 	ldr.w	r0, [r8]
 1007260:	f04f 0a00 	mov.w	sl, #0
 1007264:	b188      	cbz	r0, 0x100728a
 1007266:	4eae      	ldr	r6, [pc, #696]	; (0x1007520)
 1007268:	6875      	ldr	r5, [r6, #4]
 100726a:	6834      	ldr	r4, [r6, #0]
 100726c:	6830      	ldr	r0, [r6, #0]
 100726e:	4428      	add	r0, r5
 1007270:	42a0      	cmp	r0, r4
 1007272:	d908      	bls.n	0x1007286
 1007274:	4620      	mov	r0, r4
 1007276:	f7fa fd63 	bl	0x1001d40
 100727a:	6830      	ldr	r0, [r6, #0]
 100727c:	f504 6480 	add.w	r4, r4, #1024	; 0x400
 1007280:	4428      	add	r0, r5
 1007282:	42a0      	cmp	r0, r4
 1007284:	d8f6      	bhi.n	0x1007274
 1007286:	f8c8 a000 	str.w	sl, [r8]
 100728a:	f047 0604 	orr.w	r6, r7, #4
 100728e:	f046 7600 	orr.w	r6, r6, #33554432	; 0x2000000
 1007292:	6830      	ldr	r0, [r6, #0]
 1007294:	2800      	cmp	r0, #0
 1007296:	d04d      	beq.n	0x1007334
 1007298:	4f9b      	ldr	r7, [pc, #620]	; (0x1007508)
 100729a:	683d      	ldr	r5, [r7, #0]
 100729c:	f8b9 4004 	ldrh.w	r4, [r9, #4]
 10072a0:	6838      	ldr	r0, [r7, #0]
 10072a2:	1e61      	subs	r1, r4, #1
 10072a4:	4408      	add	r0, r1
 10072a6:	05a9      	lsls	r1, r5, #22
 10072a8:	0d89      	lsrs	r1, r1, #22
 10072aa:	d035      	beq.n	0x1007318
 10072ac:	4629      	mov	r1, r5
 10072ae:	4602      	mov	r2, r0
 10072b0:	f36f 0109 	bfc	r1, #0, #10
 10072b4:	f36f 0209 	bfc	r2, #0, #10
 10072b8:	4291      	cmp	r1, r2
 10072ba:	bf1c      	itt	ne
 10072bc:	f36f 0009 	bfcne	r0, #0, #10
 10072c0:	f7fa fd3e 	blne	0x1001d40
 10072c4:	6838      	ldr	r0, [r7, #0]
 10072c6:	4420      	add	r0, r4
 10072c8:	6038      	str	r0, [r7, #0]
 10072ca:	6878      	ldr	r0, [r7, #4]
 10072cc:	1b00      	subs	r0, r0, r4
 10072ce:	6078      	str	r0, [r7, #4]
 10072d0:	f8df 8250 	ldr.w	r8, [pc, #592]	; 0x1007524
 10072d4:	b18c      	cbz	r4, 0x10072fa
 10072d6:	f8d8 0000 	ldr.w	r0, [r8]
 10072da:	42a8      	cmp	r0, r5
 10072dc:	d10d      	bne.n	0x10072fa
 10072de:	f8d9 0018 	ldr.w	r0, [r9, #24]
 10072e2:	4991      	ldr	r1, [pc, #580]	; (0x1007528)
 10072e4:	6802      	ldr	r2, [r0, #0]
 10072e6:	600a      	str	r2, [r1, #0]
 10072e8:	6842      	ldr	r2, [r0, #4]
 10072ea:	3008      	adds	r0, #8
 10072ec:	604a      	str	r2, [r1, #4]
 10072ee:	f8c9 0018 	str.w	r0, [r9, #24]
 10072f2:	f1a4 0008 	sub.w	r0, r4, #8
 10072f6:	3508      	adds	r5, #8
 10072f8:	b284      	uxth	r4, r0
 10072fa:	1ce0      	adds	r0, r4, #3
 10072fc:	f020 0203 	bic.w	r2, r0, #3
 1007300:	4629      	mov	r1, r5
 1007302:	f8d9 0018 	ldr.w	r0, [r9, #24]
 1007306:	f7fa fd2c 	bl	0x1001d62
 100730a:	6878      	ldr	r0, [r7, #4]
 100730c:	b980      	cbnz	r0, 0x1007330
 100730e:	e009      	b.n	0x1007324
 1007310:	e010      	b.n	0x1007334
 1007312:	f7fd fdd3 	bl	0x1004ebc
 1007316:	e7fe      	b.n	0x1007316
 1007318:	4628      	mov	r0, r5
 100731a:	f36f 0009 	bfc	r0, #0, #10
 100731e:	f7fa fd0f 	bl	0x1001d40
 1007322:	e7cf      	b.n	0x10072c4
 1007324:	2208      	movs	r2, #8
 1007326:	4880      	ldr	r0, [pc, #512]	; (0x1007528)
 1007328:	f8d8 1000 	ldr.w	r1, [r8]
 100732c:	f7fa fd19 	bl	0x1001d62
 1007330:	f8c6 a000 	str.w	sl, [r6]
 1007334:	2001      	movs	r0, #1
 1007336:	e8bd 87f0 	ldmia.w	sp!, {r4, r5, r6, r7, r8, r9, sl, pc}
 100733a:	f2af 30f1 	subw	r0, pc, #1009	; 0x3f1
 100733e:	497b      	ldr	r1, [pc, #492]	; (0x100752c)
 1007340:	f8c1 00f0 	str.w	r0, [r1, #240]	; 0xf0
 1007344:	4975      	ldr	r1, [pc, #468]	; (0x100751c)
 1007346:	2000      	movs	r0, #0
 1007348:	6008      	str	r0, [r1, #0]
 100734a:	3984      	subs	r1, #132	; 0x84
 100734c:	6088      	str	r0, [r1, #8]
 100734e:	70c8      	strb	r0, [r1, #3]
 1007350:	7088      	strb	r0, [r1, #2]
 1007352:	2202      	movs	r2, #2
 1007354:	610a      	str	r2, [r1, #16]
 1007356:	6148      	str	r0, [r1, #20]
 1007358:	4b75      	ldr	r3, [pc, #468]	; (0x1007530)
 100735a:	620b      	str	r3, [r1, #32]
 100735c:	f101 0324 	add.w	r3, r1, #36	; 0x24
 1007360:	f04f 0c05 	mov.w	ip, #5
 1007364:	f883 c001 	strb.w	ip, [r3, #1]
 1007368:	711a      	strb	r2, [r3, #4]
 100736a:	61c8      	str	r0, [r1, #28]
 100736c:	f101 020c 	add.w	r2, r1, #12
 1007370:	f644 434d 	movw	r3, #19533	; 0x4c4d
 1007374:	8013      	strh	r3, [r2, #0]
 1007376:	2301      	movs	r3, #1
 1007378:	8053      	strh	r3, [r2, #2]
 100737a:	4b6e      	ldr	r3, [pc, #440]	; (0x1007534)
 100737c:	7048      	strb	r0, [r1, #1]
 100737e:	6899      	ldr	r1, [r3, #8]
 1007380:	f44f 6c80 	mov.w	ip, #1024	; 0x400
 1007384:	b289      	uxth	r1, r1
 1007386:	1c49      	adds	r1, r1, #1
 1007388:	02c9      	lsls	r1, r1, #11
 100738a:	328c      	adds	r2, #140	; 0x8c
 100738c:	f8a2 c000 	strh.w	ip, [r2]
 1007390:	ea4f 2c91 	mov.w	ip, r1, lsr #10
 1007394:	f8a2 c002 	strh.w	ip, [r2, #2]
 1007398:	f8d3 c000 	ldr.w	ip, [r3]
 100739c:	f8c2 c008 	str.w	ip, [r2, #8]
 10073a0:	685b      	ldr	r3, [r3, #4]
 10073a2:	6053      	str	r3, [r2, #4]
 10073a4:	e9c2 1003 	strd	r1, r0, [r2, #12]
 10073a8:	4963      	ldr	r1, [pc, #396]	; (0x1007538)
 10073aa:	f202 4214 	addw	r2, r2, #1044	; 0x414
 10073ae:	5c0b      	ldrb	r3, [r1, r0]
 10073b0:	5413      	strb	r3, [r2, r0]
 10073b2:	1c40      	adds	r0, r0, #1
 10073b4:	2812      	cmp	r0, #18
 10073b6:	d3fa      	bcc.n	0x10073ae
 10073b8:	4a60      	ldr	r2, [pc, #384]	; (0x100753c)
 10073ba:	4961      	ldr	r1, [pc, #388]	; (0x1007540)
 10073bc:	2000      	movs	r0, #0
 10073be:	5c13      	ldrb	r3, [r2, r0]
 10073c0:	540b      	strb	r3, [r1, r0]
 10073c2:	1c40      	adds	r0, r0, #1
 10073c4:	281b      	cmp	r0, #27
 10073c6:	d3fa      	bcc.n	0x10073be
 10073c8:	4770      	bx	lr
 10073ca:	b510      	push	{r4, lr}
 10073cc:	4c59      	ldr	r4, [pc, #356]	; (0x1007534)
 10073ce:	6860      	ldr	r0, [r4, #4]
 10073d0:	4a5c      	ldr	r2, [pc, #368]	; (0x1007544)
 10073d2:	f3c0 2081 	ubfx	r0, r0, #10, #2
 10073d6:	eb02 01c0 	add.w	r1, r2, r0, lsl #3
 10073da:	f852 0030 	ldr.w	r0, [r2, r0, lsl #3]
 10073de:	6849      	ldr	r1, [r1, #4]
 10073e0:	b2c9      	uxtb	r1, r1
 10073e2:	f7fb f81c 	bl	0x100241e
 10073e6:	4858      	ldr	r0, [pc, #352]	; (0x1007548)
 10073e8:	f7fa fb61 	bl	0x1001aae
 10073ec:	f7ff ffa5 	bl	0x100733a
 10073f0:	6f20      	ldr	r0, [r4, #112]	; 0x70
 10073f2:	f420 4080 	bic.w	r0, r0, #16384	; 0x4000
 10073f6:	6720      	str	r0, [r4, #112]	; 0x70
 10073f8:	e8bd 4010 	ldmia.w	sp!, {r4, lr}
 10073fc:	f7ff ba64 	b.w	0x10068c8
 1007400:	f2af 10ef 	subw	r0, pc, #495	; 0x1ef
 1007404:	4951      	ldr	r1, [pc, #324]	; (0x100754c)
 1007406:	6008      	str	r0, [r1, #0]
 1007408:	4770      	bx	lr
 100740a:	4604      	mov	r4, r0
 100740c:	f7ff ff95 	bl	0x100733a
 1007410:	4941      	ldr	r1, [pc, #260]	; (0x1007518)
 1007412:	2c00      	cmp	r4, #0
 1007414:	bf08      	it	eq
 1007416:	4846      	ldreq	r0, [pc, #280]	; (0x1007530)
 1007418:	d013      	beq.n	0x1007442
 100741a:	484d      	ldr	r0, [pc, #308]	; (0x1007550)
 100741c:	7822      	ldrb	r2, [r4, #0]
 100741e:	7202      	strb	r2, [r0, #8]
 1007420:	7862      	ldrb	r2, [r4, #1]
 1007422:	7242      	strb	r2, [r0, #9]
 1007424:	78a2      	ldrb	r2, [r4, #2]
 1007426:	7282      	strb	r2, [r0, #10]
 1007428:	78e2      	ldrb	r2, [r4, #3]
 100742a:	72c2      	strb	r2, [r0, #11]
 100742c:	7922      	ldrb	r2, [r4, #4]
 100742e:	7302      	strb	r2, [r0, #12]
 1007430:	7962      	ldrb	r2, [r4, #5]
 1007432:	7342      	strb	r2, [r0, #13]
 1007434:	3012      	adds	r0, #18
 1007436:	79a2      	ldrb	r2, [r4, #6]
 1007438:	71c2      	strb	r2, [r0, #7]
 100743a:	79e2      	ldrb	r2, [r4, #7]
 100743c:	7202      	strb	r2, [r0, #8]
 100743e:	f104 0008 	add.w	r0, r4, #8
 1007442:	6208      	str	r0, [r1, #32]
 1007444:	f7ff fa40 	bl	0x10068c8
 1007448:	f7ff fee4 	bl	0x1007214
 100744c:	e7fc      	b.n	0x1007448
 100744e:	e92d 5ff0 	stmdb	sp!, {r4, r5, r6, r7, r8, r9, sl, fp, ip, lr}
 1007452:	4c38      	ldr	r4, [pc, #224]	; (0x1007534)
 1007454:	6e20      	ldr	r0, [r4, #96]	; 0x60
 1007456:	f020 00c1 	bic.w	r0, r0, #193	; 0xc1
 100745a:	f420 60e0 	bic.w	r0, r0, #1792	; 0x700
 100745e:	f440 60a8 	orr.w	r0, r0, #1344	; 0x540
 1007462:	6620      	str	r0, [r4, #96]	; 0x60
 1007464:	4d3b      	ldr	r5, [pc, #236]	; (0x1007554)
 1007466:	4628      	mov	r0, r5
 1007468:	f7f9 fddc 	bl	0x1001024
 100746c:	2703      	movs	r7, #3
 100746e:	67e7      	str	r7, [r4, #124]	; 0x7c
 1007470:	4628      	mov	r0, r5
 1007472:	f7f9 fdd7 	bl	0x1001024
 1007476:	2508      	movs	r5, #8
 1007478:	65a5      	str	r5, [r4, #88]	; 0x58
 100747a:	f241 40d5 	movw	r0, #5333	; 0x14d5
 100747e:	f7f9 fdd1 	bl	0x1001024
 1007482:	2600      	movs	r6, #0
 1007484:	67e6      	str	r6, [r4, #124]	; 0x7c
 1007486:	6d20      	ldr	r0, [r4, #80]	; 0x50
 1007488:	65a5      	str	r5, [r4, #88]	; 0x58
 100748a:	f010 0f08 	tst.w	r0, #8
 100748e:	d004      	beq.n	0x100749a
 1007490:	6e20      	ldr	r0, [r4, #96]	; 0x60
 1007492:	f040 0001 	orr.w	r0, r0, #1
 1007496:	6620      	str	r0, [r4, #96]	; 0x60
 1007498:	e082      	b.n	0x10075a0
 100749a:	482f      	ldr	r0, [pc, #188]	; (0x1007558)
 100749c:	f7fd fa79 	bl	0x1004992
 10074a0:	2001      	movs	r0, #1
 10074a2:	f8c4 0618 	str.w	r0, [r4, #1560]	; 0x618
 10074a6:	f8c4 7600 	str.w	r7, [r4, #1536]	; 0x600
 10074aa:	f8d4 0a00 	ldr.w	r0, [r4, #2560]	; 0xa00
 10074ae:	2803      	cmp	r0, #3
 10074b0:	d1fb      	bne.n	0x10074aa
 10074b2:	f04f 4080 	mov.w	r0, #1073741824	; 0x40000000
 10074b6:	f7fe fd73 	bl	0x1005fa0
 10074ba:	4d28      	ldr	r5, [pc, #160]	; (0x100755c)
 10074bc:	4628      	mov	r0, r5
 10074be:	f7fe fd6f 	bl	0x1005fa0
 10074c2:	04aa      	lsls	r2, r5, #18
 10074c4:	f8d2 8004 	ldr.w	r8, [r2, #4]
 10074c8:	f8d5 c004 	ldr.w	ip, [r5, #4]
 10074cc:	f241 7970 	movw	r9, #6000	; 0x1770
 10074d0:	6850      	ldr	r0, [r2, #4]
 10074d2:	6869      	ldr	r1, [r5, #4]
 10074d4:	f8d2 a004 	ldr.w	sl, [r2, #4]
 10074d8:	686b      	ldr	r3, [r5, #4]
 10074da:	ebac 0b01 	sub.w	fp, ip, r1
 10074de:	45cb      	cmp	fp, r9
 10074e0:	d3f6      	bcc.n	0x10074d0
 10074e2:	f8c4 6600 	str.w	r6, [r4, #1536]	; 0x600
 10074e6:	f8c4 7500 	str.w	r7, [r4, #1280]	; 0x500
 10074ea:	f8c4 6500 	str.w	r6, [r4, #1280]	; 0x500
 10074ee:	eba8 0200 	sub.w	r2, r8, r0
 10074f2:	eba0 000a 	sub.w	r0, r0, sl
 10074f6:	1a10      	subs	r0, r2, r0
 10074f8:	ebac 0201 	sub.w	r2, ip, r1
 10074fc:	1ac9      	subs	r1, r1, r3
 10074fe:	1a51      	subs	r1, r2, r1
 1007500:	f44f 62c8 	mov.w	r2, #1600	; 0x640
 1007504:	4350      	muls	r0, r2
 1007506:	e02b      	b.n	0x1007560
 1007508:	02a8      	lsls	r0, r5, #10
 100750a:	2000      	movs	r0, #0
 100750c:	0320      	lsls	r0, r4, #12
 100750e:	2000      	movs	r0, #0
 1007510:	0000      	movs	r0, r0
 1007512:	4005      	ands	r5, r0
 1007514:	030c      	lsls	r4, r1, #12
 1007516:	2000      	movs	r0, #0
 1007518:	0274      	lsls	r4, r6, #9
 100751a:	2000      	movs	r0, #0
 100751c:	02f8      	lsls	r0, r7, #11
 100751e:	2000      	movs	r0, #0
 1007520:	02b0      	lsls	r0, r6, #10
 1007522:	2000      	movs	r0, #0
 1007524:	0164      	lsls	r4, r4, #5
 1007526:	2000      	movs	r0, #0
 1007528:	0168      	lsls	r0, r5, #5
 100752a:	2000      	movs	r0, #0
 100752c:	0000      	movs	r0, r0
 100752e:	2000      	movs	r0, #0
 1007530:	8730      	strh	r0, [r6, #56]	; 0x38
 1007532:	0100      	lsls	r0, r0, #4
 1007534:	e000      	b.n	0x1007538
 1007536:	400f      	ands	r7, r1
 1007538:	87c6      	strh	r6, [r0, #62]	; 0x3e
 100753a:	0100      	lsls	r0, r0, #4
 100753c:	87d8      	strh	r0, [r3, #62]	; 0x3e
 100753e:	0100      	lsls	r0, r0, #4
 1007540:	0732      	lsls	r2, r6, #28
 1007542:	2000      	movs	r0, #0
 1007544:	8688      	strh	r0, [r1, #52]	; 0x34
 1007546:	0100      	lsls	r0, r0, #4
 1007548:	0001      	movs	r1, r0
 100754a:	2010      	movs	r0, #16
 100754c:	0154      	lsls	r4, r2, #5
 100754e:	2000      	movs	r0, #0
 1007550:	0720      	lsls	r0, r4, #28
 1007552:	2000      	movs	r0, #0
 1007554:	a0aa      	add	r0, pc, #680	; (adr r0, 0x1007800)
 1007556:	0001      	movs	r1, r0
 1007558:	3800      	subs	r0, #0
 100755a:	0780      	lsls	r0, r0, #30
 100755c:	1000      	asrs	r0, r0, #32
 100755e:	4000      	ands	r0, r0
 1007560:	fbb0 f4f1 	udiv	r4, r0, r1
 1007564:	4810      	ldr	r0, [pc, #64]	; (0x10075a8)
 1007566:	2100      	movs	r1, #0
 1007568:	f830 2021 	ldrh.w	r2, [r0, r1, lsl #2]
 100756c:	42a2      	cmp	r2, r4
 100756e:	d804      	bhi.n	0x100757a
 1007570:	eb00 0281 	add.w	r2, r0, r1, lsl #2
 1007574:	8852      	ldrh	r2, [r2, #2]
 1007576:	42a2      	cmp	r2, r4
 1007578:	d202      	bcs.n	0x1007580
 100757a:	1c49      	adds	r1, r1, #1
 100757c:	290a      	cmp	r1, #10
 100757e:	d3f3      	bcc.n	0x1007568
 1007580:	290a      	cmp	r1, #10
 1007582:	d00a      	beq.n	0x100759a
 1007584:	4809      	ldr	r0, [pc, #36]	; (0x10075ac)
 1007586:	5c40      	ldrb	r0, [r0, r1]
 1007588:	f04f 7170 	mov.w	r1, #62914560	; 0x3c00000
 100758c:	ea41 1000 	orr.w	r0, r1, r0, lsl #4
 1007590:	f7fd f9ff 	bl	0x1004992
 1007594:	4620      	mov	r0, r4
 1007596:	e8bd 9ff0 	ldmia.w	sp!, {r4, r5, r6, r7, r8, r9, sl, fp, ip, pc}
 100759a:	4805      	ldr	r0, [pc, #20]	; (0x10075b0)
 100759c:	f7fd f9f9 	bl	0x1004992
 10075a0:	2000      	movs	r0, #0
 10075a2:	e8bd 9ff0 	ldmia.w	sp!, {r4, r5, r6, r7, r8, r9, sl, fp, ip, pc}
 10075a6:	0000      	movs	r0, r0
 10075a8:	86aa      	strh	r2, [r5, #52]	; 0x34
 10075aa:	0100      	lsls	r0, r0, #4
 10075ac:	86a0      	strh	r0, [r4, #52]	; 0x34
 10075ae:	0100      	lsls	r0, r0, #4
 10075b0:	3811      	subs	r0, #17
 10075b2:	0780      	lsls	r0, r0, #30
 10075b4:	bf30      	wfi
 10075b6:	4770      	bx	lr
 10075b8:	f3ef 8010 	mrs	r0, PRIMASK
 10075bc:	b672      	cpsid	i
 10075be:	4770      	bx	lr
 10075c0:	f3ef 8010 	mrs	r0, PRIMASK
 10075c4:	b662      	cpsie	i
 10075c6:	4770      	bx	lr
 10075c8:	f3ef 8011 	mrs	r0, BASEPRI
 10075cc:	4770      	bx	lr
 10075ce:	0000      	movs	r0, r0
 10075d0:	f380 8811 	msr	BASEPRI, r0
 10075d4:	4770      	bx	lr
 10075d6:	0000      	movs	r0, r0
 10075d8:	0100      	lsls	r0, r0, #4
 10075da:	0200      	lsls	r0, r0, #8
 10075dc:	1240      	asrs	r0, r0, #9
 10075de:	1340      	asrs	r0, r0, #13
 10075e0:	2380      	movs	r3, #128	; 0x80
 10075e2:	2480      	movs	r4, #128	; 0x80
 10075e4:	34c0      	adds	r4, #192	; 0xc0
 10075e6:	35c0      	adds	r5, #192	; 0xc0
 10075e8:	45c0      	cmp	r8, r8
 10075ea:	46c0      	nop			; (mov r8, r8)
 10075ec:	56c0      	ldrsb	r0, [r0, r3]
 10075ee:	57c0      	ldrsb	r0, [r0, r7]
 10075f0:	67c0      	str	r0, [r0, #124]	; 0x7c
 10075f2:	68c0      	ldr	r0, [r0, #12]
 10075f4:	78c0      	ldrb	r0, [r0, #3]
 10075f6:	79c0      	ldrb	r0, [r0, #7]
 10075f8:	0700      	lsls	r0, r0, #28
 10075fa:	090e      	lsrs	r6, r1, #4
 10075fc:	1b1c      	subs	r4, r3, r4
 10075fe:	1512      	asrs	r2, r2, #20
 1007600:	3f38      	subs	r7, #56	; 0x38
 1007602:	3136      	adds	r1, #54	; 0x36
 1007604:	2324      	movs	r3, #36	; 0x24
 1007606:	2d2a      	cmp	r5, #42	; 0x2a
 1007608:	7770      	strb	r0, [r6, #29]
 100760a:	797e      	ldrb	r6, [r7, #5]
 100760c:	6b6c      	ldr	r4, [r5, #52]	; 0x34
 100760e:	6562      	str	r2, [r4, #84]	; 0x54
 1007610:	4f48      	ldr	r7, [pc, #288]	; (0x1007734)
 1007612:	4146      	adcs	r6, r0
 1007614:	5354      	strh	r4, [r2, r5]
 1007616:	5d5a      	ldrb	r2, [r3, r5]
 1007618:	e7e0      	b.n	0x10075dc
 100761a:	e9ee fbfc 	strd	pc, fp, [lr, #1008]!	; 0x3f0
 100761e:	f5f2 dfd8 	bl	0x5fa5d2
 1007622:	d1d6      	bne.n	0x10075d2
 1007624:	c3c4      	stmia	r3!, {r2, r6, r7}
 1007626:	cdca      	ldmia	r5!, {r1, r3, r6, r7}
 1007628:	9790      	str	r7, [sp, #576]	; 0x240
 100762a:	999e      	ldr	r1, [sp, #632]	; 0x278
 100762c:	8b8c      	ldrh	r4, [r1, #28]
 100762e:	8582      	strh	r2, [r0, #44]	; 0x2c
 1007630:	afa8      	add	r7, sp, #672	; 0x2a0
 1007632:	a1a6      	add	r1, pc, #664	; (adr r1, 0x10078cc)
 1007634:	b3b4      	cbz	r4, 0x10076a4
 1007636:	bdba      	pop	{r1, r3, r4, r5, r7, pc}
 1007638:	c0c7      	stmia	r0!, {r0, r1, r2, r6, r7}
 100763a:	cec9      	ldmia	r6, {r0, r3, r6, r7}
 100763c:	dcdb      	bgt.n	0x10075f6
 100763e:	d2d5      	bcs.n	0x10075ec
 1007640:	f8ff f6f1 	ldr??.w	pc, [pc, #1777]	; 0x1007d35
 1007644:	e4e3      	b.n	0x100700e
 1007646:	eaed b0b7 			; <UNDEFINED> instruction: 0xeaedb0b7
 100764a:	beb9      	bkpt	0x00b9
 100764c:	acab      	add	r4, sp, #684	; 0x2ac
 100764e:	a2a5      	add	r2, pc, #660	; (adr r2, 0x10078e4)
 1007650:	888f      	ldrh	r7, [r1, #4]
 1007652:	8681      	strh	r1, [r0, #52]	; 0x34
 1007654:	9493      	str	r4, [sp, #588]	; 0x24c
 1007656:	9a9d      	ldr	r2, [sp, #628]	; 0x274
 1007658:	2027      	movs	r0, #39	; 0x27
 100765a:	2e29      	cmp	r6, #41	; 0x29
 100765c:	3c3b      	subs	r4, #59	; 0x3b
 100765e:	3235      	adds	r2, #53	; 0x35
 1007660:	181f      	adds	r7, r3, r0
 1007662:	1611      	asrs	r1, r2, #24
 1007664:	0403      	lsls	r3, r0, #16
 1007666:	0a0d      	lsrs	r5, r1, #8
 1007668:	5057      	str	r7, [r2, r1]
 100766a:	5e59      	ldrsh	r1, [r3, r1]
 100766c:	4c4b      	ldr	r4, [pc, #300]	; (0x100779c)
 100766e:	4245      	negs	r5, r0
 1007670:	686f      	ldr	r7, [r5, #4]
 1007672:	6661      	str	r1, [r4, #100]	; 0x64
 1007674:	7473      	strb	r3, [r6, #17]
 1007676:	7a7d      	ldrb	r5, [r7, #9]
 1007678:	8e89      	ldrh	r1, [r1, #52]	; 0x34
 100767a:	8087      	strh	r7, [r0, #4]
 100767c:	9295      	str	r2, [sp, #596]	; 0x254
 100767e:	9c9b      	ldr	r4, [sp, #620]	; 0x26c
 1007680:	b6b1      			; <UNDEFINED> instruction: 0xb6b1
 1007682:	b8bf      			; <UNDEFINED> instruction: 0xb8bf
 1007684:	aaad      	add	r2, sp, #692	; 0x2b4
 1007686:	a4a3      	add	r4, pc, #652	; (adr r4, 0x1007914)
 1007688:	fef9 f0f7 	mrc2	0, 7, pc, cr9, cr7, {7}
 100768c:	e2e5      	b.n	0x1007c5a
 100768e:	eceb c6c1 	stcl	6, cr12, [fp], #772	; 0x304
 1007692:	c8cf      	ldmia	r0, {r0, r1, r2, r3, r6, r7}
 1007694:	dadd      	bge.n	0x1007652
 1007696:	d4d3      	bmi.n	0x1007640
 1007698:	6e69      	ldr	r1, [r5, #100]	; 0x64
 100769a:	6067      	str	r7, [r4, #4]
 100769c:	7275      	strb	r5, [r6, #9]
 100769e:	7c7b      	ldrb	r3, [r7, #17]
 10076a0:	5651      	ldrsb	r1, [r2, r1]
 10076a2:	585f      	ldr	r7, [r3, r1]
 10076a4:	4a4d      	ldr	r2, [pc, #308]	; (0x10077dc)
 10076a6:	4443      	add	r3, r8
 10076a8:	1e19      	subs	r1, r3, #0
 10076aa:	1017      	asrs	r7, r2, #32
 10076ac:	0205      	lsls	r5, r0, #8
 10076ae:	0c0b      	lsrs	r3, r1, #16
 10076b0:	2621      	movs	r6, #33	; 0x21
 10076b2:	282f      	cmp	r0, #47	; 0x2f
 10076b4:	3a3d      	subs	r2, #61	; 0x3d
 10076b6:	3433      	adds	r4, #51	; 0x33
 10076b8:	494e      	ldr	r1, [pc, #312]	; (0x10077f4)
 10076ba:	4740      	bx	r8
 10076bc:	5552      	strb	r2, [r2, r5]
 10076be:	5b5c      	ldrh	r4, [r3, r5]
 10076c0:	7176      	strb	r6, [r6, #5]
 10076c2:	7f78      	ldrb	r0, [r7, #29]
 10076c4:	6d6a      	ldr	r2, [r5, #84]	; 0x54
 10076c6:	6364      	str	r4, [r4, #52]	; 0x34
 10076c8:	393e      	subs	r1, #62	; 0x3e
 10076ca:	3730      	adds	r7, #48	; 0x30
 10076cc:	2522      	movs	r5, #34	; 0x22
 10076ce:	2b2c      	cmp	r3, #44	; 0x2c
 10076d0:	0106      	lsls	r6, r0, #4
 10076d2:	0f08      	lsrs	r0, r1, #28
 10076d4:	1d1a      	adds	r2, r3, #4
 10076d6:	1314      	asrs	r4, r2, #12
 10076d8:	a9ae      	add	r1, sp, #696	; 0x2b8
 10076da:	a7a0      	add	r7, pc, #640	; (adr r7, 0x100795c)
 10076dc:	b5b2      	push	{r1, r4, r5, r7, lr}
 10076de:	bbbc      	cbnz	r4, 0x1007750
 10076e0:	9196      	str	r1, [sp, #600]	; 0x258
 10076e2:	9f98      	ldr	r7, [sp, #608]	; 0x260
 10076e4:	8d8a      	ldrh	r2, [r1, #44]	; 0x2c
 10076e6:	8384      	strh	r4, [r0, #28]
 10076e8:	d9de      	bls.n	0x10076a8
 10076ea:	d7d0      	bvc.n	0x100768e
 10076ec:	c5c2      	stmia	r5!, {r1, r6, r7}
 10076ee:	cbcc      	ldmia	r3, {r2, r3, r6, r7}
 10076f0:	e1e6      	b.n	0x1007ac0
 10076f2:	efe8 fdfa 			; <UNDEFINED> instruction: 0xefe8fdfa
 10076f6:	f3f4 0000 			; <UNDEFINED> instruction: 0xf3f40000
 10076fa:	c0c1      	stmia	r0!, {r0, r6, r7}
 10076fc:	c181      	stmia	r1!, {r0, r7}
 10076fe:	0140      	lsls	r0, r0, #5
 1007700:	c301      	stmia	r3!, {r0}
 1007702:	03c0      	lsls	r0, r0, #15
 1007704:	0280      	lsls	r0, r0, #10
 1007706:	c241      	stmia	r2!, {r0, r6}
 1007708:	c601      	stmia	r6!, {r0}
 100770a:	06c0      	lsls	r0, r0, #27
 100770c:	0780      	lsls	r0, r0, #30
 100770e:	c741      	stmia	r7!, {r0, r6}
 1007710:	0500      	lsls	r0, r0, #20
 1007712:	c5c1      	stmia	r5!, {r0, r6, r7}
 1007714:	c481      	stmia	r4!, {r0, r7}
 1007716:	0440      	lsls	r0, r0, #17
 1007718:	cc01      	ldmia	r4!, {r0}
 100771a:	0cc0      	lsrs	r0, r0, #19
 100771c:	0d80      	lsrs	r0, r0, #22
 100771e:	cd41      	ldmia	r5!, {r0, r6}
 1007720:	0f00      	lsrs	r0, r0, #28
 1007722:	cfc1      	ldmia	r7, {r0, r6, r7}
 1007724:	ce81      	ldmia	r6!, {r0, r7}
 1007726:	0e40      	lsrs	r0, r0, #25
 1007728:	0a00      	lsrs	r0, r0, #8
 100772a:	cac1      	ldmia	r2!, {r0, r6, r7}
 100772c:	cb81      	ldmia	r3!, {r0, r7}
 100772e:	0b40      	lsrs	r0, r0, #13
 1007730:	c901      	ldmia	r1!, {r0}
 1007732:	09c0      	lsrs	r0, r0, #7
 1007734:	0880      	lsrs	r0, r0, #2
 1007736:	c841      	ldmia	r0, {r0, r6}
 1007738:	d801      	bhi.n	0x100773e
 100773a:	18c0      	adds	r0, r0, r3
 100773c:	1980      	adds	r0, r0, r6
 100773e:	d941      	bls.n	0x10077c4
 1007740:	1b00      	subs	r0, r0, r4
 1007742:	dbc1      	blt.n	0x10076c8
 1007744:	da81      	bge.n	0x100764a
 1007746:	1a40      	subs	r0, r0, r1
 1007748:	1e00      	subs	r0, r0, #0
 100774a:	dec1      			; <UNDEFINED> instruction: 0xdec1
 100774c:	df81      	svc	129	; 0x81
 100774e:	1f40      	subs	r0, r0, #5
 1007750:	dd01      	ble.n	0x1007756
 1007752:	1dc0      	adds	r0, r0, #7
 1007754:	1c80      	adds	r0, r0, #2
 1007756:	dc41      	bgt.n	0x10077dc
 1007758:	1400      	asrs	r0, r0, #16
 100775a:	d4c1      	bmi.n	0x10076e0
 100775c:	d581      	bpl.n	0x1007662
 100775e:	1540      	asrs	r0, r0, #21
 1007760:	d701      	bvc.n	0x1007766
 1007762:	17c0      	asrs	r0, r0, #31
 1007764:	1680      	asrs	r0, r0, #26
 1007766:	d641      	bvs.n	0x10077ec
 1007768:	d201      	bcs.n	0x100776e
 100776a:	12c0      	asrs	r0, r0, #11
 100776c:	1380      	asrs	r0, r0, #14
 100776e:	d341      	bcc.n	0x10077f4
 1007770:	1100      	asrs	r0, r0, #4
 1007772:	d1c1      	bne.n	0x10076f8
 1007774:	d081      	beq.n	0x100767a
 1007776:	1040      	asrs	r0, r0, #1
 1007778:	f001 30c0 	and.w	r0, r1, #3233857728	; 0xc0c0c0c0
 100777c:	3180      	adds	r1, #128	; 0x80
 100777e:	f141 3300 	adc.w	r3, r1, #0
 1007782:	f3c1 f281 	bl	0x17c8c88
 1007786:	3240      	adds	r2, #64	; 0x40
 1007788:	3600      	adds	r6, #0
 100778a:	f6c1 f781 	bl	0xac9690
 100778e:	3740      	adds	r7, #64	; 0x40
 1007790:	f501 35c0 	add.w	r5, r1, #98304	; 0x18000
 1007794:	3480      	adds	r4, #128	; 0x80
 1007796:	f441 3c00 	orr.w	ip, r1, #131072	; 0x20000
 100779a:	fcc1 fd81 	stc2l	13, cr15, [r1], {129}	; 0x81
 100779e:	3d40      	subs	r5, #64	; 0x40
 10077a0:	ff01 3fc0 	vpmax.f32	<illegal reg q1.5>, <illegal reg q8.5>, q0
 10077a4:	3e80      	subs	r6, #128	; 0x80
 10077a6:	fe41 fa01 	cdp2	10, 4, cr15, cr1, cr1, {0}
 10077aa:	3ac0      	subs	r2, #192	; 0xc0
 10077ac:	3b80      	subs	r3, #128	; 0x80
 10077ae:	fb41 3900 	smlsd	r9, r1, r0, r3
 10077b2:	f9c1 f881 	vst1.32	{d31[1]}, [r1], r1
 10077b6:	3840      	subs	r0, #64	; 0x40
 10077b8:	2800      	cmp	r0, #0
 10077ba:	e8c1 e981 			; <UNDEFINED> instruction: 0xe8c1e981
 10077be:	2940      	cmp	r1, #64	; 0x40
 10077c0:	eb01 2bc0 	add.w	fp, r1, r0, lsl #11
 10077c4:	2a80      	cmp	r2, #128	; 0x80
 10077c6:	ea41 ee01 			; <UNDEFINED> instruction: 0xea41ee01
 10077ca:	2ec0      	cmp	r6, #192	; 0xc0
 10077cc:	2f80      	cmp	r7, #128	; 0x80
 10077ce:	ef41 2d00 	vadd.f32	d18, d1, d0
 10077d2:	edc1 ec81 	stcl	12, cr14, [r1, #516]	; 0x204
 10077d6:	2c40      	cmp	r4, #64	; 0x40
 10077d8:	e401      	b.n	0x1006fde
 10077da:	24c0      	movs	r4, #192	; 0xc0
 10077dc:	2580      	movs	r5, #128	; 0x80
 10077de:	e541      	b.n	0x1007264
 10077e0:	2700      	movs	r7, #0
 10077e2:	e7c1      	b.n	0x1007768
 10077e4:	e681      	b.n	0x10074ea
 10077e6:	2640      	movs	r6, #64	; 0x40
 10077e8:	2200      	movs	r2, #0
 10077ea:	e2c1      	b.n	0x1007d70
 10077ec:	e381      	b.n	0x1007ef2
 10077ee:	2340      	movs	r3, #64	; 0x40
 10077f0:	e101      	b.n	0x10079f6
 10077f2:	21c0      	movs	r1, #192	; 0xc0
 10077f4:	2080      	movs	r0, #128	; 0x80
 10077f6:	e041      	b.n	0x100787c
 10077f8:	a001      	add	r0, pc, #4	; (adr r0, 0x1007800)
 10077fa:	60c0      	str	r0, [r0, #12]
 10077fc:	6180      	str	r0, [r0, #24]
 10077fe:	a141      	add	r1, pc, #260	; (adr r1, 0x1007904)
 1007800:	6300      	str	r0, [r0, #48]	; 0x30
 1007802:	a3c1      	add	r3, pc, #772	; (adr r3, 0x1007b08)
 1007804:	a281      	add	r2, pc, #516	; (adr r2, 0x1007a0c)
 1007806:	6240      	str	r0, [r0, #36]	; 0x24
 1007808:	6600      	str	r0, [r0, #96]	; 0x60
 100780a:	a6c1      	add	r6, pc, #772	; (adr r6, 0x1007b10)
 100780c:	a781      	add	r7, pc, #516	; (adr r7, 0x1007a14)
 100780e:	6740      	str	r0, [r0, #116]	; 0x74
 1007810:	a501      	add	r5, pc, #4	; (adr r5, 0x1007818)
 1007812:	65c0      	str	r0, [r0, #92]	; 0x5c
 1007814:	6480      	str	r0, [r0, #72]	; 0x48
 1007816:	a441      	add	r4, pc, #260	; (adr r4, 0x100791c)
 1007818:	6c00      	ldr	r0, [r0, #64]	; 0x40
 100781a:	acc1      	add	r4, sp, #772	; 0x304
 100781c:	ad81      	add	r5, sp, #516	; 0x204
 100781e:	6d40      	ldr	r0, [r0, #84]	; 0x54
 1007820:	af01      	add	r7, sp, #4
 1007822:	6fc0      	ldr	r0, [r0, #124]	; 0x7c
 1007824:	6e80      	ldr	r0, [r0, #104]	; 0x68
 1007826:	ae41      	add	r6, sp, #260	; 0x104
 1007828:	aa01      	add	r2, sp, #4
 100782a:	6ac0      	ldr	r0, [r0, #44]	; 0x2c
 100782c:	6b80      	ldr	r0, [r0, #56]	; 0x38
 100782e:	ab41      	add	r3, sp, #260	; 0x104
 1007830:	6900      	ldr	r0, [r0, #16]
 1007832:	a9c1      	add	r1, sp, #772	; 0x304
 1007834:	a881      	add	r0, sp, #516	; 0x204
 1007836:	6840      	ldr	r0, [r0, #4]
 1007838:	7800      	ldrb	r0, [r0, #0]
 100783a:	b8c1      			; <UNDEFINED> instruction: 0xb8c1
 100783c:	b981      	cbnz	r1, 0x1007860
 100783e:	7940      	ldrb	r0, [r0, #5]
 1007840:	bb01      	cbnz	r1, 0x1007884
 1007842:	7bc0      	ldrb	r0, [r0, #15]
 1007844:	7a80      	ldrb	r0, [r0, #10]
 1007846:	ba41      	rev16	r1, r0
 1007848:	be01      	bkpt	0x0001
 100784a:	7ec0      	ldrb	r0, [r0, #27]
 100784c:	7f80      	ldrb	r0, [r0, #30]
 100784e:	bf41      	itttt	mi
 1007850:	7d00      	ldrbmi	r0, [r0, #20]
 1007852:	bdc1      	popmi	{r0, r6, r7, pc}
 1007854:	bc81      	popmi	{r0, r7}
 1007856:	7c40      	ldrbmi	r0, [r0, #17]
 1007858:	b401      	push	{r0}
 100785a:	74c0      	strb	r0, [r0, #19]
 100785c:	7580      	strb	r0, [r0, #22]
 100785e:	b541      	push	{r0, r6, lr}
 1007860:	7700      	strb	r0, [r0, #28]
 1007862:	b7c1      			; <UNDEFINED> instruction: 0xb7c1
 1007864:	b681      			; <UNDEFINED> instruction: 0xb681
 1007866:	7640      	strb	r0, [r0, #25]
 1007868:	7200      	strb	r0, [r0, #8]
 100786a:	b2c1      	uxtb	r1, r0
 100786c:	b381      	cbz	r1, 0x10078d0
 100786e:	7340      	strb	r0, [r0, #13]
 1007870:	b101      	cbz	r1, 0x1007874
 1007872:	71c0      	strb	r0, [r0, #7]
 1007874:	7080      	strb	r0, [r0, #2]
 1007876:	b041      	add	sp, #260	; 0x104
 1007878:	5000      	str	r0, [r0, r0]
 100787a:	90c1      	str	r0, [sp, #772]	; 0x304
 100787c:	9181      	str	r1, [sp, #516]	; 0x204
 100787e:	5140      	str	r0, [r0, r5]
 1007880:	9301      	str	r3, [sp, #4]
 1007882:	53c0      	strh	r0, [r0, r7]
 1007884:	5280      	strh	r0, [r0, r2]
 1007886:	9241      	str	r2, [sp, #260]	; 0x104
 1007888:	9601      	str	r6, [sp, #4]
 100788a:	56c0      	ldrsb	r0, [r0, r3]
 100788c:	5780      	ldrsb	r0, [r0, r6]
 100788e:	9741      	str	r7, [sp, #260]	; 0x104
 1007890:	5500      	strb	r0, [r0, r4]
 1007892:	95c1      	str	r5, [sp, #772]	; 0x304
 1007894:	9481      	str	r4, [sp, #516]	; 0x204
 1007896:	5440      	strb	r0, [r0, r1]
 1007898:	9c01      	ldr	r4, [sp, #4]
 100789a:	5cc0      	ldrb	r0, [r0, r3]
 100789c:	5d80      	ldrb	r0, [r0, r6]
 100789e:	9d41      	ldr	r5, [sp, #260]	; 0x104
 10078a0:	5f00      	ldrsh	r0, [r0, r4]
 10078a2:	9fc1      	ldr	r7, [sp, #772]	; 0x304
 10078a4:	9e81      	ldr	r6, [sp, #516]	; 0x204
 10078a6:	5e40      	ldrsh	r0, [r0, r1]
 10078a8:	5a00      	ldrh	r0, [r0, r0]
 10078aa:	9ac1      	ldr	r2, [sp, #772]	; 0x304
 10078ac:	9b81      	ldr	r3, [sp, #516]	; 0x204
 10078ae:	5b40      	ldrh	r0, [r0, r5]
 10078b0:	9901      	ldr	r1, [sp, #4]
 10078b2:	59c0      	ldr	r0, [r0, r7]
 10078b4:	5880      	ldr	r0, [r0, r2]
 10078b6:	9841      	ldr	r0, [sp, #260]	; 0x104
 10078b8:	8801      	ldrh	r1, [r0, #0]
 10078ba:	48c0      	ldr	r0, [pc, #768]	; (0x1007bbc)
 10078bc:	4980      	ldr	r1, [pc, #512]	; (0x1007ac0)
 10078be:	8941      	ldrh	r1, [r0, #10]
 10078c0:	4b00      	ldr	r3, [pc, #0]	; (0x10078c4)
 10078c2:	8bc1      	ldrh	r1, [r0, #30]
 10078c4:	8a81      	ldrh	r1, [r0, #20]
 10078c6:	4a40      	ldr	r2, [pc, #256]	; (0x10079c8)
 10078c8:	4e00      	ldr	r6, [pc, #0]	; (0x10078cc)
 10078ca:	8ec1      	ldrh	r1, [r0, #54]	; 0x36
 10078cc:	8f81      	ldrh	r1, [r0, #60]	; 0x3c
 10078ce:	4f40      	ldr	r7, [pc, #256]	; (0x10079d0)
 10078d0:	8d01      	ldrh	r1, [r0, #40]	; 0x28
 10078d2:	4dc0      	ldr	r5, [pc, #768]	; (0x1007bd4)
 10078d4:	4c80      	ldr	r4, [pc, #512]	; (0x1007ad8)
 10078d6:	8c41      	ldrh	r1, [r0, #34]	; 0x22
 10078d8:	4400      	add	r0, r0
 10078da:	84c1      	strh	r1, [r0, #38]	; 0x26
 10078dc:	8581      	strh	r1, [r0, #44]	; 0x2c
 10078de:	4540      	cmp	r0, r8
 10078e0:	8701      	strh	r1, [r0, #56]	; 0x38
 10078e2:	47c0      	blx	r8
 10078e4:	4680      	mov	r8, r0
 10078e6:	8641      	strh	r1, [r0, #50]	; 0x32
 10078e8:	8201      	strh	r1, [r0, #16]
 10078ea:	42c0      	cmn	r0, r0
 10078ec:	4380      	bics	r0, r0
 10078ee:	8341      	strh	r1, [r0, #26]
 10078f0:	4100      	asrs	r0, r0
 10078f2:	81c1      	strh	r1, [r0, #14]
 10078f4:	8081      	strh	r1, [r0, #4]
 10078f6:	4040      	eors	r0, r0
 10078f8:	e134      	b.n	0x1007b64
 10078fa:	400f      	ands	r7, r1
 10078fc:	e404      	b.n	0x1007108
 10078fe:	400f      	ands	r7, r1
 1007900:	e408      	b.n	0x1007114
 1007902:	400f      	ands	r7, r1
 1007904:	e40c      	b.n	0x1007120
 1007906:	400f      	ands	r7, r1
 1007908:	e130      	b.n	0x1007b6c
 100790a:	400f      	ands	r7, r1
 100790c:	e204      	b.n	0x1007d18
 100790e:	400f      	ands	r7, r1
 1007910:	e208      	b.n	0x1007d24
 1007912:	400f      	ands	r7, r1
 1007914:	e20c      	b.n	0x1007d30
 1007916:	400f      	ands	r7, r1
 1007918:	4000      	ands	r0, r0
 100791a:	4000      	ands	r0, r0
 100791c:	8000      	strh	r0, [r0, #0]
 100791e:	4005      	ands	r5, r0
 1007920:	5000      	str	r0, [r0, r0]
 1007922:	4000      	ands	r0, r0
 1007924:	9000      	str	r0, [sp, #0]
 1007926:	4005      	ands	r5, r0
 1007928:	6000      	str	r0, [r0, #0]
 100792a:	4000      	ands	r0, r0
 100792c:	a000      	add	r0, pc, #0	; (adr r0, 0x1007930)
 100792e:	4005      	ands	r5, r0
 1007930:	7000      	strb	r0, [r0, #0]
 1007932:	4000      	ands	r0, r0
 1007934:	b000      	add	sp, #0
 1007936:	4005      	ands	r5, r0
 1007938:	4000      	ands	r0, r0
 100793a:	4002      	ands	r2, r0
 100793c:	c000      	stmia	r0!, {}
 100793e:	4005      	ands	r5, r0
 1007940:	5000      	str	r0, [r0, r0]
 1007942:	4002      	ands	r2, r0
 1007944:	d000      	beq.n	0x1007948
 1007946:	4005      	ands	r5, r0
 1007948:	6000      	str	r0, [r0, #0]
 100794a:	4002      	ands	r2, r0
 100794c:	e000      	b.n	0x1007950
 100794e:	4005      	ands	r5, r0
 1007950:	7000      	strb	r0, [r0, #0]
 1007952:	4002      	ands	r2, r0
 1007954:	f000 4005 	and.w	r0, r0, #2231369728	; 0x85000000
 1007958:	d000      	beq.n	0x100795c
 100795a:	4003      	ands	r3, r0
 100795c:	0000      	movs	r0, r0
 100795e:	4006      	ands	r6, r0
 1007960:	1000      	asrs	r0, r0, #32
 1007962:	4006      	ands	r6, r0
 1007964:	1000      	asrs	r0, r0, #32
 1007966:	4006      	ands	r6, r0
 1007968:	2000      	movs	r0, #0
 100796a:	4006      	ands	r6, r0
 100796c:	2000      	movs	r0, #0
 100796e:	4006      	ands	r6, r0
 1007970:	3000      	adds	r0, #0
 1007972:	4006      	ands	r6, r0
 1007974:	3000      	adds	r0, #0
 1007976:	4006      	ands	r6, r0
 1007978:	4000      	ands	r0, r0
 100797a:	4006      	ands	r6, r0
 100797c:	4000      	ands	r0, r0
 100797e:	4006      	ands	r6, r0
 1007980:	5000      	str	r0, [r0, r0]
 1007982:	4006      	ands	r6, r0
 1007984:	5000      	str	r0, [r0, r0]
 1007986:	4006      	ands	r6, r0
 1007988:	6000      	str	r0, [r0, #0]
 100798a:	4006      	ands	r6, r0
 100798c:	6000      	str	r0, [r0, #0]
 100798e:	4006      	ands	r6, r0
 1007990:	0700      	lsls	r0, r0, #28
 1007992:	0000      	movs	r0, r0
 1007994:	0600      	lsls	r0, r0, #24
 1007996:	0000      	movs	r0, r0
 1007998:	0500      	lsls	r0, r0, #20
 100799a:	0000      	movs	r0, r0
 100799c:	0400      	lsls	r0, r0, #16
 100799e:	0000      	movs	r0, r0
 10079a0:	0300      	lsls	r0, r0, #12
 10079a2:	0000      	movs	r0, r0
 10079a4:	0200      	lsls	r0, r0, #8
 10079a6:	0000      	movs	r0, r0
 10079a8:	0100      	lsls	r0, r0, #4
	...
 10079b2:	0000      	movs	r0, r0
 10079b4:	ed18 e000 	ldc	0, cr14, [r8, #-0]
 10079b8:	ed1c e000 	ldc	0, cr14, [ip, #-0]
 10079bc:	ed20 e000 	stc	0, cr14, [r0, #-0]
 10079c0:	e400      	b.n	0x10071c4
 10079c2:	e000      	b.n	0x10079c6
 10079c4:	e404      	b.n	0x10071d0
 10079c6:	e000      	b.n	0x10079ca
 10079c8:	e408      	b.n	0x10071dc
 10079ca:	e000      	b.n	0x10079ce
 10079cc:	e40c      	b.n	0x10071e8
 10079ce:	e000      	b.n	0x10079d2
 10079d0:	e410      	b.n	0x10071f4
 10079d2:	e000      	b.n	0x10079d6
 10079d4:	e414      	b.n	0x1007200
 10079d6:	e000      	b.n	0x10079da
 10079d8:	e418      	b.n	0x100720c
 10079da:	e000      	b.n	0x10079de
 10079dc:	e41c      	b.n	0x1007218
 10079de:	e000      	b.n	0x10079e2
 10079e0:	e420      	b.n	0x1007224
 10079e2:	e000      	b.n	0x10079e6
 10079e4:	e424      	b.n	0x1007230
 10079e6:	e000      	b.n	0x10079ea
 10079e8:	e428      	b.n	0x100723c
 10079ea:	e000      	b.n	0x10079ee
 10079ec:	e42c      	b.n	0x1007248
 10079ee:	e000      	b.n	0x10079f2
 10079f0:	e430      	b.n	0x1007254
 10079f2:	e000      	b.n	0x10079f6
 10079f4:	e434      	b.n	0x1007260
 10079f6:	e000      	b.n	0x10079fa
 10079f8:	e438      	b.n	0x100726c
 10079fa:	e000      	b.n	0x10079fe
 10079fc:	e43c      	b.n	0x1007278
 10079fe:	e000      	b.n	0x1007a02
 1007a00:	e440      	b.n	0x1007284
 1007a02:	e000      	b.n	0x1007a06
 1007a04:	e444      	b.n	0x1007290
 1007a06:	e000      	b.n	0x1007a0a
 1007a08:	e448      	b.n	0x100729c
 1007a0a:	e000      	b.n	0x1007a0e
 1007a0c:	e44c      	b.n	0x10072a8
 1007a0e:	e000      	b.n	0x1007a12
 1007a10:	e450      	b.n	0x10072b4
 1007a12:	e000      	b.n	0x1007a16
 1007a14:	e454      	b.n	0x10072c0
 1007a16:	e000      	b.n	0x1007a1a
 1007a18:	e458      	b.n	0x10072cc
 1007a1a:	e000      	b.n	0x1007a1e
 1007a1c:	e45c      	b.n	0x10072d8
 1007a1e:	e000      	b.n	0x1007a22
 1007a20:	e460      	b.n	0x10072e4
 1007a22:	e000      	b.n	0x1007a26
 1007a24:	e464      	b.n	0x10072f0
 1007a26:	e000      	b.n	0x1007a2a
 1007a28:	e468      	b.n	0x10072fc
 1007a2a:	e000      	b.n	0x1007a2e
 1007a2c:	e46c      	b.n	0x1007308
 1007a2e:	e000      	b.n	0x1007a32
 1007a30:	e470      	b.n	0x1007314
 1007a32:	e000      	b.n	0x1007a36
 1007a34:	e474      	b.n	0x1007320
 1007a36:	e000      	b.n	0x1007a3a
 1007a38:	e478      	b.n	0x100732c
 1007a3a:	e000      	b.n	0x1007a3e
 1007a3c:	e47c      	b.n	0x1007338
 1007a3e:	e000      	b.n	0x1007a42
 1007a40:	e480      	b.n	0x1007344
 1007a42:	e000      	b.n	0x1007a46
 1007a44:	e484      	b.n	0x1007350
 1007a46:	e000      	b.n	0x1007a4a
 1007a48:	e488      	b.n	0x100735c
 1007a4a:	e000      	b.n	0x1007a4e
 1007a4c:	e100      	b.n	0x1007c50
 1007a4e:	e000      	b.n	0x1007a52
 1007a50:	e104      	b.n	0x1007c5c
 1007a52:	e000      	b.n	0x1007a56
 1007a54:	e108      	b.n	0x1007c68
 1007a56:	e000      	b.n	0x1007a5a
 1007a58:	e10c      	b.n	0x1007c74
 1007a5a:	e000      	b.n	0x1007a5e
 1007a5c:	e110      	b.n	0x1007c80
 1007a5e:	e000      	b.n	0x1007a62
 1007a60:	e180      	b.n	0x1007d64
 1007a62:	e000      	b.n	0x1007a66
 1007a64:	e184      	b.n	0x1007d70
 1007a66:	e000      	b.n	0x1007a6a
 1007a68:	e188      	b.n	0x1007d7c
 1007a6a:	e000      	b.n	0x1007a6e
 1007a6c:	e18c      	b.n	0x1007d88
 1007a6e:	e000      	b.n	0x1007a72
 1007a70:	e190      	b.n	0x1007d94
 1007a72:	e000      	b.n	0x1007a76
 1007a74:	e200      	b.n	0x1007e78
 1007a76:	e000      	b.n	0x1007a7a
 1007a78:	e204      	b.n	0x1007e84
 1007a7a:	e000      	b.n	0x1007a7e
 1007a7c:	e208      	b.n	0x1007e90
 1007a7e:	e000      	b.n	0x1007a82
 1007a80:	e20c      	b.n	0x1007e9c
 1007a82:	e000      	b.n	0x1007a86
 1007a84:	e210      	b.n	0x1007ea8
 1007a86:	e000      	b.n	0x1007a8a
 1007a88:	e280      	b.n	0x1007f8c
 1007a8a:	e000      	b.n	0x1007a8e
 1007a8c:	e284      	b.n	0x1007f98
 1007a8e:	e000      	b.n	0x1007a92
 1007a90:	e288      	b.n	0x1007fa4
 1007a92:	e000      	b.n	0x1007a96
 1007a94:	e28c      	b.n	0x1007fb0
 1007a96:	e000      	b.n	0x1007a9a
 1007a98:	e290      	b.n	0x1007fbc
 1007a9a:	e000      	b.n	0x1007a9e
 1007a9c:	e010      	b.n	0x1007ac0
 1007a9e:	400f      	ands	r7, r1
 1007aa0:	e014      	b.n	0x1007acc
 1007aa2:	400f      	ands	r7, r1
 1007aa4:	e01c      	b.n	0x1007ae0
 1007aa6:	400f      	ands	r7, r1
 1007aa8:	e010      	b.n	0x1007acc
 1007aaa:	400f      	ands	r7, r1
 1007aac:	e040      	b.n	0x1007b30
 1007aae:	400f      	ands	r7, r1
 1007ab0:	e044      	b.n	0x1007b3c
 1007ab2:	400f      	ands	r7, r1
 1007ab4:	e048      	b.n	0x1007b48
 1007ab6:	400f      	ands	r7, r1
 1007ab8:	e100      	b.n	0x1007cbc
 1007aba:	400f      	ands	r7, r1
 1007abc:	e104      	b.n	0x1007cc8
 1007abe:	400f      	ands	r7, r1
 1007ac0:	e108      	b.n	0x1007cd4
 1007ac2:	400f      	ands	r7, r1
 1007ac4:	e110      	b.n	0x1007ce8
 1007ac6:	400f      	ands	r7, r1
 1007ac8:	e114      	b.n	0x1007cf4
 1007aca:	400f      	ands	r7, r1
 1007acc:	e118      	b.n	0x1007d00
 1007ace:	400f      	ands	r7, r1
 1007ad0:	e120      	b.n	0x1007d14
 1007ad2:	400f      	ands	r7, r1
 1007ad4:	e124      	b.n	0x1007d20
 1007ad6:	400f      	ands	r7, r1
 1007ad8:	e128      	b.n	0x1007d2c
 1007ada:	400f      	ands	r7, r1
 1007adc:	4240      	negs	r0, r0
 1007ade:	000f      	movs	r7, r1
 1007ae0:	2000      	movs	r0, #0
 1007ae2:	001c      	movs	r4, r3
 1007ae4:	8480      	strh	r0, [r0, #36]	; 0x24
 1007ae6:	001e      	movs	r6, r3
 1007ae8:	8000      	strh	r0, [r0, #0]
 1007aea:	0025      	movs	r5, r4
 1007aec:	9e99      	ldr	r6, [sp, #612]	; 0x264
 1007aee:	0036      	movs	r6, r6
 1007af0:	4000      	ands	r0, r0
 1007af2:	0038      	movs	r0, r7
 1007af4:	0900      	lsrs	r0, r0, #4
 1007af6:	003d      	movs	r5, r7
 1007af8:	8000      	strh	r0, [r0, #0]
 1007afa:	003e      	movs	r6, r7
 1007afc:	0000      	movs	r0, r0
 1007afe:	004b      	lsls	r3, r1, #1
 1007b00:	4b40      	ldr	r3, [pc, #256]	; (0x1007c04)
 1007b02:	004c      	lsls	r4, r1, #1
 1007b04:	2000      	movs	r0, #0
 1007b06:	004e      	lsls	r6, r1, #1
 1007b08:	8d80      	ldrh	r0, [r0, #44]	; 0x2c
 1007b0a:	005b      	lsls	r3, r3, #1
 1007b0c:	c000      	stmia	r0!, {}
 1007b0e:	005d      	lsls	r5, r3, #1
 1007b10:	8000      	strh	r0, [r0, #0]
 1007b12:	0070      	lsls	r0, r6, #1
 1007b14:	1200      	asrs	r0, r0, #8
 1007b16:	007a      	lsls	r2, r7, #1
 1007b18:	0000      	movs	r0, r0
 1007b1a:	007d      	lsls	r5, r7, #1
 1007b1c:	9680      	str	r6, [sp, #512]	; 0x200
 1007b1e:	0098      	lsls	r0, r3, #2
 1007b20:	1b00      	subs	r0, r0, r4
 1007b22:	00b7      	lsls	r7, r6, #2
 1007b24:	8000      	strh	r0, [r0, #0]
 1007b26:	00bb      	lsls	r3, r7, #2
 1007b28:	e8c0 00ce 			; <UNDEFINED> instruction: 0xe8c000ce
 1007b2c:	7a64      	ldrb	r4, [r4, #9]
 1007b2e:	00da      	lsls	r2, r3, #3
 1007b30:	2400      	movs	r4, #0
 1007b32:	00f4      	lsls	r4, r6, #3
 1007b34:	0000      	movs	r0, r0
 1007b36:	00fa      	lsls	r2, r7, #3
 1007b38:	a880      	add	r0, sp, #512	; 0x200
 1007b3a:	0112      	lsls	r2, r2, #4
 1007b3c:	2d00      	cmp	r5, #0
 1007b3e:	0131      	lsls	r1, r6, #4
 1007b40:	3600      	adds	r6, #0
 1007b42:	016e      	lsls	r6, r5, #5
 1007b44:	7840      	ldrb	r0, [r0, #1]
 1007b46:	017d      	lsls	r5, r7, #5
 1007b48:	0001      	movs	r1, r0
 1007b4a:	0010      	movs	r0, r2
 1007b4c:	3800      	subs	r0, #0
 1007b4e:	f000 0002 	and.w	r0, r0, #2
 1007b52:	0010      	movs	r0, r2
 1007b54:	3801      	subs	r0, #1
 1007b56:	f000 0100 	and.w	r1, r0, #0
 1007b5a:	0010      	movs	r0, r2
 1007b5c:	3400      	adds	r4, #0
 1007b5e:	f000 0200 	and.w	r2, r0, #0
 1007b62:	0010      	movs	r0, r2
 1007b64:	3401      	adds	r4, #1
 1007b66:	f000 0400 	and.w	r4, r0, #0
 1007b6a:	0010      	movs	r0, r2
 1007b6c:	3402      	adds	r4, #2
 1007b6e:	f000 0100 	and.w	r1, r0, #0
 1007b72:	1010      	asrs	r0, r2, #32
 1007b74:	3c00      	subs	r4, #0
 1007b76:	f000 0200 	and.w	r2, r0, #0
 1007b7a:	1010      	asrs	r0, r2, #32
 1007b7c:	3c00      	subs	r4, #0
 1007b7e:	f000 0400 	and.w	r4, r0, #0
 1007b82:	1010      	asrs	r0, r2, #32
 1007b84:	3c00      	subs	r4, #0
 1007b86:	f000 0001 	and.w	r0, r0, #1
 1007b8a:	2000      	movs	r0, #0
 1007b8c:	0800      	lsrs	r0, r0, #32
 1007b8e:	f000 0002 	and.w	r0, r0, #2
 1007b92:	2000      	movs	r0, #0
 1007b94:	0801      	lsrs	r1, r0, #32
 1007b96:	f000 0004 	and.w	r0, r0, #4
 1007b9a:	2000      	movs	r0, #0
 1007b9c:	0802      	lsrs	r2, r0, #32
 1007b9e:	f000 0008 	and.w	r0, r0, #8
 1007ba2:	2000      	movs	r0, #0
 1007ba4:	0803      	lsrs	r3, r0, #32
 1007ba6:	f000 0010 	and.w	r0, r0, #16
 1007baa:	2000      	movs	r0, #0
 1007bac:	0804      	lsrs	r4, r0, #32
 1007bae:	f000 0020 	and.w	r0, r0, #32
 1007bb2:	2000      	movs	r0, #0
 1007bb4:	0805      	lsrs	r5, r0, #32
 1007bb6:	f000 0040 	and.w	r0, r0, #64	; 0x40
 1007bba:	2000      	movs	r0, #0
 1007bbc:	0806      	lsrs	r6, r0, #32
 1007bbe:	f000 0080 	and.w	r0, r0, #128	; 0x80
 1007bc2:	2000      	movs	r0, #0
 1007bc4:	0807      	lsrs	r7, r0, #32
 1007bc6:	f000 0100 	and.w	r1, r0, #0
 1007bca:	2000      	movs	r0, #0
 1007bcc:	0808      	lsrs	r0, r1, #32
 1007bce:	f000 0040 	and.w	r0, r0, #64	; 0x40
 1007bd2:	0000      	movs	r0, r0
 1007bd4:	1400      	asrs	r0, r0, #16
 1007bd6:	f000 1000 	and.w	r0, r0, #0
 1007bda:	1000      	asrs	r0, r0, #32
 1007bdc:	2000      	movs	r0, #0
 1007bde:	f000 4000 	and.w	r0, r0, #2147483648	; 0x80000000
 1007be2:	1000      	asrs	r0, r0, #32
 1007be4:	2001      	movs	r0, #1
 1007be6:	f000 0010 	and.w	r0, r0, #16
 1007bea:	0010      	movs	r0, r2
 1007bec:	4000      	ands	r0, r0
 1007bee:	f000 0100 	and.w	r1, r0, #0
 1007bf2:	1000      	asrs	r0, r0, #32
 1007bf4:	4400      	add	r0, r0
 1007bf6:	f000 0200 	and.w	r2, r0, #0
 1007bfa:	1000      	asrs	r0, r0, #32
 1007bfc:	4401      	add	r1, r0
 1007bfe:	f000 0010 	and.w	r0, r0, #16
 1007c02:	1000      	asrs	r0, r0, #32
 1007c04:	1c00      	adds	r0, r0, #0
 1007c06:	f000 0020 	and.w	r0, r0, #32
 1007c0a:	1000      	asrs	r0, r0, #32
 1007c0c:	1c01      	adds	r1, r0, #0
 1007c0e:	f000 0001 	and.w	r0, r0, #1
 1007c12:	1010      	asrs	r0, r2, #32
 1007c14:	0400      	lsls	r0, r0, #16
 1007c16:	f000 0002 	and.w	r0, r0, #2
 1007c1a:	1010      	asrs	r0, r2, #32
 1007c1c:	0401      	lsls	r1, r0, #16
 1007c1e:	f000 0004 	and.w	r0, r0, #4
 1007c22:	1010      	asrs	r0, r2, #32
 1007c24:	0402      	lsls	r2, r0, #16
 1007c26:	f000 0008 	and.w	r0, r0, #8
 1007c2a:	1010      	asrs	r0, r2, #32
 1007c2c:	0403      	lsls	r3, r0, #16
 1007c2e:	f000 0001 	and.w	r0, r0, #1
 1007c32:	1000      	asrs	r0, r0, #32
 1007c34:	1800      	adds	r0, r0, r0
 1007c36:	f000 0002 	and.w	r0, r0, #2
 1007c3a:	1000      	asrs	r0, r0, #32
 1007c3c:	1801      	adds	r1, r0, r0
 1007c3e:	f000 0004 	and.w	r0, r0, #4
 1007c42:	1000      	asrs	r0, r0, #32
 1007c44:	1802      	adds	r2, r0, r0
 1007c46:	f000 2000 	and.w	r0, r0, #0
 1007c4a:	2000      	movs	r0, #0
 1007c4c:	0c00      	lsrs	r0, r0, #16
 1007c4e:	f000 0001 	and.w	r0, r0, #1
 1007c52:	2010      	movs	r0, #16
 1007c54:	2800      	cmp	r0, #0
 1007c56:	f000 0008 	and.w	r0, r0, #8
 1007c5a:	0000      	movs	r0, r0
 1007c5c:	0000      	movs	r0, r0
 1007c5e:	f000 1000 	and.w	r0, r0, #0
 1007c62:	0010      	movs	r0, r2
 1007c64:	0001      	movs	r1, r0
 1007c66:	f000 0401 	and.w	r4, r0, #1
 1007c6a:	a4c2      	add	r4, pc, #776	; (adr r4, 0x1007f74)
 1007c6c:	1983      	adds	r3, r0, r6
 1007c6e:	0100      	lsls	r0, r0, #4
 1007c70:	1989      	adds	r1, r1, r6
 1007c72:	0100      	lsls	r0, r0, #4
 1007c74:	189d      	adds	r5, r3, r2
 1007c76:	0100      	lsls	r0, r0, #4
 1007c78:	1809      	adds	r1, r1, r0
 1007c7a:	0100      	lsls	r0, r0, #4
	...
 1007c84:	7c63      	ldrb	r3, [r4, #17]
 1007c86:	7b77      	ldrb	r7, [r6, #13]
 1007c88:	6bf2      	ldr	r2, [r6, #60]	; 0x3c
 1007c8a:	c56f      	stmia	r5!, {r0, r1, r2, r3, r5, r6}
 1007c8c:	0130      	lsls	r0, r6, #4
 1007c8e:	2b67      	cmp	r3, #103	; 0x67
 1007c90:	d7fe      	bvc.n	0x1007c90
 1007c92:	76ab      	strb	r3, [r5, #26]
 1007c94:	82ca      	strh	r2, [r1, #22]
 1007c96:	7dc9      	ldrb	r1, [r1, #23]
 1007c98:	59fa      	ldr	r2, [r7, r7]
 1007c9a:	f047 d4ad 	bl	0x1c4f5f8
 1007c9e:	afa2      	add	r7, sp, #648	; 0x288
 1007ca0:	a49c      	add	r4, pc, #624	; (adr r4, 0x1007f14)
 1007ca2:	c072      	stmia	r0!, {r1, r4, r5, r6}
 1007ca4:	fdb7 2693 	ldc2	6, cr2, [r7, #588]!	; 0x24c
 1007ca8:	3f36      	subs	r7, #54	; 0x36
 1007caa:	ccf7      	ldmia	r4, {r0, r1, r2, r4, r5, r6, r7}
 1007cac:	a534      	add	r5, pc, #208	; (adr r5, 0x1007d80)
 1007cae:	f1e5 d871 	bl	0x19ecd94
 1007cb2:	1531      	asrs	r1, r6, #20
 1007cb4:	c704      	stmia	r7!, {r2}
 1007cb6:	c323      	stmia	r3!, {r0, r1, r5}
 1007cb8:	9618      	str	r6, [sp, #96]	; 0x60
 1007cba:	9a05      	ldr	r2, [sp, #20]
 1007cbc:	1207      	asrs	r7, r0, #8
 1007cbe:	e280      	b.n	0x10081c2
 1007cc0:	27eb      	movs	r7, #235	; 0xeb
 1007cc2:	75b2      	strb	r2, [r6, #22]
 1007cc4:	8309      	strh	r1, [r1, #24]
 1007cc6:	1a2c      	subs	r4, r5, r0
 1007cc8:	6e1b      	ldr	r3, [r3, #96]	; 0x60
 1007cca:	a05a      	add	r0, pc, #360	; (adr r0, 0x1007e34)
 1007ccc:	3b52      	subs	r3, #82	; 0x52
 1007cce:	b3d6      	cbz	r6, 0x1007d46
 1007cd0:	e329      	b.n	0x1008326
 1007cd2:	842f      	strh	r7, [r5, #32]
 1007cd4:	d153      	bne.n	0x1007d7e
 1007cd6:	ed00 fc20 	stc	12, cr15, [r0, #-128]	; 0xffffff80
 1007cda:	5bb1      	ldrh	r1, [r6, r6]
 1007cdc:	cb6a      	ldmia	r3, {r1, r3, r5, r6}
 1007cde:	39be      	subs	r1, #190	; 0xbe
 1007ce0:	4c4a      	ldr	r4, [pc, #296]	; (0x1007e0c)
 1007ce2:	cf58      	ldmia	r7!, {r3, r4, r6}
 1007ce4:	efd0 fbaa 	vqdmlsl.s16	<illegal reg q15.5>, d16, d26
 1007ce8:	4d43      	ldr	r5, [pc, #268]	; (0x1007df8)
 1007cea:	8533      	strh	r3, [r6, #40]	; 0x28
 1007cec:	f945 7f02 			; <UNDEFINED> instruction: 0xf9457f02
 1007cf0:	3c50      	subs	r4, #80	; 0x50
 1007cf2:	a89f      	add	r0, sp, #636	; 0x27c
 1007cf4:	a351      	add	r3, pc, #324	; (adr r3, 0x1007e3c)
 1007cf6:	8f40      	ldrh	r0, [r0, #58]	; 0x3a
 1007cf8:	9d92      	ldr	r5, [sp, #584]	; 0x248
 1007cfa:	f538 b6bc 	b.w	0x940a76
 1007cfe:	21da      	movs	r1, #218	; 0xda
 1007d00:	ff10 d2f3 	vqsub.u16	<illegal reg q6.5>, q8, <illegal reg q9.5>
 1007d04:	0ccd      	lsrs	r5, r1, #19
 1007d06:	ec13 975f 	ldc	7, cr9, [r3], {95}	; 0x5f
 1007d0a:	1744      	asrs	r4, r0, #29
 1007d0c:	a7c4      	add	r7, pc, #784	; (adr r7, 0x1008020)
 1007d0e:	3d7e      	subs	r5, #126	; 0x7e
 1007d10:	5d64      	ldrb	r4, [r4, r5]
 1007d12:	7319      	strb	r1, [r3, #12]
 1007d14:	8160      	strh	r0, [r4, #10]
 1007d16:	dc4f      	bgt.n	0x1007db8
 1007d18:	2a22      	cmp	r2, #34	; 0x22
 1007d1a:	8890      	ldrh	r0, [r2, #4]
 1007d1c:	ee46 14b8 	mcr	4, 2, r1, cr6, cr8, {5}
 1007d20:	5ede      	ldrsh	r6, [r3, r3]
 1007d22:	db0b      	blt.n	0x1007d3c
 1007d24:	32e0      	adds	r2, #224	; 0xe0
 1007d26:	0a3a      	lsrs	r2, r7, #8
 1007d28:	0649      	lsls	r1, r1, #25
 1007d2a:	5c24      	ldrb	r4, [r4, r0]
 1007d2c:	d3c2      	bcc.n	0x1007cb4
 1007d2e:	62ac      	str	r4, [r5, #40]	; 0x28
 1007d30:	9591      	str	r5, [sp, #580]	; 0x244
 1007d32:	79e4      	ldrb	r4, [r4, #7]
 1007d34:	c8e7      	ldmia	r0, {r0, r1, r2, r5, r6, r7}
 1007d36:	6d37      	ldr	r7, [r6, #80]	; 0x50
 1007d38:	d58d      	bpl.n	0x1007c56
 1007d3a:	a94e      	add	r1, sp, #312	; 0x138
 1007d3c:	566c      	ldrsb	r4, [r5, r1]
 1007d3e:	eaf4 7a65 			; <UNDEFINED> instruction: 0xeaf47a65
 1007d42:	08ae      	lsrs	r6, r5, #2
 1007d44:	78ba      	ldrb	r2, [r7, #2]
 1007d46:	2e25      	cmp	r6, #37	; 0x25
 1007d48:	a61c      	add	r6, pc, #112	; (adr r6, 0x1007dbc)
 1007d4a:	c6b4      	stmia	r6!, {r2, r4, r5, r7}
 1007d4c:	dde8      	ble.n	0x1007d20
 1007d4e:	1f74      	subs	r4, r6, #5
 1007d50:	bd4b      	pop	{r0, r1, r3, r6, pc}
 1007d52:	8a8b      	ldrh	r3, [r1, #20]
 1007d54:	3e70      	subs	r6, #112	; 0x70
 1007d56:	66b5      	str	r5, [r6, #104]	; 0x68
 1007d58:	0348      	lsls	r0, r1, #13
 1007d5a:	0ef6      	lsrs	r6, r6, #27
 1007d5c:	3561      	adds	r5, #97	; 0x61
 1007d5e:	b957      	cbnz	r7, 0x1007d76
 1007d60:	c186      	stmia	r1!, {r1, r2, r7}
 1007d62:	9e1d      	ldr	r6, [sp, #116]	; 0x74
 1007d64:	f8e1 1198 	str??.w	r1, [r1, #408]	; 0x198
 1007d68:	d969      	bls.n	0x1007e3e
 1007d6a:	948e      	str	r4, [sp, #568]	; 0x238
 1007d6c:	1e9b      	subs	r3, r3, #2
 1007d6e:	e987 55ce 			; <UNDEFINED> instruction: 0xe98755ce
 1007d72:	df28      	svc	40	; 0x28
 1007d74:	a18c      	add	r1, pc, #560	; (adr r1, 0x1007fa8)
 1007d76:	0d89      	lsrs	r1, r1, #22
 1007d78:	e6bf      	b.n	0x1007afa
 1007d7a:	6842      	ldr	r2, [r0, #4]
 1007d7c:	9941      	ldr	r1, [sp, #260]	; 0x104
 1007d7e:	0f2d      	lsrs	r5, r5, #28
 1007d80:	54b0      	strb	r0, [r6, r2]
 1007d82:	16bb      	asrs	r3, r7, #26
 1007d84:	63c6      	str	r6, [r0, #60]	; 0x3c
 1007d86:	a563      	add	r5, pc, #396	; (adr r5, 0x1007f14)
 1007d88:	7cf8      	ldrb	r0, [r7, #19]
 1007d8a:	847c      	strh	r4, [r7, #34]	; 0x22
 1007d8c:	77ee      	strb	r6, [r5, #31]
 1007d8e:	9977      	ldr	r1, [sp, #476]	; 0x1dc
 1007d90:	7bf6      	ldrb	r6, [r6, #15]
 1007d92:	8d7b      	ldrh	r3, [r7, #42]	; 0x2a
 1007d94:	f2ff 0df2 			; <UNDEFINED> instruction: 0xf2ff0df2
 1007d98:	6bd6      	ldr	r6, [r2, #60]	; 0x3c
 1007d9a:	bd6b      	pop	{r0, r1, r3, r5, r6, pc}
 1007d9c:	6fde      	ldr	r6, [r3, #124]	; 0x7c
 1007d9e:	b16f      	cbz	r7, 0x1007dbc
 1007da0:	c591      	stmia	r5!, {r0, r4, r7}
 1007da2:	54c5      	strb	r5, [r0, r3]
 1007da4:	3060      	adds	r0, #96	; 0x60
 1007da6:	5030      	str	r0, [r6, r0]
 1007da8:	0102      	lsls	r2, r0, #4
 1007daa:	0301      	lsls	r1, r0, #12
 1007dac:	67ce      	str	r6, [r1, #124]	; 0x7c
 1007dae:	a967      	add	r1, sp, #412	; 0x19c
 1007db0:	2b56      	cmp	r3, #86	; 0x56
 1007db2:	7d2b      	ldrb	r3, [r5, #20]
 1007db4:	fee7 19fe 	mcr2	9, 7, r1, cr7, cr14, {7}
 1007db8:	d7b5      	bvc.n	0x1007d26
 1007dba:	62d7      	str	r7, [r2, #44]	; 0x2c
 1007dbc:	ab4d      	add	r3, sp, #308	; 0x134
 1007dbe:	e6ab      	b.n	0x1007b18
 1007dc0:	76ec      	strb	r4, [r5, #27]
 1007dc2:	9a76      	ldr	r2, [sp, #472]	; 0x1d8
 1007dc4:	ca8f      	ldmia	r2, {r0, r1, r2, r3, r7}
 1007dc6:	45ca      	cmp	sl, r9
 1007dc8:	821f      	strh	r7, [r3, #16]
 1007dca:	9d82      	ldr	r5, [sp, #520]	; 0x208
 1007dcc:	c989      	ldmia	r1!, {r0, r3, r7}
 1007dce:	40c9      	lsrs	r1, r1
 1007dd0:	7dfa      	ldrb	r2, [r7, #23]
 1007dd2:	877d      	strh	r5, [r7, #58]	; 0x3a
 1007dd4:	faef 15fa 			; <UNDEFINED> instruction: 0xfaef15fa
 1007dd8:	59b2      	ldr	r2, [r6, r6]
 1007dda:	eb59 478e 	adcs.w	r7, r9, lr, lsl #18
 1007dde:	c947      	ldmia	r1, {r0, r1, r2, r6}
 1007de0:	f0fb 0bf0 			; <UNDEFINED> instruction: 0xf0fb0bf0
 1007de4:	ad41      	add	r5, sp, #260	; 0x104
 1007de6:	ecad d4b3 	cfstrs	mvf13, [sp], #716	; 0x2cc
 1007dea:	67d4      	str	r4, [r2, #124]	; 0x7c
 1007dec:	a25f      	add	r2, pc, #380	; (adr r2, 0x1007f6c)
 1007dee:	fda2 af45 	stc2	15, cr10, [r2, #276]!	; 0x114
 1007df2:	eaaf 9c23 			; <UNDEFINED> instruction: 0xeaaf9c23
 1007df6:	bf9c      	itt	ls
 1007df8:	a453      	addls	r4, pc, #332	; (adr r4, 0x1007f48)
 1007dfa:	f7a4 72e4 			; <UNDEFINED> instruction: 0xf7a472e4
 1007dfe:	9672      	str	r6, [sp, #456]	; 0x1c8
 1007e00:	c09b      	stmia	r0!, {r0, r1, r3, r4, r7}
 1007e02:	5bc0      	ldrh	r0, [r0, r7]
 1007e04:	b775      			; <UNDEFINED> instruction: 0xb775
 1007e06:	c2b7      	stmia	r2!, {r0, r1, r2, r4, r5, r7}
 1007e08:	fde1 1cfd 	stc2l	12, cr1, [r1, #1012]!	; 0x3f4
 1007e0c:	933d      	str	r3, [sp, #244]	; 0xf4
 1007e0e:	ae93      	add	r6, sp, #588	; 0x24c
 1007e10:	264c      	movs	r6, #76	; 0x4c
 1007e12:	6a26      	ldr	r6, [r4, #32]
 1007e14:	366c      	adds	r6, #108	; 0x6c
 1007e16:	5a36      	ldrh	r6, [r6, r0]
 1007e18:	3f7e      	subs	r7, #126	; 0x7e
 1007e1a:	413f      	asrs	r7, r7
 1007e1c:	f7f5 02f7 			; <UNDEFINED> instruction: 0xf7f502f7
 1007e20:	cc83      	ldmia	r4!, {r0, r1, r7}
 1007e22:	4fcc      	ldr	r7, [pc, #816]	; (0x1008154)
 1007e24:	3468      	adds	r4, #104	; 0x68
 1007e26:	5c34      	ldrb	r4, [r6, r0]
 1007e28:	a551      	add	r5, pc, #324	; (adr r5, 0x1007f70)
 1007e2a:	f4a5 e5d1 			; <UNDEFINED> instruction: 0xf4a5e5d1
 1007e2e:	34e5      	adds	r4, #229	; 0xe5
 1007e30:	f1f9 08f1 			; <UNDEFINED> instruction: 0xf1f908f1
 1007e34:	71e2      	strb	r2, [r4, #7]
 1007e36:	9371      	str	r3, [sp, #452]	; 0x1c4
 1007e38:	d8ab      	bhi.n	0x1007d92
 1007e3a:	73d8      	strb	r0, [r3, #15]
 1007e3c:	3162      	adds	r1, #98	; 0x62
 1007e3e:	5331      	strh	r1, [r6, r4]
 1007e40:	152a      	asrs	r2, r5, #20
 1007e42:	3f15      	subs	r7, #21
 1007e44:	0408      	lsls	r0, r1, #16
 1007e46:	0c04      	lsrs	r4, r0, #16
 1007e48:	c795      	stmia	r7!, {r0, r2, r4, r7}
 1007e4a:	52c7      	strh	r7, [r0, r3]
 1007e4c:	2346      	movs	r3, #70	; 0x46
 1007e4e:	6523      	str	r3, [r4, #80]	; 0x50
 1007e50:	c39d      	stmia	r3!, {r0, r2, r3, r4, r7}
 1007e52:	5ec3      	ldrsh	r3, [r0, r3]
 1007e54:	1830      	adds	r0, r6, r0
 1007e56:	2818      	cmp	r0, #24
 1007e58:	9637      	str	r6, [sp, #220]	; 0xdc
 1007e5a:	a196      	add	r1, pc, #600	; (adr r1, 0x10080b4)
 1007e5c:	050a      	lsls	r2, r1, #20
 1007e5e:	0f05      	lsrs	r5, r0, #28
 1007e60:	9a2f      	ldr	r2, [sp, #188]	; 0xbc
 1007e62:	b59a      	push	{r1, r3, r4, r7, lr}
 1007e64:	070e      	lsls	r6, r1, #28
 1007e66:	0907      	lsrs	r7, r0, #4
 1007e68:	1224      	asrs	r4, r4, #8
 1007e6a:	3612      	adds	r6, #18
 1007e6c:	801b      	strh	r3, [r3, #0]
 1007e6e:	9b80      	ldr	r3, [sp, #512]	; 0x200
 1007e70:	e2df      	b.n	0x1008432
 1007e72:	3de2      	subs	r5, #226	; 0xe2
 1007e74:	ebcd 26eb 	rsb	r6, sp, fp, asr #11
 1007e78:	274e      	movs	r7, #78	; 0x4e
 1007e7a:	6927      	ldr	r7, [r4, #16]
 1007e7c:	b27f      	sxtb	r7, r7
 1007e7e:	cdb2      	ldmia	r5, {r1, r4, r5, r7}
 1007e80:	75ea      	strb	r2, [r5, #23]
 1007e82:	9f75      	ldr	r7, [sp, #468]	; 0x1d4
 1007e84:	0912      	lsrs	r2, r2, #4
 1007e86:	1b09      	subs	r1, r1, r4
 1007e88:	831d      	strh	r5, [r3, #24]
 1007e8a:	9e83      	ldr	r6, [sp, #524]	; 0x20c
 1007e8c:	2c58      	cmp	r4, #88	; 0x58
 1007e8e:	742c      	strb	r4, [r5, #16]
 1007e90:	1a34      	subs	r4, r6, r0
 1007e92:	2e1a      	cmp	r6, #26
 1007e94:	1b36      	subs	r6, r6, r4
 1007e96:	2d1b      	cmp	r5, #27
 1007e98:	6edc      	ldr	r4, [r3, #108]	; 0x6c
 1007e9a:	b26e      	sxtb	r6, r5
 1007e9c:	5ab4      	ldrh	r4, [r6, r2]
 1007e9e:	ee5a a05b 	mrc	0, 2, sl, cr10, cr11, {2}
 1007ea2:	fba0 52a4 			; <UNDEFINED> instruction: 0xfba052a4
 1007ea6:	f652 3b76 			; <UNDEFINED> instruction: 0xf6523b76
 1007eaa:	4d3b      	ldr	r5, [pc, #236]	; (0x1007f98)
 1007eac:	d6b7      	bvs.n	0x1007e1e
 1007eae:	61d6      	str	r6, [r2, #28]
 1007eb0:	b37d      	cbz	r5, 0x1007f12
 1007eb2:	ceb3      	ldmia	r6!, {r0, r1, r4, r5, r7}
 1007eb4:	2952      	cmp	r1, #82	; 0x52
 1007eb6:	7b29      	ldrb	r1, [r5, #12]
 1007eb8:	e3dd      	b.n	0x1008676
 1007eba:	3ee3      	subs	r6, #227	; 0xe3
 1007ebc:	2f5e      	cmp	r7, #94	; 0x5e
 1007ebe:	712f      	strb	r7, [r5, #4]
 1007ec0:	8413      	strh	r3, [r2, #32]
 1007ec2:	9784      	str	r7, [sp, #528]	; 0x210
 1007ec4:	53a6      	strh	r6, [r4, r6]
 1007ec6:	f553 d1b9 	bl	0x15b23c
 1007eca:	68d1      	ldr	r1, [r2, #12]
 1007ecc:	0000      	movs	r0, r0
 1007ece:	0000      	movs	r0, r0
 1007ed0:	edc1 2ced 	stcl	12, cr2, [r1, #948]	; 0x3b4
 1007ed4:	2040      	movs	r0, #64	; 0x40
 1007ed6:	6020      	str	r0, [r4, #0]
 1007ed8:	fce3 1ffc 	stc2l	15, cr1, [r3], #1008	; 0x3f0
 1007edc:	b179      	cbz	r1, 0x1007efe
 1007ede:	c8b1      	ldmia	r0, {r0, r4, r5, r7}
 1007ee0:	5bb6      	ldrh	r6, [r6, r6]
 1007ee2:	ed5b 6ad4 	vldr	s13, [fp, #-848]	; 0xfffffcb0
 1007ee6:	be6a      	bkpt	0x006a
 1007ee8:	cb8d      	ldmia	r3, {r0, r2, r3, r7}
 1007eea:	46cb      	mov	fp, r9
 1007eec:	be67      	bkpt	0x0067
 1007eee:	d9be      	bls.n	0x1007e6e
 1007ef0:	3972      	subs	r1, #114	; 0x72
 1007ef2:	4b39      	ldr	r3, [pc, #228]	; (0x1007fd8)
 1007ef4:	4a94      	ldr	r2, [pc, #592]	; (0x1008148)
 1007ef6:	de4a      			; <UNDEFINED> instruction: 0xde4a
 1007ef8:	4c98      	ldr	r4, [pc, #608]	; (0x100815c)
 1007efa:	d44c      	bmi.n	0x1007f96
 1007efc:	58b0      	ldr	r0, [r6, r2]
 1007efe:	e858 cf85 	ldrex	ip, [r8, #532]	; 0x214
 1007f02:	4acf      	ldr	r2, [pc, #828]	; (0x1008240)
 1007f04:	d0bb      	beq.n	0x1007e7e
 1007f06:	6bd0      	ldr	r0, [r2, #60]	; 0x3c
 1007f08:	efc5 2aef 	vmull.s<illegal width 8>	q9, d21, d3[7]
 1007f0c:	aa4f      	add	r2, sp, #316	; 0x13c
 1007f0e:	e5aa      	b.n	0x1007a66
 1007f10:	fbed 16fb 			; <UNDEFINED> instruction: 0xfbed16fb
 1007f14:	4386      	bics	r6, r0
 1007f16:	c543      	stmia	r5!, {r0, r1, r6}
 1007f18:	4d9a      	ldr	r5, [pc, #616]	; (0x1008184)
 1007f1a:	d74d      	bvc.n	0x1007fb8
 1007f1c:	3366      	adds	r3, #102	; 0x66
 1007f1e:	5533      	strb	r3, [r6, r4]
 1007f20:	8511      	strh	r1, [r2, #40]	; 0x28
 1007f22:	9485      	str	r4, [sp, #532]	; 0x214
 1007f24:	458a      	cmp	sl, r1
 1007f26:	cf45      	ldmia	r7!, {r0, r2, r6}
 1007f28:	f9e9 10f9 	vld1.8			; <UNDEFINED> instruction: 0xf9e910f9
 1007f2c:	0204      	lsls	r4, r0, #8
 1007f2e:	0602      	lsls	r2, r0, #24
 1007f30:	7ffe      	ldrb	r6, [r7, #31]
 1007f32:	817f      	strh	r7, [r7, #10]
 1007f34:	50a0      	str	r0, [r4, r2]
 1007f36:	f050 3c78 	orrs.w	ip, r0, #2021161080	; 0x78787878
 1007f3a:	443c      	add	r4, r7
 1007f3c:	9f25      	ldr	r7, [sp, #148]	; 0x94
 1007f3e:	ba9f      			; <UNDEFINED> instruction: 0xba9f
 1007f40:	a84b      	add	r0, sp, #300	; 0x12c
 1007f42:	e3a8      	b.n	0x1008696
 1007f44:	51a2      	str	r2, [r4, r6]
 1007f46:	f351 a35d 	ble.w	0x1059604
 1007f4a:	fea3 4080 	cdp2	0, 10, cr4, cr3, cr0, {4}
 1007f4e:	c040      	stmia	r0!, {r6}
 1007f50:	8f05      	ldrh	r5, [r0, #56]	; 0x38
 1007f52:	8a8f      	ldrh	r7, [r1, #20]
 1007f54:	923f      	str	r2, [sp, #252]	; 0xfc
 1007f56:	ad92      	add	r5, sp, #584	; 0x248
 1007f58:	9d21      	ldr	r5, [sp, #132]	; 0x84
 1007f5a:	bc9d      	pop	{r0, r2, r3, r4, r7}
 1007f5c:	3870      	subs	r0, #112	; 0x70
 1007f5e:	4838      	ldr	r0, [pc, #224]	; (0x1008040)
 1007f60:	f5f1 04f5 			; <UNDEFINED> instruction: 0xf5f104f5
 1007f64:	bc63      	pop	{r0, r1, r5, r6}
 1007f66:	dfbc      	svc	188	; 0xbc
 1007f68:	b677      	cpsid	aif
 1007f6a:	c1b6      	stmia	r1!, {r1, r2, r4, r5, r7}
 1007f6c:	daaf      	bge.n	0x1007ece
 1007f6e:	75da      	strb	r2, [r3, #23]
 1007f70:	2142      	movs	r1, #66	; 0x42
 1007f72:	6321      	str	r1, [r4, #48]	; 0x30
 1007f74:	1020      	asrs	r0, r4, #32
 1007f76:	3010      	adds	r0, #16
 1007f78:	ffe5 1aff 			; <UNDEFINED> instruction: 0xffe51aff
 1007f7c:	f3fd 0ef3 			; <UNDEFINED> instruction: 0xf3fd0ef3
 1007f80:	d2bf      	bcs.n	0x1007f02
 1007f82:	6dd2      	ldr	r2, [r2, #92]	; 0x5c
 1007f84:	cd81      	ldmia	r5!, {r0, r7}
 1007f86:	4ccd      	ldr	r4, [pc, #820]	; (0x10082bc)
 1007f88:	0c18      	lsrs	r0, r3, #16
 1007f8a:	140c      	asrs	r4, r1, #16
 1007f8c:	1326      	asrs	r6, r4, #12
 1007f8e:	3513      	adds	r5, #19
 1007f90:	ecc3 2fec 	stcl	15, cr2, [r3], {236}	; 0xec
 1007f94:	5fbe      	ldrsh	r6, [r7, r6]
 1007f96:	e15f      	b.n	0x1008258
 1007f98:	9735      	str	r7, [sp, #212]	; 0xd4
 1007f9a:	a297      	add	r2, pc, #604	; (adr r2, 0x10081f8)
 1007f9c:	4488      	add	r8, r1
 1007f9e:	cc44      	ldmia	r4!, {r2, r6}
 1007fa0:	172e      	asrs	r6, r5, #28
 1007fa2:	3917      	subs	r1, #23
 1007fa4:	c493      	stmia	r4!, {r0, r1, r4, r7}
 1007fa6:	57c4      	ldrsb	r4, [r0, r7]
 1007fa8:	a755      	add	r7, pc, #340	; (adr r7, 0x1008100)
 1007faa:	f2a7 7efc 	subw	lr, r7, #2044	; 0x7fc
 1007fae:	827e      	strh	r6, [r7, #18]
 1007fb0:	3d7a      	subs	r5, #122	; 0x7a
 1007fb2:	473d      	bx	r7
 1007fb4:	64c8      	str	r0, [r1, #76]	; 0x4c
 1007fb6:	ac64      	add	r4, sp, #400	; 0x190
 1007fb8:	5dba      	ldrb	r2, [r7, r6]
 1007fba:	e75d      	b.n	0x1007e78
 1007fbc:	1932      	adds	r2, r6, r4
 1007fbe:	2b19      	cmp	r3, #25
 1007fc0:	73e6      	strb	r6, [r4, #15]
 1007fc2:	9573      	str	r5, [sp, #460]	; 0x1cc
 1007fc4:	60c0      	str	r0, [r0, #12]
 1007fc6:	a060      	add	r0, pc, #384	; (adr r0, 0x1008148)
 1007fc8:	8119      	strh	r1, [r3, #8]
 1007fca:	9881      	ldr	r0, [sp, #516]	; 0x204
 1007fcc:	4f9e      	ldr	r7, [pc, #632]	; (0x1008248)
 1007fce:	d14f      	bne.n	0x1008070
 1007fd0:	dca3      	bgt.n	0x1007f1a
 1007fd2:	7fdc      	ldrb	r4, [r3, #31]
 1007fd4:	2244      	movs	r2, #68	; 0x44
 1007fd6:	6622      	str	r2, [r4, #96]	; 0x60
 1007fd8:	2a54      	cmp	r2, #84	; 0x54
 1007fda:	7e2a      	ldrb	r2, [r5, #24]
 1007fdc:	903b      	str	r0, [sp, #236]	; 0xec
 1007fde:	ab90      	add	r3, sp, #576	; 0x240
 1007fe0:	880b      	ldrh	r3, [r1, #0]
 1007fe2:	8388      	strh	r0, [r1, #28]
 1007fe4:	468c      	mov	ip, r1
 1007fe6:	ca46      	ldmia	r2, {r1, r2, r6}
 1007fe8:	eec7 29ee 	cdp	9, 12, cr2, cr7, cr14, {7}
 1007fec:	b86b      			; <UNDEFINED> instruction: 0xb86b
 1007fee:	d3b8      	bcc.n	0x1007f62
 1007ff0:	1428      	asrs	r0, r5, #16
 1007ff2:	3c14      	subs	r4, #20
 1007ff4:	dea7      			; <UNDEFINED> instruction: 0xdea7
 1007ff6:	79de      	ldrb	r6, [r3, #7]
 1007ff8:	5ebc      	ldrsh	r4, [r7, r2]
 1007ffa:	e25e      	b.n	0x10084ba
 1007ffc:	0b16      	lsrs	r6, r2, #12
 1007ffe:	1d0b      	adds	r3, r1, #4
 1008000:	dbad      	blt.n	0x1007f5e
 1008002:	76db      	strb	r3, [r3, #27]
 1008004:	e0db      	b.n	0x10081be
 1008006:	3be0      	subs	r3, #224	; 0xe0
 1008008:	3264      	adds	r2, #100	; 0x64
 100800a:	5632      	ldrsb	r2, [r6, r0]
 100800c:	3a74      	subs	r2, #116	; 0x74
 100800e:	4e3a      	ldr	r6, [pc, #232]	; (0x10080f8)
 1008010:	0a14      	lsrs	r4, r2, #8
 1008012:	1e0a      	subs	r2, r1, #0
 1008014:	4992      	ldr	r1, [pc, #584]	; (0x1008260)
 1008016:	db49      	blt.n	0x10080ac
 1008018:	060c      	lsls	r4, r1, #24
 100801a:	0a06      	lsrs	r6, r0, #8
 100801c:	2448      	movs	r4, #72	; 0x48
 100801e:	6c24      	ldr	r4, [r4, #64]	; 0x40
 1008020:	5cb8      	ldrb	r0, [r7, r2]
 1008022:	e45c      	b.n	0x10078de
 1008024:	c29f      	stmia	r2!, {r0, r1, r2, r3, r4, r7}
 1008026:	5dc2      	ldrb	r2, [r0, r7]
 1008028:	d3bd      	bcc.n	0x1007fa6
 100802a:	6ed3      	ldr	r3, [r2, #108]	; 0x6c
 100802c:	ac43      	add	r4, sp, #268	; 0x10c
 100802e:	efac 62c4 	vmlal.s32	q3, d28, d4[0]
 1008032:	a662      	add	r6, pc, #392	; (adr r6, 0x10081bc)
 1008034:	9139      	str	r1, [sp, #228]	; 0xe4
 1008036:	a891      	add	r0, sp, #580	; 0x244
 1008038:	9531      	str	r5, [sp, #196]	; 0xc4
 100803a:	a495      	add	r4, pc, #596	; (adr r4, 0x1008290)
 100803c:	e4d3      	b.n	0x10079e6
 100803e:	37e4      	adds	r7, #228	; 0xe4
 1008040:	79f2      	ldrb	r2, [r6, #7]
 1008042:	8b79      	ldrh	r1, [r7, #26]
 1008044:	e7d5      	b.n	0x1007ff2
 1008046:	32e7      	adds	r2, #231	; 0xe7
 1008048:	c88b      	ldmia	r0, {r0, r1, r3, r7}
 100804a:	43c8      	mvns	r0, r1
 100804c:	376e      	adds	r7, #110	; 0x6e
 100804e:	5937      	ldr	r7, [r6, r4]
 1008050:	6dda      	ldr	r2, [r3, #92]	; 0x5c
 1008052:	b76d      			; <UNDEFINED> instruction: 0xb76d
 1008054:	8d01      	ldrh	r1, [r0, #40]	; 0x28
 1008056:	8c8d      	ldrh	r5, [r1, #36]	; 0x24
 1008058:	d5b1      	bpl.n	0x1007fbe
 100805a:	64d5      	str	r5, [r2, #76]	; 0x4c
 100805c:	4e9c      	ldr	r6, [pc, #624]	; (0x10082d0)
 100805e:	d24e      	bcs.n	0x10080fe
 1008060:	a949      	add	r1, sp, #292	; 0x124
 1008062:	e0a9      	b.n	0x10081b8
 1008064:	6cd8      	ldr	r0, [r3, #76]	; 0x4c
 1008066:	b46c      	push	{r2, r3, r5, r6}
 1008068:	56ac      	ldrsb	r4, [r5, r2]
 100806a:	fa56 f4f3 			; <UNDEFINED> instruction: 0xfa56f4f3
 100806e:	07f4      	lsls	r4, r6, #31
 1008070:	eacf 25ea 	pkhtb	r5, pc, sl, asr #11
 1008074:	65ca      	str	r2, [r1, #92]	; 0x5c
 1008076:	af65      	add	r7, sp, #404	; 0x194
 1008078:	7af4      	ldrb	r4, [r6, #11]
 100807a:	8e7a      	ldrh	r2, [r7, #50]	; 0x32
 100807c:	ae47      	add	r6, sp, #284	; 0x11c
 100807e:	e9ae 0810 			; <UNDEFINED> instruction: 0xe9ae0810
 1008082:	1808      	adds	r0, r1, r0
 1008084:	ba6f      	rev16	r7, r5
 1008086:	d5ba      	bpl.n	0x1007ffe
 1008088:	78f0      	ldrb	r0, [r6, #3]
 100808a:	8878      	ldrh	r0, [r7, #2]
 100808c:	254a      	movs	r5, #74	; 0x4a
 100808e:	6f25      	ldr	r5, [r4, #112]	; 0x70
 1008090:	2e5c      	cmp	r6, #92	; 0x5c
 1008092:	722e      	strb	r6, [r5, #8]
 1008094:	1c38      	adds	r0, r7, #0
 1008096:	241c      	movs	r4, #28
 1008098:	a657      	add	r6, pc, #348	; (adr r6, 0x10081f8)
 100809a:	f1a6 b473 	b.w	0x15ae984
 100809e:	c7b4      	stmia	r7!, {r2, r4, r5, r7}
 10080a0:	c697      	stmia	r6!, {r0, r1, r2, r4, r7}
 10080a2:	51c6      	str	r6, [r0, r7]
 10080a4:	e8cb 23e8 			; <UNDEFINED> instruction: 0xe8cb23e8
 10080a8:	dda1      	ble.n	0x1007fee
 10080aa:	7cdd      	ldrb	r5, [r3, #19]
 10080ac:	74e8      	strb	r0, [r5, #19]
 10080ae:	9c74      	ldr	r4, [sp, #464]	; 0x1d0
 10080b0:	1f3e      	subs	r6, r7, #4
 10080b2:	211f      	movs	r1, #31
 10080b4:	4b96      	ldr	r3, [pc, #600]	; (0x1008310)
 10080b6:	dd4b      	ble.n	0x1008150
 10080b8:	bd61      	pop	{r0, r5, r6, pc}
 10080ba:	dcbd      	bgt.n	0x1008038
 10080bc:	8b0d      	ldrh	r5, [r1, #24]
 10080be:	868b      	strh	r3, [r1, #52]	; 0x34
 10080c0:	8a0f      	ldrh	r7, [r1, #16]
 10080c2:	858a      	strh	r2, [r1, #44]	; 0x2c
 10080c4:	70e0      	strb	r0, [r4, #3]
 10080c6:	9070      	str	r0, [sp, #448]	; 0x1c0
 10080c8:	3e7c      	subs	r6, #124	; 0x7c
 10080ca:	423e      	tst	r6, r7
 10080cc:	b571      	push	{r0, r4, r5, r6, lr}
 10080ce:	c4b5      	stmia	r4!, {r0, r2, r4, r5, r7}
 10080d0:	66cc      	str	r4, [r1, #108]	; 0x6c
 10080d2:	aa66      	add	r2, sp, #408	; 0x198
 10080d4:	4890      	ldr	r0, [pc, #576]	; (0x1008318)
 10080d6:	d848      	bhi.n	0x100816a
 10080d8:	0306      	lsls	r6, r0, #12
 10080da:	0503      	lsls	r3, r0, #20
 10080dc:	f6f7 01f6 			; <UNDEFINED> instruction: 0xf6f701f6
 10080e0:	0e1c      	lsrs	r4, r3, #24
 10080e2:	120e      	asrs	r6, r1, #8
 10080e4:	61c2      	str	r2, [r0, #28]
 10080e6:	a361      	add	r3, pc, #388	; (adr r3, 0x100826c)
 10080e8:	356a      	adds	r5, #106	; 0x6a
 10080ea:	5f35      	ldrsh	r5, [r6, r4]
 10080ec:	57ae      	ldrsb	r6, [r5, r6]
 10080ee:	f957 b969 	ldr??.w	fp, [r7], #-105
 10080f2:	d0b9      	beq.n	0x1008068
 10080f4:	8617      	strh	r7, [r2, #48]	; 0x30
 10080f6:	9186      	str	r1, [sp, #536]	; 0x218
 10080f8:	c199      	stmia	r1!, {r0, r3, r4, r7}
 10080fa:	58c1      	ldr	r1, [r0, r3]
 10080fc:	1d3a      	adds	r2, r7, #4
 10080fe:	271d      	movs	r7, #29
 1008100:	9e27      	ldr	r6, [sp, #156]	; 0x9c
 1008102:	b99e      	cbnz	r6, 0x100812c
 1008104:	e1d9      	b.n	0x10084ba
 1008106:	38e1      	subs	r0, #225	; 0xe1
 1008108:	f8eb 13f8 	str??.w	r1, [fp, #1016]	; 0x3f8
 100810c:	982b      	ldr	r0, [sp, #172]	; 0xac
 100810e:	b398      	cbz	r0, 0x1008178
 1008110:	1122      	asrs	r2, r4, #4
 1008112:	3311      	adds	r3, #17
 1008114:	69d2      	ldr	r2, [r2, #28]
 1008116:	bb69      	cbnz	r1, 0x1008174
 1008118:	d9a9      	bls.n	0x100806e
 100811a:	70d9      	strb	r1, [r3, #3]
 100811c:	8e07      	ldrh	r7, [r0, #48]	; 0x30
 100811e:	898e      	ldrh	r6, [r1, #12]
 1008120:	9433      	str	r4, [sp, #204]	; 0xcc
 1008122:	a794      	add	r7, pc, #592	; (adr r7, 0x1008374)
 1008124:	9b2d      	ldr	r3, [sp, #180]	; 0xb4
 1008126:	b69b      			; <UNDEFINED> instruction: 0xb69b
 1008128:	1e3c      	subs	r4, r7, #0
 100812a:	221e      	movs	r2, #30
 100812c:	8715      	strh	r5, [r2, #56]	; 0x38
 100812e:	9287      	str	r2, [sp, #540]	; 0x21c
 1008130:	e9c9 20e9 	strd	r2, r0, [r9, #932]	; 0x3a4
 1008134:	ce87      	ldmia	r6!, {r0, r1, r2, r7}
 1008136:	49ce      	ldr	r1, [pc, #824]	; (0x1008470)
 1008138:	55aa      	strb	r2, [r5, r6]
 100813a:	ff55 2850 	vceq.i16	q9, <illegal reg q2.5>, q0
 100813e:	7828      	ldrb	r0, [r5, #0]
 1008140:	dfa5      	svc	165	; 0xa5
 1008142:	7adf      	ldrb	r7, [r3, #11]
 1008144:	8c03      	ldrh	r3, [r0, #32]
 1008146:	8f8c      	ldrh	r4, [r1, #60]	; 0x3c
 1008148:	a159      	add	r1, pc, #356	; (adr r1, 0x10082b0)
 100814a:	f8a1 8909 	strh.w	r8, [r1, #2313]	; 0x909
 100814e:	8089      	strh	r1, [r1, #4]
 1008150:	0d1a      	lsrs	r2, r3, #20
 1008152:	170d      	asrs	r5, r1, #28
 1008154:	bf65      	ittet	vs
 1008156:	dabf      	bge.n	0x10080d8	; unpredictable <IT:vs>
 1008158:	e6d7      	bvs.n	0x1007f0a	; unpredictable branch in IT block

 100815a:	31e6      	addvc	r1, #230	; 0xe6
 100815c:	4284      	cmpvs	r4, r0
 100815e:	c642      	stmia	r6!, {r1, r6}
 1008160:	68d0      	ldr	r0, [r2, #12]
 1008162:	b868      			; <UNDEFINED> instruction: 0xb868
 1008164:	4182      	sbcs	r2, r0
 1008166:	c341      	stmia	r3!, {r0, r6}
 1008168:	9929      	ldr	r1, [sp, #164]	; 0xa4
 100816a:	b099      	sub	sp, #100	; 0x64
 100816c:	2d5a      	cmp	r5, #90	; 0x5a
 100816e:	772d      	strb	r5, [r5, #28]
 1008170:	0f1e      	lsrs	r6, r3, #28
 1008172:	110f      	asrs	r7, r1, #4
 1008174:	b07b      	add	sp, #492	; 0x1ec
 1008176:	cbb0      	ldmia	r3!, {r4, r5, r7}
 1008178:	54a8      	strb	r0, [r5, r2]
 100817a:	fc54 bb6d 	mrrc2	11, 6, fp, r4, cr13
 100817e:	d6bb      	bvs.n	0x10080f8
 1008180:	162c      	asrs	r4, r5, #24
 1008182:	3a16      	subs	r2, #22
 1008184:	0952      	lsrs	r2, r2, #5
 1008186:	d56a      	bpl.n	0x100825e
 1008188:	3630      	adds	r6, #48	; 0x30
 100818a:	38a5      	subs	r0, #165	; 0xa5
 100818c:	40bf      	lsls	r7, r7
 100818e:	9ea3      	ldr	r6, [sp, #652]	; 0x28c
 1008190:	f381 fbd7 	bl	0x1389942
 1008194:	e37c      	b.n	0x1008890
 1008196:	8239      	strh	r1, [r7, #16]
 1008198:	2f9b      	cmp	r7, #155	; 0x9b
 100819a:	87ff      	strh	r7, [r7, #62]	; 0x3e
 100819c:	8e34      	ldrh	r4, [r6, #48]	; 0x30
 100819e:	4443      	add	r3, r8
 10081a0:	dec4      			; <UNDEFINED> instruction: 0xdec4
 10081a2:	cbe9      	ldmia	r3, {r0, r3, r5, r6, r7}
 10081a4:	7b54      	ldrb	r4, [r2, #13]
 10081a6:	3294      	adds	r2, #148	; 0x94
 10081a8:	c2a6      	stmia	r2!, {r1, r2, r5, r7}
 10081aa:	3d23      	subs	r5, #35	; 0x23
 10081ac:	4cee      	ldr	r4, [pc, #952]	; (0x1008568)
 10081ae:	0b95      	lsrs	r5, r2, #14
 10081b0:	fa42 4ec3 			; <UNDEFINED> instruction: 0xfa424ec3
 10081b4:	2e08      	cmp	r6, #8
 10081b6:	66a1      	str	r1, [r4, #104]	; 0x68
 10081b8:	d928      	bls.n	0x100820c
 10081ba:	b224      	sxth	r4, r4
 10081bc:	5b76      	ldrh	r6, [r6, r5]
 10081be:	49a2      	ldr	r1, [pc, #648]	; (0x1008448)
 10081c0:	8b6d      	ldrh	r5, [r5, #26]
 10081c2:	25d1      	movs	r5, #209	; 0xd1
 10081c4:	f872 64f6 	ldr??.w	r6, [r2, <undefined>]
 10081c8:	6886      	ldr	r6, [r0, #8]
 10081ca:	1698      	asrs	r0, r3, #26
 10081cc:	a4d4      	add	r4, pc, #848	; (adr r4, 0x1008520)
 10081ce:	cc5c      	ldmia	r4, {r2, r3, r4, r6}
 10081d0:	655d      	str	r5, [r3, #84]	; 0x54
 10081d2:	92b6      	str	r2, [sp, #728]	; 0x2d8
 10081d4:	706c      	strb	r4, [r5, #1]
 10081d6:	5048      	str	r0, [r1, r1]
 10081d8:	edfd dab9 	ldcl	10, cr13, [sp, #740]!	; 0x2e4
 10081dc:	155e      	asrs	r6, r3, #21
 10081de:	5746      	ldrsb	r6, [r0, r5]
 10081e0:	8da7      	ldrh	r7, [r4, #44]	; 0x2c
 10081e2:	849d      	strh	r5, [r3, #36]	; 0x24
 10081e4:	d890      	bhi.n	0x1008108
 10081e6:	00ab      	lsls	r3, r5, #2
 10081e8:	bc8c      	pop	{r2, r3, r7}
 10081ea:	0ad3      	lsrs	r3, r2, #11
 10081ec:	e4f7      	b.n	0x1007bde
 10081ee:	0558      	lsls	r0, r3, #21
 10081f0:	b3b8      	cbz	r0, 0x1008262
 10081f2:	0645      	lsls	r5, r0, #25
 10081f4:	2cd0      	cmp	r4, #208	; 0xd0
 10081f6:	8f1e      	ldrh	r6, [r3, #56]	; 0x38
 10081f8:	3fca      	subs	r7, #202	; 0xca
 10081fa:	020f      	lsls	r7, r1, #8
 10081fc:	afc1      	add	r7, sp, #772	; 0x304
 10081fe:	03bd      	lsls	r5, r7, #14
 1008200:	1301      	asrs	r1, r0, #12
 1008202:	6b8a      	ldr	r2, [r1, #56]	; 0x38
 1008204:	913a      	str	r1, [sp, #232]	; 0xe8
 1008206:	4111      	asrs	r1, r2
 1008208:	674f      	str	r7, [r1, #116]	; 0x74
 100820a:	eadc f297 			; <UNDEFINED> instruction: 0xeadcf297
 100820e:	cecf      	ldmia	r6, {r0, r1, r2, r3, r6, r7}
 1008210:	b4f0      	push	{r4, r5, r6, r7}
 1008212:	73e6      	strb	r6, [r4, #15]
 1008214:	ac96      	add	r4, sp, #600	; 0x258
 1008216:	2274      	movs	r2, #116	; 0x74
 1008218:	ade7      	add	r5, sp, #924	; 0x39c
 100821a:	8535      	strh	r5, [r6, #40]	; 0x28
 100821c:	f9e2 e837 	vld1.32	{d30[0]}, [r2 :32], r7
 1008220:	751c      	strb	r4, [r3, #20]
 1008222:	6edf      	ldr	r7, [r3, #108]	; 0x6c
 1008224:	f147 711a 	adc.w	r1, r7, #40370176	; 0x2680000
 1008228:	291d      	cmp	r1, #29
 100822a:	89c5      	ldrh	r5, [r0, #14]
 100822c:	b76f      			; <UNDEFINED> instruction: 0xb76f
 100822e:	0e62      	lsrs	r2, r4, #25
 1008230:	18aa      	adds	r2, r5, r2
 1008232:	1bbe      	subs	r6, r7, r6
 1008234:	56fc      	ldrsb	r4, [r7, r3]
 1008236:	4b3e      	ldr	r3, [pc, #248]	; (0x1008330)
 1008238:	d2c6      	bcs.n	0x10081c8
 100823a:	2079      	movs	r0, #121	; 0x79
 100823c:	db9a      	blt.n	0x1008174
 100823e:	fec0 cd78 	mcr2	13, 6, ip, cr0, cr8, {3}
 1008242:	f45a dd1f 	bl	0x462c84
 1008246:	33a8      	adds	r3, #168	; 0xa8
 1008248:	0788      	lsls	r0, r1, #30
 100824a:	31c7      	adds	r1, #199	; 0xc7
 100824c:	12b1      	asrs	r1, r6, #10
 100824e:	5910      	ldr	r0, [r2, r4]
 1008250:	8027      	strh	r7, [r4, #0]
 1008252:	5fec      	ldrsh	r4, [r5, r7]
 1008254:	5160      	str	r0, [r4, r5]
 1008256:	a97f      	add	r1, sp, #508	; 0x1fc
 1008258:	b519      	push	{r0, r3, r4, lr}
 100825a:	0d4a      	lsrs	r2, r1, #21
 100825c:	e52d      	b.n	0x1007cba
 100825e:	9f7a      	ldr	r7, [sp, #488]	; 0x1e8
 1008260:	c993      	ldmia	r1, {r0, r1, r4, r7}
 1008262:	ef9c e0a0 	vaddl.s16	q7, d28, d16
 1008266:	4d3b      	ldr	r5, [pc, #236]	; (0x1008354)
 1008268:	2aae      	cmp	r2, #174	; 0xae
 100826a:	b0f5      	sub	sp, #468	; 0x1d4
 100826c:	ebc8 3cbb 	rsb	ip, r8, fp, ror #14
 1008270:	5383      	strh	r3, [r0, r6]
 1008272:	6199      	str	r1, [r3, #24]
 1008274:	2b17      	cmp	r3, #23
 1008276:	7e04      	ldrb	r4, [r0, #24]
 1008278:	77ba      	strb	r2, [r7, #30]
 100827a:	26d6      	movs	r6, #214	; 0xd6
 100827c:	69e1      	ldr	r1, [r4, #28]
 100827e:	6314      	str	r4, [r2, #48]	; 0x30
 1008280:	2155      	movs	r1, #85	; 0x55
 1008282:	7d0c      	ldrb	r4, [r1, #20]
 1008284:	f451 50a7 	orrs.w	r0, r1, #5344	; 0x14e0
 1008288:	417e      	adcs	r6, r7
 100828a:	5365      	strh	r5, [r4, r5]
 100828c:	171a      	asrs	r2, r3, #28
 100828e:	c3a4      	stmia	r3!, {r2, r5, r7}
 1008290:	273a      	movs	r7, #58	; 0x3a
 1008292:	965e      	str	r6, [sp, #376]	; 0x178
 1008294:	ab3b      	add	r3, sp, #236	; 0xec
 1008296:	cb6b      	ldmia	r3, {r0, r1, r3, r5, r6}
 1008298:	9d1f      	ldr	r5, [sp, #124]	; 0x7c
 100829a:	f145 faac 	bl	0x114d7f6
 100829e:	ab58      	add	r3, sp, #352	; 0x160
 10082a0:	e34b      	b.n	0x100893a
 10082a2:	9303      	str	r3, [sp, #12]
 10082a4:	3020      	adds	r0, #32
 10082a6:	55fa      	strb	r2, [r7, r7]
 10082a8:	76ad      	strb	r5, [r5, #26]
 10082aa:	f66d cc88 	blx	0x675bbc
 10082ae:	9176      	str	r1, [sp, #472]	; 0x1d8
 10082b0:	02f5      	lsls	r5, r6, #11
 10082b2:	254c      	movs	r5, #76	; 0x4c
 10082b4:	e54f      	b.n	0x1007d56
 10082b6:	fcd7 2ac5 	ldc2l	10, cr2, [r7], {197}	; 0xc5
 10082ba:	d7cb      	bvc.n	0x1008254
 10082bc:	3526      	adds	r5, #38	; 0x26
 10082be:	8044      	strh	r4, [r0, #2]
 10082c0:	62b5      	str	r5, [r6, #40]	; 0x28
 10082c2:	8fa3      	ldrh	r3, [r4, #60]	; 0x3c
 10082c4:	b1de      	cbz	r6, 0x10082fe
 10082c6:	495a      	ldr	r1, [pc, #360]	; (0x1008430)
 10082c8:	ba25      	rev	r5, r4
 10082ca:	671b      	str	r3, [r3, #112]	; 0x70
 10082cc:	ea45 980e 			; <UNDEFINED> instruction: 0xea45980e
 10082d0:	fe5d e1c0 	cdp2	1, 5, cr14, cr13, cr0, {6}
 10082d4:	2fc3      	cmp	r7, #195	; 0xc3
 10082d6:	0275      	lsls	r5, r6, #9
 10082d8:	4c81      	ldr	r4, [pc, #516]	; (0x10084e0)
 10082da:	12f0      	asrs	r0, r6, #11
 10082dc:	468d      	mov	sp, r1
 10082de:	a397      	add	r3, pc, #604	; (adr r3, 0x100853c)
 10082e0:	d36b      	bcc.n	0x10083ba
 10082e2:	c6f9      	stmia	r6!, {r0, r3, r4, r5, r6, r7}
 10082e4:	8f03      	ldrh	r3, [r0, #56]	; 0x38
 10082e6:	e75f      	b.n	0x10081a8
 10082e8:	9215      	str	r2, [sp, #84]	; 0x54
 10082ea:	959c      	str	r5, [sp, #624]	; 0x270
 10082ec:	6dbf      	ldr	r7, [r7, #88]	; 0x58
 10082ee:	eb7a 5295 	sbcs.w	r2, sl, r5, lsr #22
 10082f2:	da59      	bge.n	0x10083a8
 10082f4:	bed4      	bkpt	0x00d4
 10082f6:	2d83      	cmp	r5, #131	; 0x83
 10082f8:	7458      	strb	r0, [r3, #17]
 10082fa:	d321      	bcc.n	0x1008340
 10082fc:	e049      	b.n	0x1008392
 10082fe:	2969      	cmp	r1, #105	; 0x69
 1008300:	c98e      	ldmia	r1, {r1, r2, r3, r7}
 1008302:	44c8      	add	r8, r9
 1008304:	c275      	stmia	r2!, {r0, r2, r4, r5, r6}
 1008306:	6a89      	ldr	r1, [r1, #40]	; 0x28
 1008308:	8ef4      	ldrh	r4, [r6, #54]	; 0x36
 100830a:	7879      	ldrb	r1, [r7, #1]
 100830c:	5899      	ldr	r1, [r3, r2]
 100830e:	6b3e      	ldr	r6, [r7, #48]	; 0x30
 1008310:	b927      	cbnz	r7, 0x100831c
 1008312:	dd71      	ble.n	0x10083f8
 1008314:	e1be      	b.n	0x1008694
 1008316:	b64f      			; <UNDEFINED> instruction: 0xb64f
 1008318:	88f0      	ldrh	r0, [r6, #6]
 100831a:	17ad      	asrs	r5, r5, #30
 100831c:	20c9      	movs	r0, #201	; 0xc9
 100831e:	66ac      	str	r4, [r5, #104]	; 0x68
 1008320:	ce7d      	ldmia	r6, {r0, r2, r3, r4, r5, r6}
 1008322:	b43a      	push	{r1, r3, r4, r5}
 1008324:	df63      	svc	99	; 0x63
 1008326:	184a      	adds	r2, r1, r1
 1008328:	1ae5      	subs	r5, r4, r3
 100832a:	8231      	strh	r1, [r6, #16]
 100832c:	5197      	str	r7, [r2, r6]
 100832e:	6033      	str	r3, [r6, #0]
 1008330:	5362      	strh	r2, [r4, r5]
 1008332:	457f      	cmp	r7, pc
 1008334:	64b1      	str	r1, [r6, #72]	; 0x48
 1008336:	e077      	b.n	0x1008428
 1008338:	6bbb      	ldr	r3, [r7, #56]	; 0x38
 100833a:	84ae      	strh	r6, [r5, #36]	; 0x24
 100833c:	81fe      	strh	r6, [r7, #14]
 100833e:	1ca0      	adds	r0, r4, #2
 1008340:	08f9      	lsrs	r1, r7, #3
 1008342:	942b      	str	r4, [sp, #172]	; 0xac
 1008344:	4870      	ldr	r0, [pc, #448]	; (0x1008508)
 1008346:	5868      	ldr	r0, [r5, r1]
 1008348:	458f      	cmp	pc, r1
 100834a:	19fd      	adds	r5, r7, r7
 100834c:	de94      			; <UNDEFINED> instruction: 0xde94
 100834e:	876c      	strh	r4, [r5, #58]	; 0x3a
 1008350:	7b52      	ldrb	r2, [r2, #13]
 1008352:	b7f8      			; <UNDEFINED> instruction: 0xb7f8
 1008354:	73ab      	strb	r3, [r5, #14]
 1008356:	23d3      	movs	r3, #211	; 0xd3
 1008358:	4b72      	ldr	r3, [pc, #456]	; (0x1008524)
 100835a:	e202      	b.n	0x1008762
 100835c:	1fe3      	subs	r3, r4, #7
 100835e:	578f      	ldrsb	r7, [r1, r6]
 1008360:	5566      	strb	r6, [r4, r5]
 1008362:	2aab      	cmp	r2, #171	; 0xab
 1008364:	ebb2 0728 	subs.w	r7, r2, r8, asr #32
 1008368:	b52f      	push	{r0, r1, r2, r3, r5, lr}
 100836a:	03c2      	lsls	r2, r0, #15
 100836c:	c586      	stmia	r5!, {r1, r2, r7}
 100836e:	9a7b      	ldr	r2, [sp, #492]	; 0x1ec
 1008370:	37d3      	adds	r7, #211	; 0xd3
 1008372:	a508      	add	r5, pc, #32	; (adr r5, 0x1008394)
 1008374:	2830      	cmp	r0, #48	; 0x30
 1008376:	f287 bf23 	b.w	0x12901c0
 100837a:	b2a5      	uxth	r5, r4
 100837c:	0302      	lsls	r2, r0, #12
 100837e:	ba6a      	rev16	r2, r5
 1008380:	16ed      	asrs	r5, r5, #27
 1008382:	5c82      	ldrb	r2, [r0, r2]
 1008384:	cf8a      	ldmia	r7, {r1, r3, r7}
 1008386:	2b1c      	cmp	r3, #28
 1008388:	79a7      	ldrb	r7, [r4, #6]
 100838a:	92b4      	str	r2, [sp, #720]	; 0x2d0
 100838c:	07f3      	lsls	r3, r6, #31
 100838e:	f0f2 694e 			; <UNDEFINED> instruction: 0xf0f2694e
 1008392:	a1e2      	add	r1, pc, #904	; (adr r1, 0x100871c)
 1008394:	da65      	bge.n	0x1008462
 1008396:	cdf4      	ldmia	r5, {r2, r4, r5, r6, r7}
 1008398:	0506      	lsls	r6, r0, #20
 100839a:	d5be      	bpl.n	0x100831a
 100839c:	34d1      	adds	r4, #209	; 0xd1
 100839e:	1f62      	subs	r2, r4, #5
 10083a0:	a6c4      	add	r6, pc, #784	; (adr r6, 0x10086b4)
 10083a2:	8afe      	ldrh	r6, [r7, #22]
 10083a4:	2e34      	cmp	r6, #52	; 0x34
 10083a6:	9d53      	ldr	r5, [sp, #332]	; 0x14c
 10083a8:	f3a2 a055 	undefined (bcc, cond=0xE)
 10083ac:	8a05      	ldrh	r5, [r0, #16]
 10083ae:	32e1      	adds	r2, #225	; 0xe1
 10083b0:	f6a4 75eb 	subw	r5, r4, #4075	; 0xfeb
 10083b4:	830b      	strh	r3, [r1, #24]
 10083b6:	39ec      	subs	r1, #236	; 0xec
 10083b8:	6040      	str	r0, [r0, #4]
 10083ba:	aaef      	add	r2, sp, #956	; 0x3bc
 10083bc:	715e      	strb	r6, [r3, #5]
 10083be:	069f      	lsls	r7, r3, #26
 10083c0:	6ebd      	ldr	r5, [r7, #104]	; 0x68
 10083c2:	5110      	str	r0, [r2, r4]
 10083c4:	213e      	movs	r1, #62	; 0x3e
 10083c6:	f98a dd96 	vst2.<illegal width 64>	{d13[0],d15[0]}, [sl :128], r6
 10083ca:	3d06      	subs	r5, #6
 10083cc:	3edd      	subs	r6, #221	; 0xdd
 10083ce:	ae05      	add	r6, sp, #20
 10083d0:	e64d      	b.n	0x100806e
 10083d2:	46bd      	mov	sp, r7
 10083d4:	5491      	strb	r1, [r2, r2]
 10083d6:	b58d      	push	{r0, r2, r3, r7, lr}
 10083d8:	c471      	stmia	r4!, {r0, r4, r5, r6}
 10083da:	055d      	lsls	r5, r3, #21
 10083dc:	0604      	lsls	r4, r0, #24
 10083de:	6fd4      	ldr	r4, [r2, #124]	; 0x7c
 10083e0:	5060      	str	r0, [r4, r1]
 10083e2:	ff15 9819 	vceq.i16	d9, d5, d9
 10083e6:	24fb      	movs	r4, #251	; 0xfb
 10083e8:	bdd6      	pop	{r1, r2, r4, r6, r7, pc}
 10083ea:	97e9      	str	r7, [sp, #932]	; 0x3a4
 10083ec:	4089      	lsls	r1, r1
 10083ee:	cc43      	ldmia	r4!, {r0, r1, r6}
 10083f0:	d967      	bls.n	0x10084c2
 10083f2:	779e      	strb	r6, [r3, #30]
 10083f4:	e8b0 bd42 	ldmia.w	r0!, {r1, r6, r8, sl, fp, ip, sp, pc}
 10083f8:	8907      	ldrh	r7, [r0, #8]
 10083fa:	888b      	ldrh	r3, [r1, #4]
 10083fc:	19e7      	adds	r7, r4, r7
 10083fe:	385b      	subs	r0, #91	; 0x5b
 1008400:	c879      	ldmia	r0, {r0, r3, r4, r5, r6}
 1008402:	dbee      	blt.n	0x10083e2
 1008404:	7ca1      	ldrb	r1, [r4, #18]
 1008406:	470a      	bx	r1
 1008408:	427c      	negs	r4, r7
 100840a:	e90f 84f8 	stmdb	pc, {r3, r4, r5, r6, r7, sl, pc}
 100840e:	c91e      	ldmia	r1, {r1, r2, r3, r4}
 1008410:	0000      	movs	r0, r0
 1008412:	0000      	movs	r0, r0
 1008414:	8009      	strh	r1, [r1, #0]
 1008416:	8386      	strh	r6, [r0, #28]
 1008418:	2b32      	cmp	r3, #50	; 0x32
 100841a:	48ed      	ldr	r0, [pc, #948]	; (0x10087d0)
 100841c:	111e      	asrs	r6, r3, #4
 100841e:	ac70      	add	r4, sp, #448	; 0x1c0
 1008420:	5a6c      	ldrh	r4, [r5, r1]
 1008422:	4e72      	ldr	r6, [pc, #456]	; (0x10085ec)
 1008424:	0efd      	lsrs	r5, r7, #27
 1008426:	fbff 850f 			; <UNDEFINED> instruction: 0xfbff850f
 100842a:	5638      	ldrsb	r0, [r7, r0]
 100842c:	ae3d      	add	r6, sp, #244	; 0xf4
 100842e:	1ed5      	subs	r5, r2, #3
 1008430:	2d36      	cmp	r5, #54	; 0x36
 1008432:	2739      	movs	r7, #57	; 0x39
 1008434:	0f0a      	lsrs	r2, r1, #28
 1008436:	64d9      	str	r1, [r3, #76]	; 0x4c
 1008438:	5c68      	ldrb	r0, [r5, r1]
 100843a:	21a6      	movs	r1, #166	; 0xa6
 100843c:	5b9b      	ldrh	r3, [r3, r6]
 100843e:	d154      	bne.n	0x10084ea
 1008440:	3624      	adds	r6, #36	; 0x24
 1008442:	3a2e      	subs	r2, #46	; 0x2e
 1008444:	0a0c      	lsrs	r4, r1, #8
 1008446:	b167      	cbz	r7, 0x1008462
 1008448:	5793      	ldrsb	r3, [r2, r6]
 100844a:	0fe7      	lsrs	r7, r4, #31
 100844c:	eeb4 d296 	mrc	2, 5, sp, cr4, cr6, {4}
 1008450:	9b1b      	ldr	r3, [sp, #108]	; 0x6c
 1008452:	9e91      	ldr	r6, [sp, #580]	; 0x244
 1008454:	c080      	stmia	r0!, {r7}
 1008456:	4fc5      	ldr	r7, [pc, #788]	; (0x100876c)
 1008458:	dc61      	bgt.n	0x100851e
 100845a:	a220      	add	r2, pc, #128	; (adr r2, 0x10084dc)
 100845c:	775a      	strb	r2, [r3, #29]
 100845e:	694b      	ldr	r3, [r1, #20]
 1008460:	121c      	asrs	r4, r3, #8
 1008462:	161a      	asrs	r2, r3, #24
 1008464:	93e2      	str	r3, [sp, #904]	; 0x388
 1008466:	0aba      	lsrs	r2, r7, #10
 1008468:	a0c0      	add	r0, pc, #768	; (adr r0, 0x100876c)
 100846a:	e52a      	b.n	0x1007ec2
 100846c:	223c      	movs	r2, #60	; 0x3c
 100846e:	43e0      	mvns	r0, r4
 1008470:	1b12      	subs	r2, r2, r4
 1008472:	1d17      	adds	r7, r2, #4
 1008474:	090e      	lsrs	r6, r1, #4
 1008476:	0b0d      	lsrs	r5, r1, #12
 1008478:	8bf2      	ldrh	r2, [r6, #30]
 100847a:	adc7      	add	r5, sp, #796	; 0x31c
 100847c:	b62d      			; <UNDEFINED> instruction: 0xb62d
 100847e:	b9a8      	cbnz	r0, 0x10084ac
 1008480:	1e14      	subs	r4, r2, #0
 1008482:	c8a9      	ldmia	r0, {r0, r3, r5, r7}
 1008484:	f157 8519 	bpl.w	0x101feba
 1008488:	75af      	strb	r7, [r5, #22]
 100848a:	4c07      	ldr	r4, [pc, #28]	; (0x10084a8)
 100848c:	99ee      	ldr	r1, [sp, #952]	; 0x3b8
 100848e:	bbdd      	cbnz	r5, 0x1008508
 1008490:	7fa3      	ldrb	r3, [r4, #30]
 1008492:	fd60 01f7 	stc2l	1, cr0, [r0, #-988]!	; 0xfffffc24
 1008496:	9f26      	ldr	r7, [sp, #152]	; 0x98
 1008498:	725c      	strb	r4, [r3, #9]
 100849a:	bcf5      	pop	{r0, r2, r4, r5, r6, r7}
 100849c:	6644      	str	r4, [r0, #100]	; 0x64
 100849e:	c53b      	stmia	r5!, {r0, r1, r3, r4, r5}
 10084a0:	fb5b 347e 			; <UNDEFINED> instruction: 0xfb5b347e
 10084a4:	438b      	bics	r3, r1
 10084a6:	7629      	strb	r1, [r5, #24]
 10084a8:	23cb      	movs	r3, #203	; 0xcb
 10084aa:	dcc6      	bgt.n	0x100843a
 10084ac:	edb6 68fc 	ldc	8, cr6, [r6, #1008]!	; 0x3f0
 10084b0:	e4b8      	b.n	0x1007e24
 10084b2:	63f1      	str	r1, [r6, #60]	; 0x3c
 10084b4:	31d7      	adds	r1, #215	; 0xd7
 10084b6:	cadc      	ldmia	r2, {r2, r3, r4, r6, r7}
 10084b8:	6342      	str	r2, [r0, #52]	; 0x34
 10084ba:	1085      	asrs	r5, r0, #2
 10084bc:	9713      	str	r7, [sp, #76]	; 0x4c
 10084be:	4022      	ands	r2, r4
 10084c0:	c684      	stmia	r6!, {r2, r7}
 10084c2:	2011      	movs	r0, #17
 10084c4:	4a85      	ldr	r2, [pc, #532]	; (0x10086dc)
 10084c6:	7d24      	ldrb	r4, [r4, #20]
 10084c8:	bbd2      	cbnz	r2, 0x1008540
 10084ca:	f83d f9ae 	pldw	[sp], #-174
 10084ce:	1132      	asrs	r2, r6, #4
 10084d0:	29c7      	cmp	r1, #199	; 0xc7
 10084d2:	6da1      	ldr	r1, [r4, #88]	; 0x58
 10084d4:	9e1d      	ldr	r6, [sp, #116]	; 0x74
 10084d6:	4b2f      	ldr	r3, [pc, #188]	; (0x1008594)
 10084d8:	b2dc      	uxtb	r4, r3
 10084da:	f330 860d 	bgt.w	0x10390f8
 10084de:	ec52 c177 	ldfp	f4, [r2], {119}	; 0x77
 10084e2:	d0e3      	beq.n	0x10084ac
 10084e4:	b32b      	cbz	r3, 0x1008532
 10084e6:	6c16      	ldr	r6, [r2, #64]	; 0x40
 10084e8:	70a9      	strb	r1, [r5, #2]
 10084ea:	99b9      	ldr	r1, [sp, #740]	; 0x2e4
 10084ec:	9411      	str	r4, [sp, #68]	; 0x44
 10084ee:	fa48 e947 			; <UNDEFINED> instruction: 0xfa48e947
 10084f2:	2264      	movs	r2, #100	; 0x64
 10084f4:	fca8 c48c 	stc2	4, cr12, [r8], #560	; 0x230
 10084f8:	f0a0 1a3f 			; <UNDEFINED> instruction: 0xf0a01a3f
 10084fc:	7d56      	ldrb	r6, [r2, #21]
 10084fe:	d82c      	bhi.n	0x100855a
 1008500:	3322      	adds	r3, #34	; 0x22
 1008502:	ef90 4987 	vqdmlal.s16	q2, d16, d7
 1008506:	c74e      	stmia	r7!, {r1, r2, r3, r6}
 1008508:	38d9      	subs	r0, #217	; 0xd9
 100850a:	c1d1      	stmia	r1!, {r0, r4, r6, r7}
 100850c:	ca8c      	ldmia	r2, {r2, r3, r7}
 100850e:	fea2 d498 	mcr2	4, 5, sp, cr2, cr8, {4}
 1008512:	360b      	adds	r6, #11
 1008514:	f5a6 cf81 			; <UNDEFINED> instruction: 0xf5a6cf81
 1008518:	7aa5      	ldrb	r5, [r4, #10]
 100851a:	28de      	cmp	r0, #222	; 0xde
 100851c:	b7da      			; <UNDEFINED> instruction: 0xb7da
 100851e:	268e      	movs	r6, #142	; 0x8e
 1008520:	ad3f      	add	r5, sp, #252	; 0xfc
 1008522:	a4bf      	add	r4, pc, #764	; (adr r4, 0x1008820)
 1008524:	3a2c      	subs	r2, #44	; 0x2c
 1008526:	e49d      	b.n	0x1007e64
 1008528:	7850      	ldrb	r0, [r2, #1]
 100852a:	0d92      	lsrs	r2, r2, #22
 100852c:	5f6a      	ldrsh	r2, [r5, r5]
 100852e:	9bcc      	ldr	r3, [sp, #816]	; 0x330
 1008530:	7e54      	ldrb	r4, [r2, #25]
 1008532:	6246      	str	r6, [r0, #36]	; 0x24
 1008534:	8df6      	ldrh	r6, [r6, #46]	; 0x2e
 1008536:	c213      	stmia	r2!, {r0, r1, r4}
 1008538:	d890      	bhi.n	0x100845c
 100853a:	e8b8 392e 	ldmia.w	r8!, {r1, r2, r3, r5, r8, fp, ip, sp}
 100853e:	5ef7      	ldrsh	r7, [r6, r3]
 1008540:	c382      	stmia	r3!, {r1, r7}
 1008542:	f5af 5d9f 	sub.w	sp, pc, #5088	; 0x13e0
 1008546:	be80      	bkpt	0x0080
 1008548:	d069      	beq.n	0x100861e
 100854a:	7c93      	ldrb	r3, [r2, #18]
 100854c:	d56f      	bpl.n	0x100862e
 100854e:	a92d      	add	r1, sp, #180	; 0xb4
 1008550:	25cf      	movs	r5, #207	; 0xcf
 1008552:	b312      	cbz	r2, 0x100859a
 1008554:	acc8      	add	r4, sp, #800	; 0x320
 1008556:	3b99      	subs	r3, #153	; 0x99
 1008558:	1810      	adds	r0, r2, r0
 100855a:	a77d      	add	r7, pc, #500	; (adr r7, 0x1008750)
 100855c:	9ce8      	ldr	r4, [sp, #928]	; 0x3a0
 100855e:	6e63      	ldr	r3, [r4, #100]	; 0x64
 1008560:	3bdb      	subs	r3, #219	; 0xdb
 1008562:	7bbb      	ldrb	r3, [r7, #14]
 1008564:	26cd      	movs	r6, #205	; 0xcd
 1008566:	0978      	lsrs	r0, r7, #5
 1008568:	596e      	ldr	r6, [r5, r5]
 100856a:	f418 9aec 	b.w	0x420b46
 100856e:	01b7      	lsls	r7, r6, #6
 1008570:	4f83      	ldr	r7, [pc, #524]	; (0x1008780)
 1008572:	a89a      	add	r0, sp, #616	; 0x268
 1008574:	95e6      	str	r5, [sp, #920]	; 0x398
 1008576:	656e      	str	r6, [r5, #84]	; 0x54
 1008578:	ffaa 7ee6 			; <UNDEFINED> instruction: 0xffaa7ee6
 100857c:	bc21      	pop	{r0, r5}
 100857e:	08cf      	lsrs	r7, r1, #3
 1008580:	15ef      	asrs	r7, r5, #23
 1008582:	e6e8      	b.n	0x1008356
 1008584:	e7ba      	b.n	0x10084fc
 1008586:	d99b      	bls.n	0x10084c0
 1008588:	6f4a      	ldr	r2, [r1, #116]	; 0x74
 100858a:	ce36      	ldmia	r6!, {r1, r2, r4, r5}
 100858c:	9fea      	ldr	r7, [sp, #936]	; 0x3a8
 100858e:	d409      	bmi.n	0x10085a4
 1008590:	b029      	add	sp, #164	; 0xa4
 1008592:	d67c      	bvs.n	0x100868e
 1008594:	a431      	add	r4, pc, #196	; (adr r4, 0x100865c)
 1008596:	afb2      	add	r7, sp, #712	; 0x2c8
 1008598:	3f2a      	subs	r7, #42	; 0x2a
 100859a:	3123      	adds	r1, #35	; 0x23
 100859c:	a5c6      	add	r5, pc, #792	; (adr r5, 0x10088b8)
 100859e:	3094      	adds	r0, #148	; 0x94
 10085a0:	a235      	add	r2, pc, #212	; (adr r2, 0x1008678)
 10085a2:	c066      	stmia	r0!, {r1, r2, r5, r6}
 10085a4:	4e74      	ldr	r6, [pc, #464]	; (0x1008778)
 10085a6:	37bc      	adds	r7, #188	; 0xbc
 10085a8:	82fc      	strh	r4, [r7, #22]
 10085aa:	a6ca      	add	r6, pc, #808	; (adr r6, 0x10088d4)
 10085ac:	90e0      	str	r0, [sp, #896]	; 0x380
 10085ae:	b0d0      	sub	sp, #320	; 0x140
 10085b0:	a733      	add	r7, pc, #204	; (adr r7, 0x1008680)
 10085b2:	15d8      	asrs	r0, r3, #23
 10085b4:	04f1      	lsls	r1, r6, #19
 10085b6:	4a98      	ldr	r2, [pc, #608]	; (0x1008818)
 10085b8:	ec41 f7da 	mcrr	7, 13, pc, r1, cr10	; <UNPREDICTABLE>
 10085bc:	cd7f      	ldmia	r5, {r0, r1, r2, r3, r4, r5, r6}
 10085be:	0e50      	lsrs	r0, r2, #25
 10085c0:	9117      	str	r1, [sp, #92]	; 0x5c
 10085c2:	2ff6      	cmp	r7, #246	; 0xf6
 10085c4:	4d76      	ldr	r5, [pc, #472]	; (0x10087a0)
 10085c6:	8dd6      	ldrh	r6, [r2, #46]	; 0x2e
 10085c8:	ef43 4db0 	vmla.f32	d20, d19, d16
 10085cc:	aacc      	add	r2, sp, #816	; 0x330
 10085ce:	544d      	strb	r5, [r1, r1]
 10085d0:	96e4      	str	r6, [sp, #912]	; 0x390
 10085d2:	df04      	svc	4
 10085d4:	d19e      	bne.n	0x1008514
 10085d6:	e3b5      	b.n	0x1008d44
 10085d8:	6a4c      	ldr	r4, [r1, #36]	; 0x24
 10085da:	1b88      	subs	r0, r1, r6
 10085dc:	2cc1      	cmp	r4, #193	; 0xc1
 10085de:	b81f      			; <UNDEFINED> instruction: 0xb81f
 10085e0:	6546      	str	r6, [r0, #84]	; 0x54
 10085e2:	7f51      	ldrb	r1, [r2, #29]
 10085e4:	5e9d      	ldrsh	r5, [r3, r2]
 10085e6:	04ea      	lsls	r2, r5, #19
 10085e8:	8c01      	ldrh	r1, [r0, #32]
 10085ea:	5d35      	ldrb	r5, [r6, r4]
 10085ec:	87fa      	strh	r2, [r7, #62]	; 0x3e
 10085ee:	7374      	strb	r4, [r6, #13]
 10085f0:	0bfb      	lsrs	r3, r7, #15
 10085f2:	2e41      	cmp	r6, #65	; 0x41
 10085f4:	67b3      	str	r3, [r6, #120]	; 0x78
 10085f6:	5a1d      	ldrh	r5, [r3, r0]
 10085f8:	db92      	blt.n	0x1008520
 10085fa:	52d2      	strh	r2, [r2, r3]
 10085fc:	10e9      	asrs	r1, r5, #3
 10085fe:	3356      	adds	r3, #86	; 0x56
 1008600:	d66d      	bvs.n	0x10086de
 1008602:	1347      	asrs	r7, r0, #13
 1008604:	d79a      	bvc.n	0x100853c
 1008606:	8c61      	ldrh	r1, [r4, #34]	; 0x22
 1008608:	a137      	add	r1, pc, #220	; (adr r1, 0x10086e8)
 100860a:	7a0c      	ldrb	r4, [r1, #8]
 100860c:	f859 8e14 	ldrt	r8, [r9, #20]
 1008610:	13eb      	asrs	r3, r5, #15
 1008612:	893c      	ldrh	r4, [r7, #8]
 1008614:	a9ce      	add	r1, sp, #824	; 0x338
 1008616:	ee27 61b7 	mcr	1, 1, r6, cr7, cr7, {5}
 100861a:	35c9      	adds	r5, #201	; 0xc9
 100861c:	1ce1      	adds	r1, r4, #3
 100861e:	ede5 477a 	stcl	7, cr4, [r5, #488]!	; 0x1e8
 1008622:	3cb1      	subs	r4, #177	; 0xb1
 1008624:	d29c      	bcs.n	0x1008560
 1008626:	59df      	ldr	r7, [r3, r7]
 1008628:	f255 3f73 			; <UNDEFINED> instruction: 0xf2553f73
 100862c:	1418      	asrs	r0, r3, #16
 100862e:	79ce      	ldrb	r6, [r1, #7]
 1008630:	c773      	stmia	r7!, {r0, r1, r4, r5, r6}
 1008632:	bf37      	itett	cc
 1008634:	f753 eacd 			; <UNDEFINED> instruction: 0xf753eacd
 1008638:	fd5f 5baa 	ldc2lcs	11, cr5, [pc, #-680]	; 0x1008394
 100863c:	3ddf      	subcc	r5, #223	; 0xdf
 100863e:	146f      	asrcc	r7, r5, #17
 1008640:	4478      	add	r0, pc
 1008642:	86db      	strh	r3, [r3, #54]	; 0x36
 1008644:	afca      	add	r7, sp, #808	; 0x328
 1008646:	81f3      	strh	r3, [r6, #14]
 1008648:	68b9      	ldr	r1, [r7, #8]
 100864a:	3ec4      	subs	r6, #196	; 0xc4
 100864c:	2438      	movs	r4, #56	; 0x38
 100864e:	2c34      	cmp	r4, #52	; 0x34
 1008650:	a3c2      	add	r3, pc, #776	; (adr r3, 0x100895c)
 1008652:	5f40      	ldrsh	r0, [r0, r5]
 1008654:	1d16      	adds	r6, r2, #4
 1008656:	72c3      	strb	r3, [r0, #11]
 1008658:	e2bc      	b.n	0x1008bd4
 100865a:	0c25      	lsrs	r5, r4, #16
 100865c:	3c28      	subs	r4, #40	; 0x28
 100865e:	8b49      	ldrh	r1, [r1, #26]
 1008660:	0dff      	lsrs	r7, r7, #23
 1008662:	4195      	sbcs	r5, r2
 1008664:	a839      	add	r0, sp, #228	; 0xe4
 1008666:	7101      	strb	r1, [r0, #4]
 1008668:	0c08      	lsrs	r0, r1, #16
 100866a:	deb3      			; <UNDEFINED> instruction: 0xdeb3
 100866c:	b4d8      	push	{r3, r4, r6, r7}
 100866e:	9ce4      	ldr	r4, [sp, #912]	; 0x390
 1008670:	5664      	ldrsb	r4, [r4, r1]
 1008672:	90c1      	str	r0, [sp, #772]	; 0x304
 1008674:	cb7b      	ldmia	r3, {r0, r1, r3, r4, r5, r6}
 1008676:	6184      	str	r4, [r0, #24]
 1008678:	32d5      	adds	r2, #213	; 0xd5
 100867a:	70b6      	strb	r6, [r6, #2]
 100867c:	6c48      	ldr	r0, [r1, #68]	; 0x44
 100867e:	745c      	strb	r4, [r3, #17]
 1008680:	b8d0      			; <UNDEFINED> instruction: 0xb8d0
 1008682:	4257      	negs	r7, r2
 1008684:	cc00      	ldmia	r4!, {}
 1008686:	3300      	adds	r3, #0
 1008688:	7000      	strb	r0, [r0, #0]
 100868a:	4000      	ands	r0, r0
 100868c:	0030      	movs	r0, r6
 100868e:	0000      	movs	r0, r0
 1008690:	d000      	beq.n	0x1008694
 1008692:	4003      	ands	r3, r0
 1008694:	0003      	movs	r3, r0
 1008696:	0000      	movs	r0, r0
 1008698:	2000      	movs	r0, #0
 100869a:	4006      	ands	r6, r0
 100869c:	00c0      	lsls	r0, r0, #3
 100869e:	0000      	movs	r0, r0
 10086a0:	2c24      	cmp	r4, #36	; 0x24
 10086a2:	4038      	ands	r0, r7
 10086a4:	5444      	strb	r4, [r0, r1]
 10086a6:	605c      	str	r4, [r3, #4]
 10086a8:	6468      	str	r0, [r5, #68]	; 0x44
 10086aa:	01e5      	lsls	r5, r4, #7
 10086ac:	0203      	lsls	r3, r0, #8
 10086ae:	0246      	lsls	r6, r0, #9
 10086b0:	026a      	lsls	r2, r5, #9
 10086b2:	0308      	lsls	r0, r1, #12
 10086b4:	0338      	lsls	r0, r7, #12
 10086b6:	03ca      	lsls	r2, r1, #15
 10086b8:	0406      	lsls	r6, r0, #16
 10086ba:	048c      	lsls	r4, r1, #18
 10086bc:	04d4      	lsls	r4, r2, #19
 10086be:	0610      	lsls	r0, r2, #24
 10086c0:	0670      	lsls	r0, r6, #25
 10086c2:	06d2      	lsls	r2, r2, #27
 10086c4:	073e      	lsls	r6, r7, #28
 10086c6:	0794      	lsls	r4, r2, #30
 10086c8:	080c      	lsrs	r4, r1, #32
 10086ca:	0979      	lsrs	r1, r7, #5
 10086cc:	0a0f      	lsrs	r7, r1, #8
 10086ce:	0918      	lsrs	r0, r3, #4
 10086d0:	09a8      	lsrs	r0, r5, #6
 10086d2:	0000      	movs	r0, r0
 10086d4:	6d33      	ldr	r3, [r6, #80]	; 0x50
 10086d6:	0100      	lsls	r0, r0, #4
	...
 10086e8:	6d85      	ldr	r5, [r0, #88]	; 0x58
 10086ea:	0100      	lsls	r0, r0, #4
 10086ec:	6e25      	ldr	r5, [r4, #96]	; 0x60
 10086ee:	0100      	lsls	r0, r0, #4
 10086f0:	0000      	movs	r0, r0
 10086f2:	0000      	movs	r0, r0
 10086f4:	6ea3      	ldr	r3, [r4, #104]	; 0x68
 10086f6:	0100      	lsls	r0, r0, #4
 10086f8:	6ed1      	ldr	r1, [r2, #108]	; 0x6c
 10086fa:	0100      	lsls	r0, r0, #4
 10086fc:	6ef9      	ldr	r1, [r7, #108]	; 0x6c
 10086fe:	0100      	lsls	r0, r0, #4
 1008700:	6f2b      	ldr	r3, [r5, #112]	; 0x70
 1008702:	0100      	lsls	r0, r0, #4
	...
 100870c:	7059      	strb	r1, [r3, #1]
 100870e:	0100      	lsls	r0, r0, #4
 1008710:	70bb      	strb	r3, [r7, #2]
 1008712:	0100      	lsls	r0, r0, #4
 1008714:	70bb      	strb	r3, [r7, #2]
 1008716:	0100      	lsls	r0, r0, #4
 1008718:	7105      	strb	r5, [r0, #4]
 100871a:	0100      	lsls	r0, r0, #4
 100871c:	716f      	strb	r7, [r5, #5]
 100871e:	0100      	lsls	r0, r0, #4
	...
 1008728:	7187      	strb	r7, [r0, #6]
 100872a:	0100      	lsls	r0, r0, #4
 100872c:	71ed      	strb	r5, [r5, #7]
 100872e:	0100      	lsls	r0, r0, #4
 1008730:	0304      	lsls	r4, r0, #12
 1008732:	0409      	lsls	r1, r1, #16
 1008734:	033e      	lsls	r6, r7, #12
 1008736:	0054      	lsls	r4, r2, #1
 1008738:	0065      	lsls	r5, r4, #1
 100873a:	0078      	lsls	r0, r7, #1
 100873c:	0061      	lsls	r1, r4, #1
 100873e:	0073      	lsls	r3, r6, #1
 1008740:	0020      	movs	r0, r4
 1008742:	0049      	lsls	r1, r1, #1
 1008744:	006e      	lsls	r6, r5, #1
 1008746:	0073      	lsls	r3, r6, #1
 1008748:	0074      	lsls	r4, r6, #1
 100874a:	0072      	lsls	r2, r6, #1
 100874c:	0075      	lsls	r5, r6, #1
 100874e:	006d      	lsls	r5, r5, #1
 1008750:	0065      	lsls	r5, r4, #1
 1008752:	006e      	lsls	r6, r5, #1
 1008754:	0074      	lsls	r4, r6, #1
 1008756:	0073      	lsls	r3, r6, #1
 1008758:	0020      	movs	r0, r4
 100875a:	0049      	lsls	r1, r1, #1
 100875c:	006e      	lsls	r6, r5, #1
 100875e:	0063      	lsls	r3, r4, #1
 1008760:	006f      	lsls	r7, r5, #1
 1008762:	0072      	lsls	r2, r6, #1
 1008764:	0070      	lsls	r0, r6, #1
 1008766:	006f      	lsls	r7, r5, #1
 1008768:	0072      	lsls	r2, r6, #1
 100876a:	0061      	lsls	r1, r4, #1
 100876c:	0074      	lsls	r4, r6, #1
 100876e:	0065      	lsls	r5, r4, #1
 1008770:	0064      	lsls	r4, r4, #1
 1008772:	0342      	lsls	r2, r0, #13
 1008774:	0053      	lsls	r3, r2, #1
 1008776:	0074      	lsls	r4, r6, #1
 1008778:	0065      	lsls	r5, r4, #1
 100877a:	006c      	lsls	r4, r5, #1
 100877c:	006c      	lsls	r4, r5, #1
 100877e:	0061      	lsls	r1, r4, #1
 1008780:	0072      	lsls	r2, r6, #1
 1008782:	0069      	lsls	r1, r5, #1
 1008784:	0073      	lsls	r3, r6, #1
 1008786:	0020      	movs	r0, r4
 1008788:	0044      	lsls	r4, r0, #1
 100878a:	0065      	lsls	r5, r4, #1
 100878c:	0076      	lsls	r6, r6, #1
 100878e:	0069      	lsls	r1, r5, #1
 1008790:	0063      	lsls	r3, r4, #1
 1008792:	0065      	lsls	r5, r4, #1
 1008794:	0020      	movs	r0, r4
 1008796:	0046      	lsls	r6, r0, #1
 1008798:	0069      	lsls	r1, r5, #1
 100879a:	0072      	lsls	r2, r6, #1
 100879c:	006d      	lsls	r5, r5, #1
 100879e:	0077      	lsls	r7, r6, #1
 10087a0:	0061      	lsls	r1, r4, #1
 10087a2:	0072      	lsls	r2, r6, #1
 10087a4:	0065      	lsls	r5, r4, #1
 10087a6:	0020      	movs	r0, r4
 10087a8:	0055      	lsls	r5, r2, #1
 10087aa:	0070      	lsls	r0, r6, #1
 10087ac:	0064      	lsls	r4, r4, #1
 10087ae:	0061      	lsls	r1, r4, #1
 10087b0:	0074      	lsls	r4, r6, #1
 10087b2:	0065      	lsls	r5, r4, #1
 10087b4:	0312      	lsls	r2, r2, #12
 10087b6:	0030      	movs	r0, r6
 10087b8:	0030      	movs	r0, r6
 10087ba:	0030      	movs	r0, r6
 10087bc:	0030      	movs	r0, r6
 10087be:	0030      	movs	r0, r6
 10087c0:	0030      	movs	r0, r6
 10087c2:	0030      	movs	r0, r6
 10087c4:	0030      	movs	r0, r6
 10087c6:	0112      	lsls	r2, r2, #4
 10087c8:	0110      	lsls	r0, r2, #4
 10087ca:	00ff      	lsls	r7, r7, #3
 10087cc:	4000      	ands	r0, r0
 10087ce:	1cbe      	adds	r6, r7, #2
 10087d0:	00ff      	lsls	r7, r7, #3
 10087d2:	0001      	movs	r1, r0
 10087d4:	0201      	lsls	r1, r0, #8
 10087d6:	0103      	lsls	r3, r0, #4
 10087d8:	0209      	lsls	r1, r1, #8
 10087da:	001b      	movs	r3, r3
 10087dc:	0101      	lsls	r1, r0, #4
 10087de:	c000      	stmia	r0!, {}
 10087e0:	0900      	lsrs	r0, r0, #4
 10087e2:	0004      	movs	r4, r0
 10087e4:	0000      	movs	r0, r0
 10087e6:	01fe      	lsls	r6, r7, #7
 10087e8:	0002      	movs	r2, r0
 10087ea:	2109      	movs	r1, #9
 10087ec:	ff07 00ff 	vqadd.u8	q0, <illegal reg q11.5>, <illegal reg q15.5>
 10087f0:	1004      	asrs	r4, r0, #32
 10087f2:	0001      	movs	r1, r0
	...
