 10008ac:	46a1      	mov	r9, r4
 10008ae:	0100      	lsls	r0, r0, #4
 10008b0:	46ab      	mov	fp, r5
 10008b2:	0100      	lsls	r0, r0, #4
 10008b4:	46c7      	mov	pc, r8
 10008b6:	0100      	lsls	r0, r0, #4
 10008b8:	46e3      	mov	fp, ip
 10008ba:	0100      	lsls	r0, r0, #4
 10008bc:	46e9      	mov	r9, sp
 10008be:	0100      	lsls	r0, r0, #4
 10008c0:	472b      	bx	r5
--
 10008c2:	0100      	lsls	r0, r0, #4
 10008c4:	4731      	bx	r6
--
 10008c6:	0100      	lsls	r0, r0, #4
 10008c8:	4735      	bx	r6
--
 1000daa:	f840 2b04 	str.w	r2, [r0], #4
 1000dae:	1f09      	subs	r1, r1, #4
 1000db0:	d1fb      	bne.n	0x1000daa
 1000db2:	4685      	mov	sp, r0
 1000db4:	4896      	ldr	r0, [pc, #600]	; (0x1001010)
 1000db6:	f04f 5100 	mov.w	r1, #536870912	; 0x20000000
 1000dba:	e890 003c 	ldmia.w	r0, {r2, r3, r4, r5}
 1000dbe:	e881 003c 	stmia.w	r1, {r2, r3, r4, r5}
 1000dc2:	4894      	ldr	r0, [pc, #592]	; (0x1001014)
 1000dc4:	6001      	str	r1, [r0, #0]
 1000dc6:	4770      	bx	lr
--
 1000e42:	40ba      	lsls	r2, r7
 1000e44:	4296      	cmp	r6, r2
 1000e46:	bf04      	itt	eq
 1000e48:	2001      	moveq	r0, #1
 1000e4a:	4770      	bxeq	lr
 1000e4c:	f04f 0000 	mov.w	r0, #0
 1000e50:	6841      	ldr	r1, [r0, #4]
 1000e52:	f1b1 3fff 	cmp.w	r1, #4294967295	; 0xffffffff
 1000e56:	bf08      	it	eq
 1000e58:	2001      	moveq	r0, #1
 1000e5a:	4770      	bx	lr
--
 1000e5c:	f24e 10d8 	movw	r0, #57816	; 0xe1d8
 1000e60:	f2c4 000f 	movt	r0, #16399	; 0x400f
 1000e64:	6800      	ldr	r0, [r0, #0]
 1000e66:	f010 5f40 	tst.w	r0, #805306368	; 0x30000000
 1000e6a:	d11d      	bne.n	0x1000ea8
 1000e6c:	f7ff ffac 	bl	0x1000dc8
 1000e70:	2800      	cmp	r0, #0
 1000e72:	d102      	bne.n	0x1000e7a
 1000e74:	f8d0 d000 	ldr.w	sp, [r0]
 1000e78:	4708      	bx	r1
--
 1000f0a:	2800      	cmp	r0, #0
 1000f0c:	d00c      	beq.n	0x1000f28
 1000f0e:	f24e 0000 	movw	r0, #57344	; 0xe000
 1000f12:	f2c4 000f 	movt	r0, #16399	; 0x400f
 1000f16:	6dc1      	ldr	r1, [r0, #92]	; 0x5c
 1000f18:	f421 3180 	bic.w	r1, r1, #65536	; 0x10000
 1000f1c:	65c1      	str	r1, [r0, #92]	; 0x5c
 1000f1e:	4840      	ldr	r0, [pc, #256]	; (0x1001020)
 1000f20:	f020 0001 	bic.w	r0, r0, #1
 1000f24:	9006      	str	r0, [sp, #24]
 1000f26:	4748      	bx	r9
--
 1000f28:	46ce      	mov	lr, r9
 1000f2a:	e89d 0ff0 	ldmia.w	sp, {r4, r5, r6, r7, r8, r9, sl, fp}
 1000f2e:	f8d0 d000 	ldr.w	sp, [r0]
 1000f32:	f8d0 a004 	ldr.w	sl, [r0, #4]
 1000f36:	f02a 0a01 	bic.w	sl, sl, #1
 1000f3a:	e92d 0ff0 	stmdb	sp!, {r4, r5, r6, r7, r8, r9, sl, fp}
 1000f3e:	6880      	ldr	r0, [r0, #8]
 1000f40:	4700      	bx	r0
--
 1000f8c:	f8c0 1d08 	str.w	r1, [r0, #3336]	; 0xd08
 1000f90:	f240 0202 	movw	r2, #2
 1000f94:	f2c0 52fa 	movt	r2, #1530	; 0x5fa
 1000f98:	f8c0 2d0c 	str.w	r2, [r0, #3340]	; 0xd0c
 1000f9c:	6848      	ldr	r0, [r1, #4]
 1000f9e:	f1b0 3fff 	cmp.w	r0, #4294967295	; 0xffffffff
 1000fa2:	bf04      	itt	eq
 1000fa4:	f04f 7180 	moveq.w	r1, #16777216	; 0x1000000
 1000fa8:	6848      	ldreq	r0, [r1, #4]
 1000faa:	f8d1 d000 	ldr.w	sp, [r1]
 1000fae:	4700      	bx	r0
--
 1000fe2:	4288      	cmp	r0, r1
 1000fe4:	dc09      	bgt.n	0x1000ffa
 1000fe6:	eb00 0403 	add.w	r4, r0, r3
 1000fea:	428c      	cmp	r4, r1
 1000fec:	db05      	blt.n	0x1000ffa
 1000fee:	1e5b      	subs	r3, r3, #1
 1000ff0:	5cc2      	ldrb	r2, [r0, r3]
 1000ff2:	54ca      	strb	r2, [r1, r3]
 1000ff4:	d5fb      	bpl.n	0x1000fee
 1000ff6:	4608      	mov	r0, r1
 1000ff8:	4770      	bx	lr
--
 1000ffa:	f04f 0500 	mov.w	r5, #0
 1000ffe:	5d42      	ldrb	r2, [r0, r5]
 1001000:	554a      	strb	r2, [r1, r5]
 1001002:	f105 0501 	add.w	r5, r5, #1
 1001006:	429d      	cmp	r5, r3
 1001008:	d1f9      	bne.n	0x1000ffe
 100100a:	4608      	mov	r0, r1
 100100c:	4770      	bx	lr
--
 1001012:	0100      	lsls	r0, r0, #4
 1001014:	ed08 e000 	stc	0, cr14, [r8, #-0]
 1001018:	0e88      	lsrs	r0, r1, #26
 100101a:	0100      	lsls	r0, r0, #4
 100101c:	434b      	muls	r3, r1
 100101e:	4c4f      	ldr	r4, [pc, #316]	; (0x100115c)
 1001020:	0e7b      	lsrs	r3, r7, #25
 1001022:	0100      	lsls	r0, r0, #4
 1001024:	3801      	subs	r0, #1
 1001026:	d1fd      	bne.n	0x1001024
 1001028:	4770      	bx	lr
--
 100102a:	0000      	movs	r0, r0
 100102c:	6882      	ldr	r2, [r0, #8]
 100102e:	2301      	movs	r3, #1
 1001030:	fa03 f101 	lsl.w	r1, r3, r1
 1001034:	ea22 0101 	bic.w	r1, r2, r1
 1001038:	6081      	str	r1, [r0, #8]
 100103a:	4770      	bx	lr
--
 100103c:	2201      	movs	r2, #1
 100103e:	fa02 f101 	lsl.w	r1, r2, r1
 1001042:	60c1      	str	r1, [r0, #12]
 1001044:	6882      	ldr	r2, [r0, #8]
 1001046:	4311      	orrs	r1, r2
 1001048:	6081      	str	r1, [r0, #8]
 100104a:	4770      	bx	lr
--
 100104c:	b132      	cbz	r2, 0x100105c
 100104e:	68c0      	ldr	r0, [r0, #12]
 1001050:	f04f 1201 	mov.w	r2, #65537	; 0x10001
 1001054:	fa02 f101 	lsl.w	r1, r2, r1
 1001058:	4008      	ands	r0, r1
 100105a:	4770      	bx	lr
--
 1001060:	408a      	lsls	r2, r1
 1001062:	f442 3280 	orr.w	r2, r2, #65536	; 0x10000
 1001066:	4010      	ands	r0, r2
 1001068:	f410 3f80 	tst.w	r0, #65536	; 0x10000
 100106c:	bf08      	it	eq
 100106e:	4770      	bxeq	lr
 1001070:	f440 2070 	orr.w	r0, r0, #983040	; 0xf0000
 1001074:	f44f 3280 	mov.w	r2, #65536	; 0x10000
 1001078:	fa02 f101 	lsl.w	r1, r2, r1
 100107c:	4388      	bics	r0, r1
 100107e:	4770      	bx	lr
--
 1001080:	2201      	movs	r2, #1
 1001082:	fa02 f101 	lsl.w	r1, r2, r1
 1001086:	60c1      	str	r1, [r0, #12]
 1001088:	4770      	bx	lr
--
 100108a:	6802      	ldr	r2, [r0, #0]
 100108c:	2301      	movs	r3, #1
 100108e:	fa03 f101 	lsl.w	r1, r3, r1
 1001092:	4311      	orrs	r1, r2
 1001094:	6001      	str	r1, [r0, #0]
 1001096:	4770      	bx	lr
--
 1001098:	6802      	ldr	r2, [r0, #0]
 100109a:	2301      	movs	r3, #1
 100109c:	fa03 f101 	lsl.w	r1, r3, r1
 10010a0:	ea22 0101 	bic.w	r1, r2, r1
 10010a4:	6001      	str	r1, [r0, #0]
 10010a6:	4770      	bx	lr
--
 10010be:	408a      	lsls	r2, r1
 10010c0:	4322      	orrs	r2, r4
 10010c2:	6142      	str	r2, [r0, #20]
 10010c4:	6a02      	ldr	r2, [r0, #32]
 10010c6:	f003 0303 	and.w	r3, r3, #3
 10010ca:	ea22 020c 	bic.w	r2, r2, ip
 10010ce:	fa03 f101 	lsl.w	r1, r3, r1
 10010d2:	4311      	orrs	r1, r2
 10010d4:	6201      	str	r1, [r0, #32]
 10010d6:	bc10      	pop	{r4}
 10010d8:	4770      	bx	lr
--
 1001142:	6142      	str	r2, [r0, #20]
 1001144:	6902      	ldr	r2, [r0, #16]
 1001146:	fa04 f101 	lsl.w	r1, r4, r1
 100114a:	4311      	orrs	r1, r2
 100114c:	e004      	b.n	0x1001158
 100114e:	6902      	ldr	r2, [r0, #16]
 1001150:	fa04 f101 	lsl.w	r1, r4, r1
 1001154:	ea22 0101 	bic.w	r1, r2, r1
 1001158:	6101      	str	r1, [r0, #16]
 100115a:	bc10      	pop	{r4}
 100115c:	4770      	bx	lr
--
 100115e:	6900      	ldr	r0, [r0, #16]
 1001160:	2201      	movs	r2, #1
 1001162:	fa02 f101 	lsl.w	r1, r2, r1
 1001166:	4008      	ands	r0, r1
 1001168:	4770      	bx	lr
--
 100116a:	2201      	movs	r2, #1
 100116c:	fa02 f101 	lsl.w	r1, r2, r1
 1001170:	6101      	str	r1, [r0, #16]
 1001172:	4770      	bx	lr
--
 1001174:	6980      	ldr	r0, [r0, #24]
 1001176:	2201      	movs	r2, #1
 1001178:	fa02 f101 	lsl.w	r1, r2, r1
 100117c:	4008      	ands	r0, r1
 100117e:	4770      	bx	lr
--
 1001180:	2201      	movs	r2, #1
 1001182:	fa02 f101 	lsl.w	r1, r2, r1
 1001186:	6181      	str	r1, [r0, #24]
 1001188:	4770      	bx	lr
--
 1001194:	e003      	b.n	0x100119e
 1001196:	688b      	ldr	r3, [r1, #8]
 1001198:	f842 3b04 	str.w	r3, [r2], #4
 100119c:	1c40      	adds	r0, r0, #1
 100119e:	68cb      	ldr	r3, [r1, #12]
 10011a0:	f413 7f80 	tst.w	r3, #256	; 0x100
 10011a4:	bf18      	it	ne
 10011a6:	4770      	bxne	lr
 10011a8:	2808      	cmp	r0, #8
 10011aa:	d3f4      	bcc.n	0x1001196
 10011ac:	4770      	bx	lr
--
 10011ae:	460a      	mov	r2, r1
 10011b0:	f001 010f 	and.w	r1, r1, #15
 10011b4:	f04f 0301 	mov.w	r3, #1
 10011b8:	f36f 020f 	bfc	r2, #0, #16
 10011bc:	fa03 f101 	lsl.w	r1, r3, r1
 10011c0:	ea42 0101 	orr.w	r1, r2, r1
 10011c4:	6a82      	ldr	r2, [r0, #40]	; 0x28
 10011c6:	ea41 0102 	orr.w	r1, r1, r2
 10011ca:	6281      	str	r1, [r0, #40]	; 0x28
 10011cc:	4770      	bx	lr
--
 10011ce:	2200      	movs	r2, #0
 10011d0:	0849      	lsrs	r1, r1, #1
 10011d2:	bf14      	ite	ne
 10011d4:	1c52      	addne	r2, r2, #1
 10011d6:	6302      	streq	r2, [r0, #48]	; 0x30
 10011d8:	d1fa      	bne.n	0x10011d0
 10011da:	4770      	bx	lr
--
 10011dc:	eb00 0081 	add.w	r0, r0, r1, lsl #2
 10011e0:	f8c0 2e00 	str.w	r2, [r0, #3584]	; 0xe00
 10011e4:	4770      	bx	lr
--
 10011e6:	eb00 0081 	add.w	r0, r0, r1, lsl #2
 10011ea:	ea42 4203 	orr.w	r2, r2, r3, lsl #16
 10011ee:	f8c0 2e40 	str.w	r2, [r0, #3648]	; 0xe40
 10011f2:	4770      	bx	lr
--
 10011fc:	2a00      	cmp	r2, #0
 10011fe:	bf1c      	itt	ne
 1001200:	f101 0210 	addne.w	r2, r1, #16
 1001204:	fa04 fc02 	lslne.w	ip, r4, r2
 1001208:	2b00      	cmp	r3, #0
 100120a:	bf1c      	itt	ne
 100120c:	fa04 f101 	lslne.w	r1, r4, r1
 1001210:	ea41 0c0c 	orrne.w	ip, r1, ip
 1001214:	f8c0 cd00 	str.w	ip, [r0, #3328]	; 0xd00
 1001218:	bc10      	pop	{r4}
 100121a:	4770      	bx	lr
--
 100121c:	6882      	ldr	r2, [r0, #8]
 100121e:	f44f 3380 	mov.w	r3, #65536	; 0x10000
 1001222:	fa03 f101 	lsl.w	r1, r3, r1
 1001226:	ea22 0101 	bic.w	r1, r2, r1
 100122a:	6081      	str	r1, [r0, #8]
 100122c:	4770      	bx	lr
--
 100122e:	6882      	ldr	r2, [r0, #8]
 1001230:	f44f 3380 	mov.w	r3, #65536	; 0x10000
 1001234:	fa03 f101 	lsl.w	r1, r3, r1
 1001238:	4311      	orrs	r1, r2
 100123a:	6081      	str	r1, [r0, #8]
 100123c:	4770      	bx	lr
--
 100123e:	6b40      	ldr	r0, [r0, #52]	; 0x34
 1001240:	4770      	bx	lr
--
 1001242:	6341      	str	r1, [r0, #52]	; 0x34
 1001244:	4770      	bx	lr
--
 1001246:	6b82      	ldr	r2, [r0, #56]	; 0x38
 1001248:	f022 0203 	bic.w	r2, r2, #3
 100124c:	4311      	orrs	r1, r2
 100124e:	6381      	str	r1, [r0, #56]	; 0x38
 1001250:	4770      	bx	lr
--
 1001252:	6b80      	ldr	r0, [r0, #56]	; 0x38
 1001254:	f000 0003 	and.w	r0, r0, #3
 1001258:	4770      	bx	lr
--
 100125a:	6241      	str	r1, [r0, #36]	; 0x24
 100125c:	4770      	bx	lr
--
 100125e:	6a40      	ldr	r0, [r0, #36]	; 0x24
 1001260:	4770      	bx	lr
--
 1001262:	6b82      	ldr	r2, [r0, #56]	; 0x38
 1001264:	f022 0210 	bic.w	r2, r2, #16
 1001268:	4311      	orrs	r1, r2
 100126a:	6381      	str	r1, [r0, #56]	; 0x38
 100126c:	4770      	bx	lr
--
 100126e:	6b80      	ldr	r0, [r0, #56]	; 0x38
 1001270:	f000 0010 	and.w	r0, r0, #16
 1001274:	4770      	bx	lr
--
 100127e:	f851 cb04 	ldr.w	ip, [r1], #4
 1001282:	f800 c003 	strb.w	ip, [r0, r3]
 1001286:	1c5b      	adds	r3, r3, #1
 1001288:	4293      	cmp	r3, r2
 100128a:	d204      	bcs.n	0x1001296
 100128c:	ea4f 2c1c 	mov.w	ip, ip, lsr #8
 1001290:	f800 c003 	strb.w	ip, [r0, r3]
 1001294:	1c5b      	adds	r3, r3, #1
 1001296:	4293      	cmp	r3, r2
 1001298:	d3f1      	bcc.n	0x100127e
 100129a:	4770      	bx	lr
--
 10012ac:	1c5b      	adds	r3, r3, #1
 10012ae:	4293      	cmp	r3, r2
 10012b0:	d203      	bcs.n	0x10012ba
 10012b2:	5cc4      	ldrb	r4, [r0, r3]
 10012b4:	1c5b      	adds	r3, r3, #1
 10012b6:	ea4c 2c04 	orr.w	ip, ip, r4, lsl #8
 10012ba:	f841 cb04 	str.w	ip, [r1], #4
 10012be:	4293      	cmp	r3, r2
 10012c0:	d3f2      	bcc.n	0x10012a8
 10012c2:	bc10      	pop	{r4}
 10012c4:	4770      	bx	lr
--
 10012f0:	6241      	str	r1, [r0, #36]	; 0x24
 10012f2:	2101      	movs	r1, #1
 10012f4:	6a02      	ldr	r2, [r0, #32]
 10012f6:	f412 4f00 	tst.w	r2, #32768	; 0x8000
 10012fa:	d1fb      	bne.n	0x10012f4
 10012fc:	6201      	str	r1, [r0, #32]
 10012fe:	1c49      	adds	r1, r1, #1
 1001300:	2920      	cmp	r1, #32
 1001302:	d9f7      	bls.n	0x10012f4
 1001304:	6840      	ldr	r0, [r0, #4]
 1001306:	4770      	bx	lr
--
 1001308:	6801      	ldr	r1, [r0, #0]
 100130a:	f021 0101 	bic.w	r1, r1, #1
 100130e:	6001      	str	r1, [r0, #0]
 1001310:	4770      	bx	lr
--
 1001312:	6801      	ldr	r1, [r0, #0]
 1001314:	f041 0101 	orr.w	r1, r1, #1
 1001318:	6001      	str	r1, [r0, #0]
 100131a:	4770      	bx	lr
--
 1001368:	60c3      	str	r3, [r0, #12]
 100136a:	68c9      	ldr	r1, [r1, #12]
 100136c:	1e49      	subs	r1, r1, #1
 100136e:	f3c1 1183 	ubfx	r1, r1, #6, #4
 1001372:	6181      	str	r1, [r0, #24]
 1001374:	f022 0140 	bic.w	r1, r2, #64	; 0x40
 1001378:	f011 0f01 	tst.w	r1, #1
 100137c:	bf18      	it	ne
 100137e:	f021 0101 	bicne.w	r1, r1, #1
 1001382:	6001      	str	r1, [r0, #0]
 1001384:	4770      	bx	lr
--
 1001394:	1c5b      	adds	r3, r3, #1
 1001396:	600b      	str	r3, [r1, #0]
 1001398:	f3c2 1381 	ubfx	r3, r2, #6, #2
 100139c:	1c5b      	adds	r3, r3, #1
 100139e:	608b      	str	r3, [r1, #8]
 10013a0:	6980      	ldr	r0, [r0, #24]
 10013a2:	f000 000f 	and.w	r0, r0, #15
 10013a6:	f360 129f 	bfi	r2, r0, #6, #26
 10013aa:	1c50      	adds	r0, r2, #1
 10013ac:	60c8      	str	r0, [r1, #12]
 10013ae:	4770      	bx	lr
--
 100166e:	f8d0 1120 	ldreq.w	r1, [r0, #288]	; 0x120
 1001672:	f8d0 0124 	ldreq.w	r0, [r0, #292]	; 0x124
 1001676:	d00f      	beq.n	0x1001698
 1001678:	2903      	cmp	r1, #3
 100167a:	bf11      	iteee	ne
 100167c:	2100      	movne	r1, #0
 100167e:	f8d0 1160 	ldreq.w	r1, [r0, #352]	; 0x160
 1001682:	f8d0 0164 	ldreq.w	r0, [r0, #356]	; 0x164
 1001686:	ea41 4100 	orreq.w	r1, r1, r0, lsl #16
 100168a:	4608      	mov	r0, r1
 100168c:	4770      	bx	lr
--
 100169e:	6a02      	ldr	r2, [r0, #32]
 10016a0:	f412 4f00 	tst.w	r2, #32768	; 0x8000
 10016a4:	d1fb      	bne.n	0x100169e
 10016a6:	22a0      	movs	r2, #160	; 0xa0
 10016a8:	6242      	str	r2, [r0, #36]	; 0x24
 10016aa:	2200      	movs	r2, #0
 10016ac:	6302      	str	r2, [r0, #48]	; 0x30
 10016ae:	6342      	str	r2, [r0, #52]	; 0x34
 10016b0:	f001 013f 	and.w	r1, r1, #63	; 0x3f
 10016b4:	6201      	str	r1, [r0, #32]
 10016b6:	4770      	bx	lr
--
 10016b8:	6802      	ldr	r2, [r0, #0]
 10016ba:	4311      	orrs	r1, r2
 10016bc:	6001      	str	r1, [r0, #0]
 10016be:	4770      	bx	lr
--
 10016c0:	6802      	ldr	r2, [r0, #0]
 10016c2:	ea22 0101 	bic.w	r1, r2, r1
 10016c6:	6001      	str	r1, [r0, #0]
 10016c8:	4770      	bx	lr
--
 10016d4:	6a02      	ldr	r2, [r0, #32]
 10016d6:	f412 4f00 	tst.w	r2, #32768	; 0x8000
 10016da:	d1fb      	bne.n	0x10016d4
 10016dc:	2208      	movs	r2, #8
 10016de:	6242      	str	r2, [r0, #36]	; 0x24
 10016e0:	f001 013f 	and.w	r1, r1, #63	; 0x3f
 10016e4:	6201      	str	r1, [r0, #32]
 10016e6:	6a01      	ldr	r1, [r0, #32]
 10016e8:	f411 4f00 	tst.w	r1, #32768	; 0x8000
 10016ec:	d1fb      	bne.n	0x10016e6
 10016ee:	4770      	bx	lr
--
 10016f4:	6900      	ldreq	r0, [r0, #16]
 10016f6:	4770      	bxeq	lr
 10016f8:	2901      	cmp	r1, #1
 10016fa:	bf1c      	itt	ne
 10016fc:	2000      	movne	r0, #0
 10016fe:	4770      	bxne	lr
 1001700:	f8d0 1140 	ldr.w	r1, [r0, #320]	; 0x140
 1001704:	f8d0 0144 	ldr.w	r0, [r0, #324]	; 0x144
 1001708:	b289      	uxth	r1, r1
 100170a:	ea41 4000 	orr.w	r0, r1, r0, lsl #16
 100170e:	4770      	bx	lr
--
 1001710:	6800      	ldr	r0, [r0, #0]
 1001712:	f010 0f20 	tst.w	r0, #32
 1001716:	bf14      	ite	ne
 1001718:	2000      	movne	r0, #0
 100171a:	2001      	moveq	r0, #1
 100171c:	4770      	bx	lr
--
 100171e:	6802      	ldr	r2, [r0, #0]
 1001720:	2900      	cmp	r1, #0
 1001722:	bf14      	ite	ne
 1001724:	f022 0120 	bicne.w	r1, r2, #32
 1001728:	f042 0120 	orreq.w	r1, r2, #32
 100172c:	6001      	str	r1, [r0, #0]
 100172e:	4770      	bx	lr
--
 1001730:	6880      	ldr	r0, [r0, #8]
 1001732:	f3c0 2306 	ubfx	r3, r0, #8, #7
 1001736:	600b      	str	r3, [r1, #0]
 1001738:	b2c1      	uxtb	r1, r0
 100173a:	6011      	str	r1, [r2, #0]
 100173c:	f410 4000 	ands.w	r0, r0, #32768	; 0x8000
 1001740:	bf18      	it	ne
 1001742:	2001      	movne	r0, #1
 1001744:	4770      	bx	lr
--
 100177e:	f1ac 0401 	sub.w	r4, ip, #1
 1001782:	f004 063f 	and.w	r6, r4, #63	; 0x3f
 1001786:	4335      	orrs	r5, r6
 1001788:	60c5      	str	r5, [r0, #12]
 100178a:	f3c4 1483 	ubfx	r4, r4, #6, #4
 100178e:	6184      	str	r4, [r0, #24]
 1001790:	6003      	str	r3, [r0, #0]
 1001792:	fb0c f002 	mul.w	r0, ip, r2
 1001796:	fbb1 f0f0 	udiv	r0, r1, r0
 100179a:	bc70      	pop	{r4, r5, r6}
 100179c:	4770      	bx	lr
--
 100179e:	1e52      	subs	r2, r2, #1
 10017a0:	2a04      	cmp	r2, #4
 10017a2:	d2dc      	bcs.n	0x100175e
 10017a4:	1c5b      	adds	r3, r3, #1
 10017a6:	f5b3 4f98 	cmp.w	r3, #19456	; 0x4c00
 10017aa:	d9d7      	bls.n	0x100175c
 10017ac:	bc70      	pop	{r4, r5, r6}
 10017ae:	2000      	movs	r0, #0
 10017b0:	4770      	bx	lr
--
 10017b2:	eb00 1041 	add.w	r0, r0, r1, lsl #5
 10017b6:	6242      	str	r2, [r0, #36]	; 0x24
 10017b8:	4770      	bx	lr
--
 10017ba:	6101      	str	r1, [r0, #16]
 10017bc:	4770      	bx	lr
--
 10017be:	eb00 1041 	add.w	r0, r0, r1, lsl #5
 10017c2:	6a00      	ldr	r0, [r0, #32]
 10017c4:	f010 0002 	ands.w	r0, r0, #2
 10017c8:	bf18      	it	ne
 10017ca:	2001      	movne	r0, #1
 10017cc:	4770      	bx	lr
--
 10017ce:	6882      	ldr	r2, [r0, #8]
 10017d0:	2301      	movs	r3, #1
 10017d2:	fa03 f101 	lsl.w	r1, r3, r1
 10017d6:	4311      	orrs	r1, r2
 10017d8:	6081      	str	r1, [r0, #8]
 10017da:	4770      	bx	lr
--
 10017dc:	6882      	ldr	r2, [r0, #8]
 10017de:	2301      	movs	r3, #1
 10017e0:	fa03 f101 	lsl.w	r1, r3, r1
 10017e4:	ea22 0101 	bic.w	r1, r2, r1
 10017e8:	6081      	str	r1, [r0, #8]
 10017ea:	4770      	bx	lr
--
 10017ec:	2a00      	cmp	r2, #0
 10017ee:	bf14      	ite	ne
 10017f0:	6800      	ldrne	r0, [r0, #0]
 10017f2:	6840      	ldreq	r0, [r0, #4]
 10017f4:	fa20 f001 	lsr.w	r0, r0, r1
 10017f8:	f000 0001 	and.w	r0, r0, #1
 10017fc:	4770      	bx	lr
--
 10017fe:	2201      	movs	r2, #1
 1001800:	fa02 f101 	lsl.w	r1, r2, r1
 1001804:	6001      	str	r1, [r0, #0]
 1001806:	4770      	bx	lr
--
 100187e:	1e92      	subs	r2, r2, #2
 1001880:	f81c 0000 	ldrb.w	r0, [ip, r0]
 1001884:	ea80 2013 	eor.w	r0, r0, r3, lsr #8
 1001888:	f81c 0000 	ldrb.w	r0, [ip, r0]
 100188c:	2a00      	cmp	r2, #0
 100188e:	bf08      	it	eq
 1001890:	4770      	bxeq	lr
 1001892:	7809      	ldrb	r1, [r1, #0]
 1001894:	4048      	eors	r0, r1
 1001896:	f81c 0000 	ldrb.w	r0, [ip, r0]
 100189a:	4770      	bx	lr
--
 1001968:	bf04      	itt	eq
 100196a:	bc10      	popeq	{r4}
 100196c:	4770      	bxeq	lr
 100196e:	7809      	ldrb	r1, [r1, #0]
 1001970:	4041      	eors	r1, r0
 1001972:	0609      	lsls	r1, r1, #24
 1001974:	0dc9      	lsrs	r1, r1, #23
 1001976:	f83c 1001 	ldrh.w	r1, [ip, r1]
 100197a:	bc10      	pop	{r4}
 100197c:	ea81 2010 	eor.w	r0, r1, r0, lsr #8
 1001980:	4770      	bx	lr
--
 1001a06:	0600      	lsls	r0, r0, #24
 1001a08:	0dc0      	lsrs	r0, r0, #23
 1001a0a:	5a18      	ldrh	r0, [r3, r0]
 1001a0c:	1e76      	subs	r6, r6, #1
 1001a0e:	ea80 2414 	eor.w	r4, r0, r4, lsr #8
 1001a12:	d2c3      	bcs.n	0x100199c
 1001a14:	f8a2 c000 	strh.w	ip, [r2]
 1001a18:	8055      	strh	r5, [r2, #2]
 1001a1a:	8094      	strh	r4, [r2, #4]
 1001a1c:	bcf0      	pop	{r4, r5, r6, r7}
 1001a1e:	4770      	bx	lr
--
 1001a20:	484f      	ldr	r0, [pc, #316]	; (0x1001b60)
 1001a22:	6981      	ldr	r1, [r0, #24]
 1001a24:	f011 0f01 	tst.w	r1, #1
 1001a28:	d1fb      	bne.n	0x1001a22
 1001a2a:	4770      	bx	lr
--
 1001a2c:	484c      	ldr	r0, [pc, #304]	; (0x1001b60)
 1001a2e:	6800      	ldr	r0, [r0, #0]
 1001a30:	f3c0 400a 	ubfx	r0, r0, #16, #11
 1001a34:	4770      	bx	lr
--
 1001a36:	2101      	movs	r1, #1
 1001a38:	fa01 f000 	lsl.w	r0, r1, r0
 1001a3c:	4948      	ldr	r1, [pc, #288]	; (0x1001b60)
 1001a3e:	6508      	str	r0, [r1, #80]	; 0x50
 1001a40:	4770      	bx	lr
--
 1001a42:	4947      	ldr	r1, [pc, #284]	; (0x1001b60)
 1001a44:	6048      	str	r0, [r1, #4]
 1001a46:	f04f 30ff 	mov.w	r0, #4294967295	; 0xffffffff
 1001a4a:	6208      	str	r0, [r1, #32]
 1001a4c:	6a08      	ldr	r0, [r1, #32]
 1001a4e:	4770      	bx	lr
--
 1001a58:	b152      	cbz	r2, 0x1001a70
 1001a5a:	f851 0b04 	ldr.w	r0, [r1], #4
 1001a5e:	f84c 0b04 	str.w	r0, [ip], #4
 1001a62:	1e52      	subs	r2, r2, #1
 1001a64:	6998      	ldr	r0, [r3, #24]
 1001a66:	f010 0f01 	tst.w	r0, #1
 1001a6a:	d1fb      	bne.n	0x1001a64
 1001a6c:	2a00      	cmp	r2, #0
 1001a6e:	d1f4      	bne.n	0x1001a5a
 1001a70:	6998      	ldr	r0, [r3, #24]
 1001a72:	4770      	bx	lr
--
 1001a74:	493a      	ldr	r1, [pc, #232]	; (0x1001b60)
 1001a76:	6048      	str	r0, [r1, #4]
 1001a78:	6b08      	ldr	r0, [r1, #48]	; 0x30
 1001a7a:	4770      	bx	lr
--
 1001a7c:	4a38      	ldr	r2, [pc, #224]	; (0x1001b60)
 1001a7e:	6050      	str	r0, [r2, #4]
 1001a80:	6311      	str	r1, [r2, #48]	; 0x30
 1001a82:	6990      	ldr	r0, [r2, #24]
 1001a84:	f010 0f01 	tst.w	r0, #1
 1001a88:	d1fb      	bne.n	0x1001a82
 1001a8a:	6990      	ldr	r0, [r2, #24]
 1001a8c:	4770      	bx	lr
--
 1001a92:	f04f 30ff 	mov.w	r0, #4294967295	; 0xffffffff
 1001a96:	6218      	str	r0, [r3, #32]
 1001a98:	eb01 0082 	add.w	r0, r1, r2, lsl #2
 1001a9c:	1f00      	subs	r0, r0, #4
 1001a9e:	b122      	cbz	r2, 0x1001aaa
 1001aa0:	f850 1904 	ldr.w	r1, [r0], #-4
 1001aa4:	6219      	str	r1, [r3, #32]
 1001aa6:	1e52      	subs	r2, r2, #1
 1001aa8:	d1fa      	bne.n	0x1001aa0
 1001aaa:	6a18      	ldr	r0, [r3, #32]
 1001aac:	4770      	bx	lr
--
 1001ad0:	6010      	str	r0, [r2, #0]
 1001ad2:	2000      	movs	r0, #0
 1001ad4:	1c40      	adds	r0, r0, #1
 1001ad6:	2810      	cmp	r0, #16
 1001ad8:	d3fc      	bcc.n	0x1001ad4
 1001ada:	f85c 0023 	ldr.w	r0, [ip, r3, lsl #2]
 1001ade:	6802      	ldr	r2, [r0, #0]
 1001ae0:	ea22 0101 	bic.w	r1, r2, r1
 1001ae4:	6001      	str	r1, [r0, #0]
 1001ae6:	bc10      	pop	{r4}
 1001ae8:	4770      	bx	lr
--
 1001b04:	f040 7100 	orr.w	r1, r0, #33554432	; 0x2000000
 1001b08:	2201      	movs	r2, #1
 1001b0a:	600a      	str	r2, [r1, #0]
 1001b0c:	2000      	movs	r0, #0
 1001b0e:	1c40      	adds	r0, r0, #1
 1001b10:	2810      	cmp	r0, #16
 1001b12:	d3fc      	bcc.n	0x1001b0e
 1001b14:	2000      	movs	r0, #0
 1001b16:	6008      	str	r0, [r1, #0]
 1001b18:	bc10      	pop	{r4}
 1001b1a:	4770      	bx	lr
--
 1001b60:	f000 400a 	and.w	r0, r0, #2315255808	; 0x8a000000
 1001b64:	f034 400a 	bics.w	r0, r4, #2315255808	; 0x8a000000
 1001b68:	7aac      	ldrb	r4, [r5, #10]
 1001b6a:	0100      	lsls	r0, r0, #4
 1001b6c:	e500      	b.n	0x1001570
 1001b6e:	400f      	ands	r7, r1
 1001b70:	5800      	ldr	r0, [r0, r0]
 1001b72:	f000 2004 	and.w	r0, r0, #67109888	; 0x4000400
 1001b76:	49fa      	ldr	r1, [pc, #1000]	; (0x1001f60)
 1001b78:	6148      	str	r0, [r1, #20]
 1001b7a:	4770      	bx	lr
--
 1001b7c:	48f8      	ldr	r0, [pc, #992]	; (0x1001f60)
 1001b7e:	6901      	ldr	r1, [r0, #16]
 1001b80:	f021 0104 	bic.w	r1, r1, #4
 1001b84:	6101      	str	r1, [r0, #16]
 1001b86:	48f7      	ldr	r0, [pc, #988]	; (0x1001f64)
 1001b88:	6c01      	ldr	r1, [r0, #64]	; 0x40
 1001b8a:	f021 0101 	bic.w	r1, r1, #1
 1001b8e:	6401      	str	r1, [r0, #64]	; 0x40
 1001b90:	4770      	bx	lr
--
 1001b92:	48f4      	ldr	r0, [pc, #976]	; (0x1001f64)
 1001b94:	6c01      	ldr	r1, [r0, #64]	; 0x40
 1001b96:	f041 0101 	orr.w	r1, r1, #1
 1001b9a:	6401      	str	r1, [r0, #64]	; 0x40
 1001b9c:	48f0      	ldr	r0, [pc, #960]	; (0x1001f60)
 1001b9e:	6901      	ldr	r1, [r0, #16]
 1001ba0:	f041 0104 	orr.w	r1, r1, #4
 1001ba4:	6101      	str	r1, [r0, #16]
 1001ba6:	4770      	bx	lr
--
 1001bb2:	bf08      	it	eq
 1001bb4:	4770      	bxeq	lr
 1001bb6:	e006      	b.n	0x1001bc6
 1001bb8:	48ea      	ldr	r0, [pc, #936]	; (0x1001f64)
 1001bba:	6980      	ldr	r0, [r0, #24]
 1001bbc:	f010 0f01 	tst.w	r0, #1
 1001bc0:	bf1c      	itt	ne
 1001bc2:	2000      	movne	r0, #0
 1001bc4:	4770      	bxne	lr
 1001bc6:	2004      	movs	r0, #4
 1001bc8:	4770      	bx	lr
--
 1001c1a:	f10c 0c04 	add.w	ip, ip, #4
 1001c1e:	6898      	ldr	r0, [r3, #8]
 1001c20:	1e52      	subs	r2, r2, #1
 1001c22:	b910      	cbnz	r0, 0x1001c2a
 1001c24:	6858      	ldr	r0, [r3, #4]
 1001c26:	1c40      	adds	r0, r0, #1
 1001c28:	6058      	str	r0, [r3, #4]
 1001c2a:	2a00      	cmp	r2, #0
 1001c2c:	d1ea      	bne.n	0x1001c04
 1001c2e:	6998      	ldr	r0, [r3, #24]
 1001c30:	4770      	bx	lr
--
 1001c32:	4acc      	ldr	r2, [pc, #816]	; (0x1001f64)
 1001c34:	098b      	lsrs	r3, r1, #6
 1001c36:	6053      	str	r3, [r2, #4]
 1001c38:	f3c1 0183 	ubfx	r1, r1, #2, #4
 1001c3c:	6091      	str	r1, [r2, #8]
 1001c3e:	6150      	str	r0, [r2, #20]
 1001c40:	6990      	ldr	r0, [r2, #24]
 1001c42:	4770      	bx	lr
--
 1001c5a:	695a      	ldr	r2, [r3, #20]
 1001c5c:	f840 2b04 	str.w	r2, [r0], #4
 1001c60:	689a      	ldr	r2, [r3, #8]
 1001c62:	1e49      	subs	r1, r1, #1
 1001c64:	b912      	cbnz	r2, 0x1001c6c
 1001c66:	685a      	ldr	r2, [r3, #4]
 1001c68:	1c52      	adds	r2, r2, #1
 1001c6a:	605a      	str	r2, [r3, #4]
 1001c6c:	2900      	cmp	r1, #0
 1001c6e:	d1f4      	bne.n	0x1001c5a
 1001c70:	4770      	bx	lr
--
 1001c72:	48bc      	ldr	r0, [pc, #752]	; (0x1001f64)
 1001c74:	6800      	ldr	r0, [r0, #0]
 1001c76:	0400      	lsls	r0, r0, #16
 1001c78:	0b80      	lsrs	r0, r0, #14
 1001c7a:	4770      	bx	lr
--
 1001c7c:	48b9      	ldr	r0, [pc, #740]	; (0x1001f64)
 1001c7e:	6980      	ldr	r0, [r0, #24]
 1001c80:	4770      	bx	lr
--
 1001c82:	eb00 1001 	add.w	r0, r0, r1, lsl #4
 1001c86:	f022 0201 	bic.w	r2, r2, #1
 1001c8a:	6102      	str	r2, [r0, #16]
 1001c8c:	4770      	bx	lr
--
 1001c8e:	eb00 1001 	add.w	r0, r0, r1, lsl #4
 1001c92:	f042 0201 	orr.w	r2, r2, #1
 1001c96:	6102      	str	r2, [r0, #16]
 1001c98:	4770      	bx	lr
--
 1001c9a:	6842      	ldr	r2, [r0, #4]
 1001c9c:	2301      	movs	r3, #1
 1001c9e:	fa03 f101 	lsl.w	r1, r3, r1
 1001ca2:	ea22 0101 	bic.w	r1, r2, r1
 1001ca6:	6041      	str	r1, [r0, #4]
 1001ca8:	4770      	bx	lr
--
 1001caa:	eb00 1001 	add.w	r0, r0, r1, lsl #4
 1001cae:	6940      	ldr	r0, [r0, #20]
 1001cb0:	49b0      	ldr	r1, [pc, #704]	; (0x1001f74)
 1001cb2:	4008      	ands	r0, r1
 1001cb4:	0c00      	lsrs	r0, r0, #16
 1001cb6:	4770      	bx	lr
--
 1001cb8:	f06f 437e 	mvn.w	r3, #4261412864	; 0xfe000000
 1001cbc:	eb00 1001 	add.w	r0, r0, r1, lsl #4
 1001cc0:	ea03 4202 	and.w	r2, r3, r2, lsl #16
 1001cc4:	6142      	str	r2, [r0, #20]
 1001cc6:	4770      	bx	lr
--
 1001cc8:	6842      	ldr	r2, [r0, #4]
 1001cca:	2301      	movs	r3, #1
 1001ccc:	fa03 f101 	lsl.w	r1, r3, r1
 1001cd0:	4311      	orrs	r1, r2
 1001cd2:	6041      	str	r1, [r0, #4]
 1001cd4:	4770      	bx	lr
--
 1001cd6:	eb00 1001 	add.w	r0, r0, r1, lsl #4
 1001cda:	6980      	ldr	r0, [r0, #24]
 1001cdc:	f3c0 000d 	ubfx	r0, r0, #0, #14
 1001ce0:	4770      	bx	lr
--
 1001ce2:	eb00 1001 	add.w	r0, r0, r1, lsl #4
 1001ce6:	6142      	str	r2, [r0, #20]
 1001ce8:	4770      	bx	lr
--
 1001cea:	6800      	ldr	r0, [r0, #0]
 1001cec:	0049      	lsls	r1, r1, #1
 1001cee:	40c8      	lsrs	r0, r1
 1001cf0:	f000 0003 	and.w	r0, r0, #3
 1001cf4:	4770      	bx	lr
--
 1001cf6:	f8d0 0fc0 	ldr.w	r0, [r0, #4032]	; 0xfc0
 1001cfa:	f000 000f 	and.w	r0, r0, #15
 1001cfe:	4770      	bx	lr
--
 1001d00:	f8c0 109c 	str.w	r1, [r0, #156]	; 0x9c
 1001d04:	4770      	bx	lr
--
 1001d06:	f8d0 2090 	ldr.w	r2, [r0, #144]	; 0x90
 1001d0a:	ea22 0101 	bic.w	r1, r2, r1
 1001d0e:	f8c0 1090 	str.w	r1, [r0, #144]	; 0x90
 1001d12:	4770      	bx	lr
--
 1001d14:	f8d0 2090 	ldr.w	r2, [r0, #144]	; 0x90
 1001d18:	4311      	orrs	r1, r2
 1001d1a:	f8c0 1090 	str.w	r1, [r0, #144]	; 0x90
 1001d1e:	4770      	bx	lr
--
 1001d20:	2900      	cmp	r1, #0
 1001d22:	bf14      	ite	ne
 1001d24:	f8d0 0098 	ldrne.w	r0, [r0, #152]	; 0x98
 1001d28:	f8d0 0094 	ldreq.w	r0, [r0, #148]	; 0x94
 1001d2c:	4770      	bx	lr
--
 1001d2e:	4892      	ldr	r0, [pc, #584]	; (0x1001f78)
 1001d30:	6800      	ldr	r0, [r0, #0]
 1001d32:	f100 0001 	add.w	r0, r0, #1
 1001d36:	4770      	bx	lr
--
 1001d38:	498f      	ldr	r1, [pc, #572]	; (0x1001f78)
 1001d3a:	1e40      	subs	r0, r0, #1
 1001d3c:	6008      	str	r0, [r1, #0]
 1001d3e:	4770      	bx	lr
--
 1001d48:	6008      	str	r0, [r1, #0]
 1001d4a:	488c      	ldr	r0, [pc, #560]	; (0x1001f7c)
 1001d4c:	6088      	str	r0, [r1, #8]
 1001d4e:	6888      	ldr	r0, [r1, #8]
 1001d50:	f010 0f02 	tst.w	r0, #2
 1001d54:	d1fb      	bne.n	0x1001d4e
 1001d56:	68c8      	ldr	r0, [r1, #12]
 1001d58:	4010      	ands	r0, r2
 1001d5a:	bf18      	it	ne
 1001d5c:	f04f 30ff 	movne.w	r0, #4294967295	; 0xffffffff
 1001d60:	4770      	bx	lr
--
 1001da8:	6a1d      	ldr	r5, [r3, #32]
 1001daa:	f015 0f01 	tst.w	r5, #1
 1001dae:	d1fb      	bne.n	0x1001da8
 1001db0:	2a00      	cmp	r2, #0
 1001db2:	d1e0      	bne.n	0x1001d76
 1001db4:	68d8      	ldr	r0, [r3, #12]
 1001db6:	4020      	ands	r0, r4
 1001db8:	bf18      	it	ne
 1001dba:	f04f 30ff 	movne.w	r0, #4294967295	; 0xffffffff
 1001dbe:	bc70      	pop	{r4, r5, r6}
 1001dc0:	4770      	bx	lr
--
 1001de4:	f362 005f 	bfi	r0, r2, #1, #31
 1001de8:	2800      	cmp	r0, #0
 1001dea:	bf12      	itee	ne
 1001dec:	2801      	cmpne	r0, #1
 1001dee:	2002      	moveq	r0, #2
 1001df0:	4770      	bxeq	lr
 1001df2:	2802      	cmp	r0, #2
 1001df4:	bf14      	ite	ne
 1001df6:	2000      	movne	r0, #0
 1001df8:	2001      	moveq	r0, #1
 1001dfa:	4770      	bx	lr
--
 1001e2a:	d014      	beq.n	0x1001e56
 1001e2c:	40d0      	lsrs	r0, r2
 1001e2e:	f010 0f01 	tst.w	r0, #1
 1001e32:	d019      	beq.n	0x1001e68
 1001e34:	fa2c f002 	lsr.w	r0, ip, r2
 1001e38:	f010 0f01 	tst.w	r0, #1
 1001e3c:	bf18      	it	ne
 1001e3e:	2000      	movne	r0, #0
 1001e40:	d012      	beq.n	0x1001e68
 1001e42:	bc70      	pop	{r4, r5, r6}
 1001e44:	4770      	bx	lr
--
 1001e4a:	f011 0f01 	tst.w	r1, #1
 1001e4e:	bf18      	it	ne
 1001e50:	fa05 f102 	lslne.w	r1, r5, r2
 1001e54:	d008      	beq.n	0x1001e68
 1001e56:	ea2c 0101 	bic.w	r1, ip, r1
 1001e5a:	6020      	str	r0, [r4, #0]
 1001e5c:	f856 0023 	ldr.w	r0, [r6, r3, lsl #2]
 1001e60:	6001      	str	r1, [r0, #0]
 1001e62:	bc70      	pop	{r4, r5, r6}
 1001e64:	2000      	movs	r0, #0
 1001e66:	4770      	bx	lr
--
 1001e68:	bc70      	pop	{r4, r5, r6}
 1001e6a:	f04f 30ff 	mov.w	r0, #4294967295	; 0xffffffff
 1001e6e:	4770      	bx	lr
--
 1001e78:	2200      	movs	r2, #0
 1001e7a:	6002      	str	r2, [r0, #0]
 1001e7c:	f8c0 c008 	str.w	ip, [r0, #8]
 1001e80:	6881      	ldr	r1, [r0, #8]
 1001e82:	f011 0f08 	tst.w	r1, #8
 1001e86:	d1fb      	bne.n	0x1001e80
 1001e88:	1c52      	adds	r2, r2, #1
 1001e8a:	429a      	cmp	r2, r3
 1001e8c:	d3f5      	bcc.n	0x1001e7a
 1001e8e:	2000      	movs	r0, #0
 1001e90:	4770      	bx	lr
--
 1001e92:	4a3f      	ldr	r2, [pc, #252]	; (0x1001f90)
 1001e94:	6813      	ldr	r3, [r2, #0]
 1001e96:	6003      	str	r3, [r0, #0]
 1001e98:	6850      	ldr	r0, [r2, #4]
 1001e9a:	6008      	str	r0, [r1, #0]
 1001e9c:	f04f 0000 	mov.w	r0, #0
 1001ea0:	4770      	bx	lr
--
 1001ea2:	4a3b      	ldr	r2, [pc, #236]	; (0x1001f90)
 1001ea4:	6010      	str	r0, [r2, #0]
 1001ea6:	6051      	str	r1, [r2, #4]
 1001ea8:	f04f 0000 	mov.w	r0, #0
 1001eac:	4770      	bx	lr
--
 1001eba:	6881      	ldr	r1, [r0, #8]
 1001ebc:	f011 0f08 	tst.w	r1, #8
 1001ec0:	d1fb      	bne.n	0x1001eba
 1001ec2:	4934      	ldr	r1, [pc, #208]	; (0x1001f94)
 1001ec4:	6001      	str	r1, [r0, #0]
 1001ec6:	6082      	str	r2, [r0, #8]
 1001ec8:	6881      	ldr	r1, [r0, #8]
 1001eca:	f011 0f08 	tst.w	r1, #8
 1001ece:	d1fb      	bne.n	0x1001ec8
 1001ed0:	2000      	movs	r0, #0
 1001ed2:	4770      	bx	lr
--
 1001ed4:	4922      	ldr	r1, [pc, #136]	; (0x1001f60)
 1001ed6:	690a      	ldr	r2, [r1, #16]
 1001ed8:	4310      	orrs	r0, r2
 1001eda:	6108      	str	r0, [r1, #16]
 1001edc:	4770      	bx	lr
--
 1001ede:	4920      	ldr	r1, [pc, #128]	; (0x1001f60)
 1001ee0:	690a      	ldr	r2, [r1, #16]
 1001ee2:	ea22 0000 	bic.w	r0, r2, r0
 1001ee6:	6108      	str	r0, [r1, #16]
 1001ee8:	4770      	bx	lr
--
 1001eea:	491d      	ldr	r1, [pc, #116]	; (0x1001f60)
 1001eec:	2800      	cmp	r0, #0
 1001eee:	bf14      	ite	ne
 1001ef0:	6948      	ldrne	r0, [r1, #20]
 1001ef2:	68c8      	ldreq	r0, [r1, #12]
 1001ef4:	4770      	bx	lr
--
 1001ef6:	491a      	ldr	r1, [pc, #104]	; (0x1001f60)
 1001ef8:	6148      	str	r0, [r1, #20]
 1001efa:	4770      	bx	lr
--
 1001efc:	4826      	ldr	r0, [pc, #152]	; (0x1001f98)
 1001efe:	6801      	ldr	r1, [r0, #0]
 1001f00:	f421 0170 	bic.w	r1, r1, #15728640	; 0xf00000
 1001f04:	6001      	str	r1, [r0, #0]
 1001f06:	4770      	bx	lr
--
 1001f08:	4823      	ldr	r0, [pc, #140]	; (0x1001f98)
 1001f0a:	6801      	ldr	r1, [r0, #0]
 1001f0c:	f441 0170 	orr.w	r1, r1, #15728640	; 0xf00000
 1001f10:	6001      	str	r1, [r0, #0]
 1001f12:	4770      	bx	lr
--
 1001f14:	4921      	ldr	r1, [pc, #132]	; (0x1001f9c)
 1001f16:	680a      	ldr	r2, [r1, #0]
 1001f18:	f022 7280 	bic.w	r2, r2, #16777216	; 0x1000000
 1001f1c:	ea42 0000 	orr.w	r0, r2, r0
 1001f20:	6008      	str	r0, [r1, #0]
 1001f22:	4770      	bx	lr
--
 1001f24:	491d      	ldr	r1, [pc, #116]	; (0x1001f9c)
 1001f26:	680a      	ldr	r2, [r1, #0]
 1001f28:	f022 6280 	bic.w	r2, r2, #67108864	; 0x4000000
 1001f2c:	ea42 0000 	orr.w	r0, r2, r0
 1001f30:	6008      	str	r0, [r1, #0]
 1001f32:	4770      	bx	lr
--
 1001f34:	481a      	ldr	r0, [pc, #104]	; (0x1001fa0)
 1001f36:	6801      	ldr	r1, [r0, #0]
 1001f38:	f041 4140 	orr.w	r1, r1, #3221225472	; 0xc0000000
 1001f3c:	6001      	str	r1, [r0, #0]
 1001f3e:	4770      	bx	lr
--
 1001f40:	4916      	ldr	r1, [pc, #88]	; (0x1001f9c)
 1001f42:	680a      	ldr	r2, [r1, #0]
 1001f44:	f022 7200 	bic.w	r2, r2, #33554432	; 0x2000000
 1001f48:	ea42 0000 	orr.w	r0, r2, r0
 1001f4c:	6008      	str	r0, [r1, #0]
 1001f4e:	4770      	bx	lr
--
 1001f50:	4912      	ldr	r1, [pc, #72]	; (0x1001f9c)
 1001f52:	680a      	ldr	r2, [r1, #0]
 1001f54:	f422 0240 	bic.w	r2, r2, #12582912	; 0xc00000
 1001f58:	ea42 0000 	orr.w	r0, r2, r0
 1001f5c:	6008      	str	r0, [r1, #0]
 1001f5e:	4770      	bx	lr
--
 1001f92:	400f      	ands	r7, r1
 1001f94:	0001      	movs	r1, r0
 1001f96:	8000      	strh	r0, [r0, #0]
 1001f98:	ed88 e000 	stc	0, cr14, [r8]
 1001f9c:	ef3c e000 	vhadd.s<illegal width 64>	d14, d12, d0
 1001fa0:	ef34 e000 	vhadd.s<illegal width 64>	d14, d4, d0
 1001fa4:	48fa      	ldr	r0, [pc, #1000]	; (0x1002390)
 1001fa6:	6801      	ldr	r1, [r0, #0]
 1001fa8:	f021 4140 	bic.w	r1, r1, #3221225472	; 0xc0000000
 1001fac:	6001      	str	r1, [r0, #0]
 1001fae:	4770      	bx	lr
--
 1001fb0:	48f7      	ldr	r0, [pc, #988]	; (0x1002390)
 1001fb2:	6801      	ldr	r1, [r0, #0]
 1001fb4:	f021 4180 	bic.w	r1, r1, #1073741824	; 0x40000000
 1001fb8:	f041 4100 	orr.w	r1, r1, #2147483648	; 0x80000000
 1001fbc:	6001      	str	r1, [r0, #0]
 1001fbe:	4770      	bx	lr
--
 1001fc0:	f8d0 2530 	ldr.w	r2, [r0, #1328]	; 0x530
 1001fc4:	ea22 0101 	bic.w	r1, r2, r1
 1001fc8:	f8c0 1530 	str.w	r1, [r0, #1328]	; 0x530
 1001fcc:	4770      	bx	lr
--
 1001fce:	f8d0 2530 	ldr.w	r2, [r0, #1328]	; 0x530
 1001fd2:	4311      	orrs	r1, r2
 1001fd4:	f8c0 1530 	str.w	r1, [r0, #1328]	; 0x530
 1001fd8:	4770      	bx	lr
--
 1001fe0:	f8d0 3400 	ldr.w	r3, [r0, #1024]	; 0x400
 1001fe4:	b2c9      	uxtb	r1, r1
 1001fe6:	f8d0 2420 	ldr.w	r2, [r0, #1056]	; 0x420
 1001fea:	ea13 0001 	ands.w	r0, r3, r1
 1001fee:	bf18      	it	ne
 1001ff0:	2001      	movne	r0, #1
 1001ff2:	4011      	ands	r1, r2
 1001ff4:	bf18      	it	ne
 1001ff6:	2102      	movne	r1, #2
 1001ff8:	4308      	orrs	r0, r1
 1001ffa:	4770      	bx	lr
--
 1002004:	bf14      	ite	ne
 1002006:	430b      	orrne	r3, r1
 1002008:	438b      	biceq	r3, r1
 100200a:	f8c0 3400 	str.w	r3, [r0, #1024]	; 0x400
 100200e:	f012 0f02 	tst.w	r2, #2
 1002012:	f8d0 2420 	ldr.w	r2, [r0, #1056]	; 0x420
 1002016:	bf14      	ite	ne
 1002018:	4311      	orrne	r1, r2
 100201a:	ea22 0101 	biceq.w	r1, r2, r1
 100201e:	f8c0 1420 	str.w	r1, [r0, #1056]	; 0x420
 1002022:	4770      	bx	lr
--
 1002024:	f8d0 2534 	ldr.w	r2, [r0, #1332]	; 0x534
 1002028:	ea22 0101 	bic.w	r1, r2, r1
 100202c:	f8c0 1534 	str.w	r1, [r0, #1332]	; 0x534
 1002030:	4770      	bx	lr
--
 1002032:	f8d0 2534 	ldr.w	r2, [r0, #1332]	; 0x534
 1002036:	4311      	orrs	r1, r2
 1002038:	f8c0 1534 	str.w	r1, [r0, #1332]	; 0x534
 100203c:	4770      	bx	lr
--
 1002056:	bf18      	it	ne
 1002058:	2001      	movne	r0, #1
 100205a:	400a      	ands	r2, r1
 100205c:	bf18      	it	ne
 100205e:	2202      	movne	r2, #2
 1002060:	4302      	orrs	r2, r0
 1002062:	ea13 0001 	ands.w	r0, r3, r1
 1002066:	bf18      	it	ne
 1002068:	2004      	movne	r0, #4
 100206a:	4310      	orrs	r0, r2
 100206c:	4770      	bx	lr
--
 1002088:	bf14      	ite	ne
 100208a:	430b      	orrne	r3, r1
 100208c:	438b      	biceq	r3, r1
 100208e:	f8c0 3404 	str.w	r3, [r0, #1028]	; 0x404
 1002092:	f012 0f04 	tst.w	r2, #4
 1002096:	f8d0 240c 	ldr.w	r2, [r0, #1036]	; 0x40c
 100209a:	bf14      	ite	ne
 100209c:	4311      	orrne	r1, r2
 100209e:	ea22 0101 	biceq.w	r1, r2, r1
 10020a2:	f8c0 140c 	str.w	r1, [r0, #1036]	; 0x40c
 10020a6:	4770      	bx	lr
--
 100211a:	bf18      	it	ne
 100211c:	2204      	movne	r2, #4
 100211e:	ea42 020c 	orr.w	r2, r2, ip
 1002122:	f8d0 051c 	ldr.w	r0, [r0, #1308]	; 0x51c
 1002126:	4008      	ands	r0, r1
 1002128:	bf18      	it	ne
 100212a:	2008      	movne	r0, #8
 100212c:	4310      	orrs	r0, r2
 100212e:	6018      	str	r0, [r3, #0]
 1002130:	bc10      	pop	{r4}
 1002132:	4770      	bx	lr
--
 10021c6:	bf14      	ite	ne
 10021c8:	430a      	orrne	r2, r1
 10021ca:	438a      	biceq	r2, r1
 10021cc:	f8c0 251c 	str.w	r2, [r0, #1308]	; 0x51c
 10021d0:	f8d0 2528 	ldr.w	r2, [r0, #1320]	; 0x528
 10021d4:	2b00      	cmp	r3, #0
 10021d6:	bf0c      	ite	eq
 10021d8:	4311      	orreq	r1, r2
 10021da:	ea22 0101 	bicne.w	r1, r2, r1
 10021de:	f8c0 1528 	str.w	r1, [r0, #1320]	; 0x528
 10021e2:	4770      	bx	lr
--
 10021fc:	f852 1031 	ldreq.w	r1, [r2, r1, lsl #3]
 1002200:	f3c0 2207 	ubfx	r2, r0, #8, #8
 1002204:	f8d1 352c 	ldr.w	r3, [r1, #1324]	; 0x52c
 1002208:	f04f 0c0f 	mov.w	ip, #15
 100220c:	fa0c fc02 	lsl.w	ip, ip, r2
 1002210:	f000 000f 	and.w	r0, r0, #15
 1002214:	ea23 030c 	bic.w	r3, r3, ip
 1002218:	4090      	lsls	r0, r2
 100221a:	4318      	orrs	r0, r3
 100221c:	f8c1 052c 	str.w	r0, [r1, #1324]	; 0x52c
 1002220:	4770      	bx	lr
--
 1002222:	f8c0 141c 	str.w	r1, [r0, #1052]	; 0x41c
 1002226:	4770      	bx	lr
--
 1002228:	f8d0 2410 	ldr.w	r2, [r0, #1040]	; 0x410
 100222c:	ea22 0101 	bic.w	r1, r2, r1
 1002230:	f8c0 1410 	str.w	r1, [r0, #1040]	; 0x410
 1002234:	4770      	bx	lr
--
 1002236:	f8d0 2410 	ldr.w	r2, [r0, #1040]	; 0x410
 100223a:	4311      	orrs	r1, r2
 100223c:	f8c0 1410 	str.w	r1, [r0, #1040]	; 0x410
 1002240:	4770      	bx	lr
--
 1002242:	2900      	cmp	r1, #0
 1002244:	bf14      	ite	ne
 1002246:	f8d0 0418 	ldrne.w	r0, [r0, #1048]	; 0x418
 100224a:	f8d0 0414 	ldreq.w	r0, [r0, #1044]	; 0x414
 100224e:	4770      	bx	lr
--
 1002250:	f850 0021 	ldr.w	r0, [r0, r1, lsl #2]
 1002254:	4770      	bx	lr
--
 100243c:	460c      	mov	r4, r1
 100243e:	2202      	movs	r2, #2
 1002440:	f7ff fddc 	bl	0x1001ffc
 1002444:	4621      	mov	r1, r4
 1002446:	2308      	movs	r3, #8
 1002448:	e8bd 4010 	ldmia.w	sp!, {r4, lr}
 100244c:	2201      	movs	r2, #1
 100244e:	4660      	mov	r0, ip
 1002450:	e670      	b.n	0x1002134
 1002452:	f840 2021 	str.w	r2, [r0, r1, lsl #2]
 1002456:	4770      	bx	lr
--
 1002458:	48f9      	ldr	r0, [pc, #996]	; (0x1002840)
 100245a:	6901      	ldr	r1, [r0, #16]
 100245c:	f011 4f00 	tst.w	r1, #2147483648	; 0x80000000
 1002460:	d0fb      	beq.n	0x100245a
 1002462:	4770      	bx	lr
--
 10024a4:	e7d8      	b.n	0x1002458
 10024a6:	49e6      	ldr	r1, [pc, #920]	; (0x1002840)
 10024a8:	690a      	ldr	r2, [r1, #16]
 10024aa:	f422 7206 	bic.w	r2, r2, #536	; 0x218
 10024ae:	4310      	orrs	r0, r2
 10024b0:	6108      	str	r0, [r1, #16]
 10024b2:	e7d1      	b.n	0x1002458
 10024b4:	48e2      	ldr	r0, [pc, #904]	; (0x1002840)
 10024b6:	6900      	ldr	r0, [r0, #16]
 10024b8:	f400 7006 	and.w	r0, r0, #536	; 0x218
 10024bc:	4770      	bx	lr
--
 10024c0:	690a      	ldr	r2, [r1, #16]
 10024c2:	f022 02a0 	bic.w	r2, r2, #160	; 0xa0
 10024c6:	f422 42c0 	bic.w	r2, r2, #24576	; 0x6000
 10024ca:	4310      	orrs	r0, r2
 10024cc:	6108      	str	r0, [r1, #16]
 10024ce:	e7c3      	b.n	0x1002458
 10024d0:	48db      	ldr	r0, [pc, #876]	; (0x1002840)
 10024d2:	6900      	ldr	r0, [r0, #16]
 10024d4:	f246 01a0 	movw	r1, #24736	; 0x60a0
 10024d8:	4008      	ands	r0, r1
 10024da:	4770      	bx	lr
--
 10024dc:	49d8      	ldr	r1, [pc, #864]	; (0x1002840)
 10024de:	60c8      	str	r0, [r1, #12]
 10024e0:	e7ba      	b.n	0x1002458
 10024e2:	48d7      	ldr	r0, [pc, #860]	; (0x1002840)
 10024e4:	6800      	ldr	r0, [r0, #0]
 10024e6:	4770      	bx	lr
--
 10024e8:	49d5      	ldr	r1, [pc, #852]	; (0x1002840)
 10024ea:	6048      	str	r0, [r1, #4]
 10024ec:	e7b4      	b.n	0x1002458
 10024ee:	48d4      	ldr	r0, [pc, #848]	; (0x1002840)
 10024f0:	6840      	ldr	r0, [r0, #4]
 10024f2:	4770      	bx	lr
--
 10024f4:	49d2      	ldr	r1, [pc, #840]	; (0x1002840)
 10024f6:	6248      	str	r0, [r1, #36]	; 0x24
 10024f8:	e7ae      	b.n	0x1002458
 10024fa:	48d1      	ldr	r0, [pc, #836]	; (0x1002840)
 10024fc:	6a40      	ldr	r0, [r0, #36]	; 0x24
 10024fe:	4770      	bx	lr
--
 1002528:	2900      	cmp	r1, #0
 100252a:	bf8c      	ite	hi
 100252c:	4bc4      	ldrhi	r3, [pc, #784]	; (0x1002840)
 100252e:	4770      	bxls	lr
 1002530:	eb03 0c82 	add.w	ip, r3, r2, lsl #2
 1002534:	f8dc c030 	ldr.w	ip, [ip, #48]	; 0x30
 1002538:	f840 c022 	str.w	ip, [r0, r2, lsl #2]
 100253c:	1c52      	adds	r2, r2, #1
 100253e:	428a      	cmp	r2, r1
 1002540:	d3f6      	bcc.n	0x1002530
 1002542:	4770      	bx	lr
--
 100255c:	694a      	ldr	r2, [r1, #20]
 100255e:	ea22 0000 	bic.w	r0, r2, r0
 1002562:	6148      	str	r0, [r1, #20]
 1002564:	e778      	b.n	0x1002458
 1002566:	49b6      	ldr	r1, [pc, #728]	; (0x1002840)
 1002568:	2801      	cmp	r0, #1
 100256a:	bf0c      	ite	eq
 100256c:	69c8      	ldreq	r0, [r1, #28]
 100256e:	6988      	ldrne	r0, [r1, #24]
 1002570:	f000 007f 	and.w	r0, r0, #127	; 0x7f
 1002574:	4770      	bx	lr
--
 1002576:	49b2      	ldr	r1, [pc, #712]	; (0x1002840)
 1002578:	6a0a      	ldr	r2, [r1, #32]
 100257a:	4310      	orrs	r0, r2
 100257c:	6208      	str	r0, [r1, #32]
 100257e:	e76b      	b.n	0x1002458
 1002580:	48af      	ldr	r0, [pc, #700]	; (0x1002840)
 1002582:	6900      	ldr	r0, [r0, #16]
 1002584:	f3c0 1080 	ubfx	r0, r0, #6, #1
 1002588:	4770      	bx	lr
--
 100258a:	49ad      	ldr	r1, [pc, #692]	; (0x1002840)
 100258c:	0400      	lsls	r0, r0, #16
 100258e:	6288      	str	r0, [r1, #40]	; 0x28
 1002590:	e762      	b.n	0x1002458
 1002592:	48ab      	ldr	r0, [pc, #684]	; (0x1002840)
 1002594:	6a80      	ldr	r0, [r0, #40]	; 0x28
 1002596:	0c00      	lsrs	r0, r0, #16
 1002598:	4770      	bx	lr
--
 100259a:	48a9      	ldr	r0, [pc, #676]	; (0x1002840)
 100259c:	6a80      	ldr	r0, [r0, #40]	; 0x28
 100259e:	f3c0 000e 	ubfx	r0, r0, #0, #15
 10025a2:	4770      	bx	lr
--
 10025a4:	4aa6      	ldr	r2, [pc, #664]	; (0x1002840)
 10025a6:	6911      	ldr	r1, [r2, #16]
 10025a8:	f400 20e0 	and.w	r0, r0, #458752	; 0x70000
 10025ac:	f421 21e0 	bic.w	r1, r1, #458752	; 0x70000
 10025b0:	4308      	orrs	r0, r1
 10025b2:	6110      	str	r0, [r2, #16]
 10025b4:	e750      	b.n	0x1002458
 10025b6:	48a2      	ldr	r0, [pc, #648]	; (0x1002840)
 10025b8:	6900      	ldr	r0, [r0, #16]
 10025ba:	f400 6080 	and.w	r0, r0, #1024	; 0x400
 10025be:	4770      	bx	lr
--
 10025c0:	489f      	ldr	r0, [pc, #636]	; (0x1002840)
 10025c2:	6901      	ldr	r1, [r0, #16]
 10025c4:	f441 6180 	orr.w	r1, r1, #1024	; 0x400
 10025c8:	6101      	str	r1, [r0, #16]
 10025ca:	e745      	b.n	0x1002458
 10025cc:	6840      	ldr	r0, [r0, #4]
 10025ce:	f010 0040 	ands.w	r0, r0, #64	; 0x40
 10025d2:	bf18      	it	ne
 10025d4:	2001      	movne	r0, #1
 10025d6:	4770      	bx	lr
--
 10025d8:	6840      	ldr	r0, [r0, #4]
 10025da:	f010 0001 	ands.w	r0, r0, #1
 10025de:	bf18      	it	ne
 10025e0:	2001      	movne	r0, #1
 10025e2:	4770      	bx	lr
--
 10025e4:	6041      	str	r1, [r0, #4]
 10025e6:	4770      	bx	lr
--
 10025e8:	6880      	ldr	r0, [r0, #8]
 10025ea:	4770      	bx	lr
--
 10025ec:	6081      	str	r1, [r0, #8]
 10025ee:	4770      	bx	lr
--
 10025f0:	6a01      	ldr	r1, [r0, #32]
 10025f2:	f021 0110 	bic.w	r1, r1, #16
 10025f6:	6201      	str	r1, [r0, #32]
 10025f8:	4770      	bx	lr
--
 10025fa:	6a01      	ldr	r1, [r0, #32]
 10025fc:	f041 0110 	orr.w	r1, r1, #16
 1002600:	6201      	str	r1, [r0, #32]
 1002602:	4770      	bx	lr
--
 1002604:	6840      	ldr	r0, [r0, #4]
 1002606:	f010 0f01 	tst.w	r0, #1
 100260a:	d105      	bne.n	0x1002618
 100260c:	f010 0f12 	tst.w	r0, #18
 1002610:	bf1c      	itt	ne
 1002612:	f000 001c 	andne.w	r0, r0, #28
 1002616:	4770      	bxne	lr
 1002618:	2000      	movs	r0, #0
 100261a:	4770      	bx	lr
--
 1002654:	497e      	ldr	r1, [pc, #504]	; (0x1002850)
 1002656:	4460      	add	r0, ip
 1002658:	fbb0 f0f1 	udiv	r0, r0, r1
 100265c:	1e40      	subs	r0, r0, #1
 100265e:	f040 0080 	orr.w	r0, r0, #128	; 0x80
 1002662:	60d8      	str	r0, [r3, #12]
 1002664:	bd00      	pop	{pc}
 1002666:	2101      	movs	r1, #1
 1002668:	61c1      	str	r1, [r0, #28]
 100266a:	6181      	str	r1, [r0, #24]
 100266c:	4770      	bx	lr
--
 100266e:	61c1      	str	r1, [r0, #28]
 1002670:	4770      	bx	lr
--
 1002672:	2100      	movs	r1, #0
 1002674:	6101      	str	r1, [r0, #16]
 1002676:	4770      	bx	lr
--
 1002678:	6902      	ldr	r2, [r0, #16]
 100267a:	ea22 0101 	bic.w	r1, r2, r1
 100267e:	6101      	str	r1, [r0, #16]
 1002680:	4770      	bx	lr
--
 1002682:	2101      	movs	r1, #1
 1002684:	6101      	str	r1, [r0, #16]
 1002686:	4770      	bx	lr
--
 1002688:	6902      	ldr	r2, [r0, #16]
 100268a:	4311      	orrs	r1, r2
 100268c:	6101      	str	r1, [r0, #16]
 100268e:	4770      	bx	lr
--
 1002692:	6980      	ldr	r0, [r0, #24]
 1002694:	2800      	cmp	r0, #0
 1002696:	bf08      	it	eq
 1002698:	4770      	bxeq	lr
 100269a:	e003      	b.n	0x10026a4
 100269c:	6940      	ldr	r0, [r0, #20]
 100269e:	2800      	cmp	r0, #0
 10026a0:	bf08      	it	eq
 10026a2:	4770      	bxeq	lr
 10026a4:	2001      	movs	r0, #1
 10026a6:	4770      	bx	lr
--
 10026a8:	2900      	cmp	r1, #0
 10026aa:	bf14      	ite	ne
 10026ac:	6980      	ldrne	r0, [r0, #24]
 10026ae:	6940      	ldreq	r0, [r0, #20]
 10026b0:	4770      	bx	lr
--
 10026b2:	6ac0      	ldr	r0, [r0, #44]	; 0x2c
 10026b4:	4770      	bx	lr
--
 10026b6:	ea42 0141 	orr.w	r1, r2, r1, lsl #1
 10026ba:	6001      	str	r1, [r0, #0]
 10026bc:	4770      	bx	lr
--
 10026be:	6241      	str	r1, [r0, #36]	; 0x24
 10026c0:	4770      	bx	lr
--
 10026c2:	2900      	cmp	r1, #0
 10026c4:	6a01      	ldr	r1, [r0, #32]
 10026c6:	bf14      	ite	ne
 10026c8:	f041 0101 	orrne.w	r1, r1, #1
 10026cc:	f021 0101 	biceq.w	r1, r1, #1
 10026d0:	6201      	str	r1, [r0, #32]
 10026d2:	4770      	bx	lr
--
 10026d4:	2900      	cmp	r1, #0
 10026d6:	6a01      	ldr	r1, [r0, #32]
 10026d8:	bf14      	ite	ne
 10026da:	f021 0102 	bicne.w	r1, r1, #2
 10026de:	f041 0102 	orreq.w	r1, r1, #2
 10026e2:	6201      	str	r1, [r0, #32]
 10026e4:	4770      	bx	lr
--
 10026e6:	2900      	cmp	r1, #0
 10026e8:	bf04      	itt	eq
 10026ea:	6002      	streq	r2, [r0, #0]
 10026ec:	4770      	bxeq	lr
 10026ee:	2901      	cmp	r1, #1
 10026f0:	bf04      	itt	eq
 10026f2:	f042 0180 	orreq.w	r1, r2, #128	; 0x80
 10026f6:	61c1      	streq	r1, [r0, #28]
 10026f8:	4770      	bx	lr
--
 10026fa:	6880      	ldr	r0, [r0, #8]
 10026fc:	4770      	bx	lr
--
 10026fe:	6081      	str	r1, [r0, #8]
 1002700:	4770      	bx	lr
--
 1002702:	2100      	movs	r1, #0
 1002704:	6041      	str	r1, [r0, #4]
 1002706:	f5a0 5080 	sub.w	r0, r0, #4096	; 0x1000
 100270a:	f8d0 1820 	ldr.w	r1, [r0, #2080]	; 0x820
 100270e:	f021 0120 	bic.w	r1, r1, #32
 1002712:	f8c0 1820 	str.w	r1, [r0, #2080]	; 0x820
 1002716:	4770      	bx	lr
--
 1002718:	f5a0 5180 	sub.w	r1, r0, #4096	; 0x1000
 100271c:	f8d1 2820 	ldr.w	r2, [r1, #2080]	; 0x820
 1002720:	f042 0220 	orr.w	r2, r2, #32
 1002724:	f8c1 2820 	str.w	r2, [r1, #2080]	; 0x820
 1002728:	2101      	movs	r1, #1
 100272a:	6041      	str	r1, [r0, #4]
 100272c:	4770      	bx	lr
--
 100272e:	b500      	push	{lr}
 1002730:	460b      	mov	r3, r1
 1002732:	4684      	mov	ip, r0
 1002734:	f7ff fff0 	bl	0x1002718
 1002738:	f8cc 3000 	str.w	r3, [ip]
 100273c:	bd00      	pop	{pc}
 100273e:	2101      	movs	r1, #1
 1002740:	6181      	str	r1, [r0, #24]
 1002742:	4770      	bx	lr
--
 1002744:	6181      	str	r1, [r0, #24]
 1002746:	4770      	bx	lr
--
 1002748:	68c1      	ldr	r1, [r0, #12]
 100274a:	f021 0101 	bic.w	r1, r1, #1
 100274e:	60c1      	str	r1, [r0, #12]
 1002750:	4770      	bx	lr
--
 1002752:	68c2      	ldr	r2, [r0, #12]
 1002754:	ea22 0101 	bic.w	r1, r2, r1
 1002758:	60c1      	str	r1, [r0, #12]
 100275a:	4770      	bx	lr
--
 100275c:	68c1      	ldr	r1, [r0, #12]
 100275e:	f041 0101 	orr.w	r1, r1, #1
 1002762:	60c1      	str	r1, [r0, #12]
 1002764:	4770      	bx	lr
--
 1002766:	68c2      	ldr	r2, [r0, #12]
 1002768:	4311      	orrs	r1, r2
 100276a:	60c1      	str	r1, [r0, #12]
 100276c:	4770      	bx	lr
--
 1002770:	6940      	ldr	r0, [r0, #20]
 1002772:	2800      	cmp	r0, #0
 1002774:	bf08      	it	eq
 1002776:	4770      	bxeq	lr
 1002778:	e003      	b.n	0x1002782
 100277a:	6900      	ldr	r0, [r0, #16]
 100277c:	2800      	cmp	r0, #0
 100277e:	bf08      	it	eq
 1002780:	4770      	bxeq	lr
 1002782:	2001      	movs	r0, #1
 1002784:	4770      	bx	lr
--
 1002786:	2900      	cmp	r1, #0
 1002788:	bf14      	ite	ne
 100278a:	6940      	ldrne	r0, [r0, #20]
 100278c:	6900      	ldreq	r0, [r0, #16]
 100278e:	4770      	bx	lr
--
 1002790:	6840      	ldr	r0, [r0, #4]
 1002792:	4770      	bx	lr
--
 10027be:	bf38      	it	cc
 10027c0:	4770      	bxcc	lr
 10027c2:	3810      	subs	r0, #16
 10027c4:	f000 011f 	and.w	r1, r0, #31
 10027c8:	2201      	movs	r2, #1
 10027ca:	fa02 f101 	lsl.w	r1, r2, r1
 10027ce:	0942      	lsrs	r2, r0, #5
 10027d0:	4820      	ldr	r0, [pc, #128]	; (0x1002854)
 10027d2:	f850 0022 	ldr.w	r0, [r0, r2, lsl #2]
 10027d6:	6001      	str	r1, [r0, #0]
 10027d8:	4770      	bx	lr
--
 10027da:	f8c1 0d24 	str.w	r0, [r1, #3364]	; 0xd24
 10027de:	4770      	bx	lr
--
 10027e0:	f8d1 0d24 	ldr.w	r0, [r1, #3364]	; 0xd24
 10027e4:	f440 2080 	orr.w	r0, r0, #262144	; 0x40000
 10027e8:	f8c1 0d24 	str.w	r0, [r1, #3364]	; 0xd24
 10027ec:	4770      	bx	lr
--
 10027ee:	6908      	ldr	r0, [r1, #16]
 10027f0:	f040 0002 	orr.w	r0, r0, #2
 10027f4:	6108      	str	r0, [r1, #16]
 10027f6:	4770      	bx	lr
--
 1002822:	bf38      	it	cc
 1002824:	4770      	bxcc	lr
 1002826:	3810      	subs	r0, #16
 1002828:	f000 011f 	and.w	r1, r0, #31
 100282c:	2201      	movs	r2, #1
 100282e:	fa02 f101 	lsl.w	r1, r2, r1
 1002832:	0942      	lsrs	r2, r0, #5
 1002834:	4808      	ldr	r0, [pc, #32]	; (0x1002858)
 1002836:	f850 0022 	ldr.w	r0, [r0, r2, lsl #2]
 100283a:	6001      	str	r1, [r0, #0]
 100283c:	4770      	bx	lr
--
 100283e:	0000      	movs	r0, r0
 1002840:	c000      	stmia	r0!, {}
 1002842:	400f      	ands	r7, r1
 1002844:	1a80      	subs	r0, r0, r2
 1002846:	0006      	movs	r6, r0
 1002848:	86a0      	strh	r0, [r4, #52]	; 0x34
 100284a:	0001      	movs	r1, r0
 100284c:	477f      	bx	pc
 100284e:	0137      	lsls	r7, r6, #4
 1002850:	4780      	blx	r0
--
 10028ba:	3810      	subs	r0, #16
 10028bc:	4afa      	ldr	r2, [pc, #1000]	; (0x1002ca8)
 10028be:	0941      	lsrs	r1, r0, #5
 10028c0:	f852 1021 	ldr.w	r1, [r2, r1, lsl #2]
 10028c4:	6809      	ldr	r1, [r1, #0]
 10028c6:	f000 001f 	and.w	r0, r0, #31
 10028ca:	2201      	movs	r2, #1
 10028cc:	fa02 f000 	lsl.w	r0, r2, r0
 10028d0:	4001      	ands	r1, r0
 10028d2:	4608      	mov	r0, r1
 10028d4:	4770      	bx	lr
--
 10028d6:	4af5      	ldr	r2, [pc, #980]	; (0x1002cac)
 10028d8:	f020 0103 	bic.w	r1, r0, #3
 10028dc:	5851      	ldr	r1, [r2, r1]
 10028de:	6809      	ldr	r1, [r1, #0]
 10028e0:	0780      	lsls	r0, r0, #30
 10028e2:	0ec0      	lsrs	r0, r0, #27
 10028e4:	fa21 f000 	lsr.w	r0, r1, r0
 10028e8:	b2c0      	uxtb	r0, r0
 10028ea:	4770      	bx	lr
--
 10028f2:	58d2      	ldr	r2, [r2, r3]
 10028f4:	6813      	ldr	r3, [r2, #0]
 10028f6:	0780      	lsls	r0, r0, #30
 10028f8:	0ec0      	lsrs	r0, r0, #27
 10028fa:	f04f 0cff 	mov.w	ip, #255	; 0xff
 10028fe:	fa0c fc00 	lsl.w	ip, ip, r0
 1002902:	ea23 030c 	bic.w	r3, r3, ip
 1002906:	fa01 f000 	lsl.w	r0, r1, r0
 100290a:	4318      	orrs	r0, r3
 100290c:	6010      	str	r0, [r2, #0]
 100290e:	4770      	bx	lr
--
 1002914:	4ae7      	ldr	r2, [pc, #924]	; (0x1002cb4)
 1002916:	f400 61e0 	and.w	r1, r0, #1792	; 0x700
 100291a:	f04f 0000 	mov.w	r0, #0
 100291e:	f852 3020 	ldr.w	r3, [r2, r0, lsl #2]
 1002922:	428b      	cmp	r3, r1
 1002924:	bf08      	it	eq
 1002926:	4770      	bxeq	lr
 1002928:	1c40      	adds	r0, r0, #1
 100292a:	2808      	cmp	r0, #8
 100292c:	d3f7      	bcc.n	0x100291e
 100292e:	4770      	bx	lr
--
 1002930:	49e0      	ldr	r1, [pc, #896]	; (0x1002cb4)
 1002932:	f851 0020 	ldr.w	r0, [r1, r0, lsl #2]
 1002936:	49de      	ldr	r1, [pc, #888]	; (0x1002cb0)
 1002938:	f040 70fd 	orr.w	r0, r0, #33161216	; 0x1fa0000
 100293c:	f040 6080 	orr.w	r0, r0, #67108864	; 0x4000000
 1002940:	6008      	str	r0, [r1, #0]
 1002942:	4770      	bx	lr
--
 100296a:	bf38      	it	cc
 100296c:	4770      	bxcc	lr
 100296e:	3810      	subs	r0, #16
 1002970:	f000 011f 	and.w	r1, r0, #31
 1002974:	2201      	movs	r2, #1
 1002976:	fa02 f101 	lsl.w	r1, r2, r1
 100297a:	4acf      	ldr	r2, [pc, #828]	; (0x1002cb8)
 100297c:	0940      	lsrs	r0, r0, #5
 100297e:	f852 0020 	ldr.w	r0, [r2, r0, lsl #2]
 1002982:	6001      	str	r1, [r0, #0]
 1002984:	4770      	bx	lr
--
 1002986:	f8c1 0d04 	str.w	r0, [r1, #3332]	; 0xd04
 100298a:	4770      	bx	lr
--
 100298c:	f8d1 0d04 	ldr.w	r0, [r1, #3332]	; 0xd04
 1002990:	f040 6080 	orr.w	r0, r0, #67108864	; 0x4000000
 1002994:	f8c1 0d04 	str.w	r0, [r1, #3332]	; 0xd04
 1002998:	4770      	bx	lr
--
 10029bc:	bf38      	it	cc
 10029be:	4770      	bxcc	lr
 10029c0:	3810      	subs	r0, #16
 10029c2:	f000 011f 	and.w	r1, r0, #31
 10029c6:	2201      	movs	r2, #1
 10029c8:	fa02 f101 	lsl.w	r1, r2, r1
 10029cc:	0942      	lsrs	r2, r0, #5
 10029ce:	48bb      	ldr	r0, [pc, #748]	; (0x1002cbc)
 10029d0:	f850 0022 	ldr.w	r0, [r0, r2, lsl #2]
 10029d4:	6001      	str	r1, [r0, #0]
 10029d6:	4770      	bx	lr
--
 10029d8:	f8c1 0d04 	str.w	r0, [r1, #3332]	; 0xd04
 10029dc:	4770      	bx	lr
--
 10029de:	4408      	add	r0, r1
 10029e0:	f890 0400 	ldrb.w	r0, [r0, #1024]	; 0x400
 10029e4:	4770      	bx	lr
--
 10029e6:	4408      	add	r0, r1
 10029e8:	f880 2400 	strb.w	r2, [r0, #1024]	; 0x400
 10029ec:	4770      	bx	lr
--
 10029fe:	eb00 1101 	add.w	r1, r0, r1, lsl #4
 1002a02:	4322      	orrs	r2, r4
 1002a04:	610a      	str	r2, [r1, #16]
 1002a06:	618b      	str	r3, [r1, #24]
 1002a08:	f8d0 1120 	ldr.w	r1, [r0, #288]	; 0x120
 1002a0c:	f421 21c0 	bic.w	r1, r1, #393216	; 0x60000
 1002a10:	ea41 010c 	orr.w	r1, r1, ip
 1002a14:	f441 3180 	orr.w	r1, r1, #65536	; 0x10000
 1002a18:	f8c0 1120 	str.w	r1, [r0, #288]	; 0x120
 1002a1c:	bc30      	pop	{r4, r5}
 1002a1e:	4770      	bx	lr
--
 1002a3c:	f8dc 3018 	ldrne.w	r3, [ip, #24]
 1002a40:	6013      	strne	r3, [r2, #0]
 1002a42:	b134      	cbz	r4, 0x1002a52
 1002a44:	2907      	cmp	r1, #7
 1002a46:	d104      	bne.n	0x1002a52
 1002a48:	f8d0 0120 	ldr.w	r0, [r0, #288]	; 0x120
 1002a4c:	f400 20e0 	and.w	r0, r0, #458752	; 0x70000
 1002a50:	6020      	str	r0, [r4, #0]
 1002a52:	4628      	mov	r0, r5
 1002a54:	bc70      	pop	{r4, r5, r6}
 1002a56:	4770      	bx	lr
--
 1002a58:	b410      	push	{r4}
 1002a5a:	f643 74ff 	movw	r4, #16383	; 0x3fff
 1002a5e:	f8dd c004 	ldr.w	ip, [sp, #4]
 1002a62:	eb00 1001 	add.w	r0, r0, r1, lsl #4
 1002a66:	ea4f 0c5c 	mov.w	ip, ip, lsr #1
 1002a6a:	ea04 1c4c 	and.w	ip, r4, ip, lsl #5
 1002a6e:	ea4c 0202 	orr.w	r2, ip, r2
 1002a72:	6102      	str	r2, [r0, #16]
 1002a74:	6183      	str	r3, [r0, #24]
 1002a76:	bc10      	pop	{r4}
 1002a78:	4770      	bx	lr
--
 1002a7c:	f643 74ff 	movw	r4, #16383	; 0x3fff
 1002a80:	f8dd c004 	ldr.w	ip, [sp, #4]
 1002a84:	eb00 1001 	add.w	r0, r0, r1, lsl #4
 1002a88:	ea4f 0c5c 	mov.w	ip, ip, lsr #1
 1002a8c:	ea04 1c4c 	and.w	ip, r4, ip, lsl #5
 1002a90:	ea4c 0202 	orr.w	r2, ip, r2
 1002a94:	f042 0201 	orr.w	r2, r2, #1
 1002a98:	6102      	str	r2, [r0, #16]
 1002a9a:	6183      	str	r3, [r0, #24]
 1002a9c:	bc10      	pop	{r4}
 1002a9e:	4770      	bx	lr
--
 1002aa0:	f8d0 0120 	ldr.w	r0, [r0, #288]	; 0x120
 1002aa4:	b2c0      	uxtb	r0, r0
 1002aa6:	4770      	bx	lr
--
 1002aa8:	f8d0 3120 	ldr.w	r3, [r0, #288]	; 0x120
 1002aac:	4011      	ands	r1, r2
 1002aae:	4393      	bics	r3, r2
 1002ab0:	4319      	orrs	r1, r3
 1002ab2:	f8c0 1120 	str.w	r1, [r0, #288]	; 0x120
 1002ab6:	4770      	bx	lr
--
 1002ab8:	6802      	ldr	r2, [r0, #0]
 1002aba:	2301      	movs	r3, #1
 1002abc:	fa03 f101 	lsl.w	r1, r3, r1
 1002ac0:	ea22 0101 	bic.w	r1, r2, r1
 1002ac4:	6001      	str	r1, [r0, #0]
 1002ac6:	4770      	bx	lr
--
 1002ac8:	6802      	ldr	r2, [r0, #0]
 1002aca:	2301      	movs	r3, #1
 1002acc:	fa03 f101 	lsl.w	r1, r3, r1
 1002ad0:	4311      	orrs	r1, r2
 1002ad2:	6001      	str	r1, [r0, #0]
 1002ad4:	4770      	bx	lr
--
 1002ad6:	eb00 1101 	add.w	r1, r0, r1, lsl #4
 1002ada:	6909      	ldr	r1, [r1, #16]
 1002adc:	f643 72e0 	movw	r2, #16352	; 0x3fe0
 1002ae0:	4011      	ands	r1, r2
 1002ae2:	eb00 1011 	add.w	r0, r0, r1, lsr #4
 1002ae6:	f500 6080 	add.w	r0, r0, #1024	; 0x400
 1002aea:	4770      	bx	lr
--
 1002aec:	eb00 1001 	add.w	r0, r0, r1, lsl #4
 1002af0:	6941      	ldr	r1, [r0, #20]
 1002af2:	4391      	bics	r1, r2
 1002af4:	6141      	str	r1, [r0, #20]
 1002af6:	4770      	bx	lr
--
 1002af8:	eb00 1001 	add.w	r0, r0, r1, lsl #4
 1002afc:	6940      	ldr	r0, [r0, #20]
 1002afe:	4770      	bx	lr
--
 1002b00:	eb00 1001 	add.w	r0, r0, r1, lsl #4
 1002b04:	6941      	ldr	r1, [r0, #20]
 1002b06:	4311      	orrs	r1, r2
 1002b08:	6141      	str	r1, [r0, #20]
 1002b0a:	4770      	bx	lr
--
 1002b0c:	f8d0 2120 	ldr.w	r2, [r0, #288]	; 0x120
 1002b10:	4311      	orrs	r1, r2
 1002b12:	f8c0 1120 	str.w	r1, [r0, #288]	; 0x120
 1002b16:	4770      	bx	lr
--
 1002b18:	f8d0 2120 	ldr.w	r2, [r0, #288]	; 0x120
 1002b1c:	ea22 0101 	bic.w	r1, r2, r1
 1002b20:	f8c0 1120 	str.w	r1, [r0, #288]	; 0x120
 1002b24:	4770      	bx	lr
--
 1002b26:	f8d0 2120 	ldr.w	r2, [r0, #288]	; 0x120
 1002b2a:	4311      	orrs	r1, r2
 1002b2c:	f8c0 1120 	str.w	r1, [r0, #288]	; 0x120
 1002b30:	4770      	bx	lr
--
 1002b32:	f8d0 0120 	ldr.w	r0, [r0, #288]	; 0x120
 1002b36:	2900      	cmp	r1, #0
 1002b38:	bf18      	it	ne
 1002b3a:	ea00 1000 	andne.w	r0, r0, r0, lsl #4
 1002b3e:	f000 7060 	and.w	r0, r0, #58720256	; 0x3800000
 1002b42:	4770      	bx	lr
--
 1002b44:	6800      	ldr	r0, [r0, #0]
 1002b46:	f400 7080 	and.w	r0, r0, #256	; 0x100
 1002b4a:	4770      	bx	lr
--
 1002b4c:	6802      	ldr	r2, [r0, #0]
 1002b4e:	f401 7180 	and.w	r1, r1, #256	; 0x100
 1002b52:	f422 7280 	bic.w	r2, r2, #256	; 0x100
 1002b56:	4311      	orrs	r1, r2
 1002b58:	6001      	str	r1, [r0, #0]
 1002b5a:	4770      	bx	lr
--
 1002b5c:	4408      	add	r0, r1
 1002b5e:	f8b0 0400 	ldrh.w	r0, [r0, #1024]	; 0x400
 1002b62:	4770      	bx	lr
--
 1002b64:	4408      	add	r0, r1
 1002b66:	f8a0 2400 	strh.w	r2, [r0, #1024]	; 0x400
 1002b6a:	4770      	bx	lr
--
 1002b6c:	6882      	ldr	r2, [r0, #8]
 1002b6e:	f36f 010f 	bfc	r1, #0, #16
 1002b72:	ea22 0101 	bic.w	r1, r2, r1
 1002b76:	6081      	str	r1, [r0, #8]
 1002b78:	4770      	bx	lr
--
 1002b7e:	bf14      	ite	ne
 1002b80:	f041 0104 	orrne.w	r1, r1, #4
 1002b84:	f021 0104 	biceq.w	r1, r1, #4
 1002b88:	6081      	str	r1, [r0, #8]
 1002b8a:	6881      	ldr	r1, [r0, #8]
 1002b8c:	2a00      	cmp	r2, #0
 1002b8e:	bf14      	ite	ne
 1002b90:	f041 0102 	orrne.w	r1, r1, #2
 1002b94:	f021 0102 	biceq.w	r1, r1, #2
 1002b98:	6081      	str	r1, [r0, #8]
 1002b9a:	4770      	bx	lr
--
 1002b9c:	68c0      	ldr	r0, [r0, #12]
 1002b9e:	4770      	bx	lr
--
 1002ba0:	6881      	ldr	r1, [r0, #8]
 1002ba2:	f041 0101 	orr.w	r1, r1, #1
 1002ba6:	6081      	str	r1, [r0, #8]
 1002ba8:	4770      	bx	lr
--
 1002baa:	6882      	ldr	r2, [r0, #8]
 1002bac:	f36f 010f 	bfc	r1, #0, #16
 1002bb0:	4311      	orrs	r1, r2
 1002bb2:	6081      	str	r1, [r0, #8]
 1002bb4:	4770      	bx	lr
--
 1002bb6:	f8c0 110c 	str.w	r1, [r0, #268]	; 0x10c
 1002bba:	4770      	bx	lr
--
 1002bbc:	f8d0 2100 	ldr.w	r2, [r0, #256]	; 0x100
 1002bc0:	ea22 0101 	bic.w	r1, r2, r1
 1002bc4:	f8c0 1100 	str.w	r1, [r0, #256]	; 0x100
 1002bc8:	4770      	bx	lr
--
 1002bca:	f8d0 2100 	ldr.w	r2, [r0, #256]	; 0x100
 1002bce:	4311      	orrs	r1, r2
 1002bd0:	f8c0 1100 	str.w	r1, [r0, #256]	; 0x100
 1002bd4:	4770      	bx	lr
--
 1002bd6:	2900      	cmp	r1, #0
 1002bd8:	bf14      	ite	ne
 1002bda:	f8d0 0108 	ldrne.w	r0, [r0, #264]	; 0x108
 1002bde:	f8d0 0104 	ldreq.w	r0, [r0, #260]	; 0x104
 1002be2:	4770      	bx	lr
--
 1002bea:	d1fb      	bne.n	0x1002be4
 1002bec:	6802      	ldr	r2, [r0, #0]
 1002bee:	f422 6240 	bic.w	r2, r2, #3072	; 0xc00
 1002bf2:	6002      	str	r2, [r0, #0]
 1002bf4:	6802      	ldr	r2, [r0, #0]
 1002bf6:	ea42 2181 	orr.w	r1, r2, r1, lsl #10
 1002bfa:	6001      	str	r1, [r0, #0]
 1002bfc:	6801      	ldr	r1, [r0, #0]
 1002bfe:	f441 7100 	orr.w	r1, r1, #512	; 0x200
 1002c02:	6001      	str	r1, [r0, #0]
 1002c04:	4770      	bx	lr
--
 1002c06:	f8d0 00a0 	ldr.w	r0, [r0, #160]	; 0xa0
 1002c0a:	4770      	bx	lr
--
 1002c0c:	2a00      	cmp	r2, #0
 1002c0e:	bf18      	it	ne
 1002c10:	2201      	movne	r2, #1
 1002c12:	4311      	orrs	r1, r2
 1002c14:	f8c0 10a0 	str.w	r1, [r0, #160]	; 0xa0
 1002c18:	4770      	bx	lr
--
 1002c1c:	b119      	cbz	r1, 0x1002c26
 1002c1e:	f3c0 5302 	ubfx	r3, r0, #20, #3
 1002c22:	1c5b      	adds	r3, r3, #1
 1002c24:	600b      	str	r3, [r1, #0]
 1002c26:	2a00      	cmp	r2, #0
 1002c28:	bf08      	it	eq
 1002c2a:	4770      	bxeq	lr
 1002c2c:	f3c0 4102 	ubfx	r1, r0, #16, #3
 1002c30:	0209      	lsls	r1, r1, #8
 1002c32:	6011      	str	r1, [r2, #0]
 1002c34:	4770      	bx	lr
--
 1002c36:	4408      	add	r0, r1
 1002c38:	f8d0 0400 	ldr.w	r0, [r0, #1024]	; 0x400
 1002c3c:	4770      	bx	lr
--
 1002c3e:	4408      	add	r0, r1
 1002c40:	f8c0 2400 	str.w	r2, [r0, #1024]	; 0x400
 1002c44:	4770      	bx	lr
--
 1002c46:	491e      	ldr	r1, [pc, #120]	; (0x1002cc0)
 1002c48:	f040 0001 	orr.w	r0, r0, #1
 1002c4c:	6008      	str	r0, [r1, #0]
 1002c4e:	4770      	bx	lr
--
 1002c50:	481b      	ldr	r0, [pc, #108]	; (0x1002cc0)
 1002c52:	6801      	ldr	r1, [r0, #0]
 1002c54:	f021 0101 	bic.w	r1, r1, #1
 1002c58:	6001      	str	r1, [r0, #0]
 1002c5a:	4770      	bx	lr
--
 1002c5c:	4819      	ldr	r0, [pc, #100]	; (0x1002cc4)
 1002c5e:	6800      	ldr	r0, [r0, #0]
 1002c60:	f3c0 2007 	ubfx	r0, r0, #8, #8
 1002c64:	4770      	bx	lr
--
 1002c66:	4918      	ldr	r1, [pc, #96]	; (0x1002cc8)
 1002c68:	6008      	str	r0, [r1, #0]
 1002c6a:	6888      	ldr	r0, [r1, #8]
 1002c6c:	f040 0001 	orr.w	r0, r0, #1
 1002c70:	6088      	str	r0, [r1, #8]
 1002c72:	4770      	bx	lr
--
 1002c74:	4914      	ldr	r1, [pc, #80]	; (0x1002cc8)
 1002c76:	6008      	str	r0, [r1, #0]
 1002c78:	6888      	ldr	r0, [r1, #8]
 1002c7a:	f020 0001 	bic.w	r0, r0, #1
 1002c7e:	6088      	str	r0, [r1, #8]
 1002c80:	4770      	bx	lr
--
 1002c82:	4308      	orrs	r0, r1
 1002c84:	f040 0110 	orr.w	r1, r0, #16
 1002c88:	4810      	ldr	r0, [pc, #64]	; (0x1002ccc)
 1002c8a:	6001      	str	r1, [r0, #0]
 1002c8c:	f422 1168 	bic.w	r1, r2, #3801088	; 0x3a0000
 1002c90:	f441 21a0 	orr.w	r1, r1, #327680	; 0x50000
 1002c94:	6041      	str	r1, [r0, #4]
 1002c96:	4770      	bx	lr
--
 1002c98:	4b0b      	ldr	r3, [pc, #44]	; (0x1002cc8)
 1002c9a:	6018      	str	r0, [r3, #0]
 1002c9c:	6858      	ldr	r0, [r3, #4]
 1002c9e:	6008      	str	r0, [r1, #0]
 1002ca0:	6898      	ldr	r0, [r3, #8]
 1002ca2:	6010      	str	r0, [r2, #0]
 1002ca4:	4770      	bx	lr
--
 1002cea:	f8c0 6104 	str.w	r6, [r0, #260]	; 0x104
 1002cee:	f8c0 4108 	str.w	r4, [r0, #264]	; 0x108
 1002cf2:	f8c0 510c 	str.w	r5, [r0, #268]	; 0x10c
 1002cf6:	0612      	lsls	r2, r2, #24
 1002cf8:	ea42 4208 	orr.w	r2, r2, r8, lsl #16
 1002cfc:	ea42 2203 	orr.w	r2, r2, r3, lsl #8
 1002d00:	433a      	orrs	r2, r7
 1002d02:	f8c0 2100 	str.w	r2, [r0, #256]	; 0x100
 1002d06:	f8c0 1110 	str.w	r1, [r0, #272]	; 0x110
 1002d0a:	e8bd 01f0 	ldmia.w	sp!, {r4, r5, r6, r7, r8}
 1002d0e:	4770      	bx	lr
--
 1002d56:	d00a      	beq.n	0x1002d6e
 1002d58:	2900      	cmp	r1, #0
 1002d5a:	bf1c      	itt	ne
 1002d5c:	f8d0 c108 	ldrne.w	ip, [r0, #264]	; 0x108
 1002d60:	f8c1 c000 	strne.w	ip, [r1]
 1002d64:	2a00      	cmp	r2, #0
 1002d66:	bf1c      	itt	ne
 1002d68:	f8d0 010c 	ldrne.w	r0, [r0, #268]	; 0x10c
 1002d6c:	6010      	strne	r0, [r2, #0]
 1002d6e:	4618      	mov	r0, r3
 1002d70:	4770      	bx	lr
--
 1002d72:	6801      	ldr	r1, [r0, #0]
 1002d74:	f421 6100 	bic.w	r1, r1, #2048	; 0x800
 1002d78:	6001      	str	r1, [r0, #0]
 1002d7a:	4770      	bx	lr
--
 1002d7c:	6801      	ldr	r1, [r0, #0]
 1002d7e:	f441 6100 	orr.w	r1, r1, #2048	; 0x800
 1002d82:	6001      	str	r1, [r0, #0]
 1002d84:	4770      	bx	lr
--
 1002da4:	ea4f 0c8c 	mov.w	ip, ip, lsl #2
 1002da8:	fbb1 fcfc 	udiv	ip, r1, ip
 1002dac:	f8c2 c000 	str.w	ip, [r2]
 1002db0:	b280      	uxth	r0, r0
 1002db2:	f44f 727a 	mov.w	r2, #1000	; 0x3e8
 1002db6:	4350      	muls	r0, r2
 1002db8:	0b09      	lsrs	r1, r1, #12
 1002dba:	fbb0 f0f1 	udiv	r0, r0, r1
 1002dbe:	6018      	str	r0, [r3, #0]
 1002dc0:	bc70      	pop	{r4, r5, r6}
 1002dc2:	4770      	bx	lr
--
 1002e00:	d007      	beq.n	0x1002e12
 1002e02:	f44f 7c7a 	mov.w	ip, #1000	; 0x3e8
 1002e06:	fbb1 f1fc 	udiv	r1, r1, ip
 1002e0a:	4359      	muls	r1, r3
 1002e0c:	f601 71ff 	addw	r1, r1, #4095	; 0xfff
 1002e10:	0b09      	lsrs	r1, r1, #12
 1002e12:	b289      	uxth	r1, r1
 1002e14:	4311      	orrs	r1, r2
 1002e16:	6041      	str	r1, [r0, #4]
 1002e18:	bc30      	pop	{r4, r5}
 1002e1a:	4770      	bx	lr
--
 1002e1c:	eb00 0081 	add.w	r0, r0, r1, lsl #2
 1002e20:	6900      	ldr	r0, [r0, #16]
 1002e22:	2100      	movs	r1, #0
 1002e24:	6011      	str	r1, [r2, #0]
 1002e26:	2800      	cmp	r0, #0
 1002e28:	bf18      	it	ne
 1002e2a:	2001      	movne	r0, #1
 1002e2c:	6018      	str	r0, [r3, #0]
 1002e2e:	4770      	bx	lr
--
 1002e30:	eb00 0081 	add.w	r0, r0, r1, lsl #2
 1002e34:	f362 431f 	bfi	r3, r2, #16, #16
 1002e38:	6103      	str	r3, [r0, #16]
 1002e3a:	4770      	bx	lr
--
 1002e3c:	6802      	ldr	r2, [r0, #0]
 1002e3e:	2301      	movs	r3, #1
 1002e40:	fa03 f101 	lsl.w	r1, r3, r1
 1002e44:	ea22 0101 	bic.w	r1, r2, r1
 1002e48:	6001      	str	r1, [r0, #0]
 1002e4a:	4770      	bx	lr
--
 1002e4c:	6802      	ldr	r2, [r0, #0]
 1002e4e:	2301      	movs	r3, #1
 1002e50:	fa03 f101 	lsl.w	r1, r3, r1
 1002e54:	4311      	orrs	r1, r2
 1002e56:	6001      	str	r1, [r0, #0]
 1002e58:	4770      	bx	lr
--
 1002e5a:	eb00 0081 	add.w	r0, r0, r1, lsl #2
 1002e5e:	6c01      	ldr	r1, [r0, #64]	; 0x40
 1002e60:	b289      	uxth	r1, r1
 1002e62:	6401      	str	r1, [r0, #64]	; 0x40
 1002e64:	4770      	bx	lr
--
 1002e66:	eb00 0081 	add.w	r0, r0, r1, lsl #2
 1002e6a:	6c00      	ldr	r0, [r0, #64]	; 0x40
 1002e6c:	0c00      	lsrs	r0, r0, #16
 1002e6e:	4770      	bx	lr
--
 1002e70:	eb00 0081 	add.w	r0, r0, r1, lsl #2
 1002e74:	6c01      	ldr	r1, [r0, #64]	; 0x40
 1002e76:	f36f 010f 	bfc	r1, #0, #16
 1002e7a:	6401      	str	r1, [r0, #64]	; 0x40
 1002e7c:	4770      	bx	lr
--
 1002e7e:	eb00 0081 	add.w	r0, r0, r1, lsl #2
 1002e82:	6c00      	ldr	r0, [r0, #64]	; 0x40
 1002e84:	b280      	uxth	r0, r0
 1002e86:	4770      	bx	lr
--
 1002e88:	f8c0 108c 	str.w	r1, [r0, #140]	; 0x8c
 1002e8c:	4770      	bx	lr
--
 1002e8e:	f8d0 2080 	ldr.w	r2, [r0, #128]	; 0x80
 1002e92:	ea22 0101 	bic.w	r1, r2, r1
 1002e96:	f8c0 1080 	str.w	r1, [r0, #128]	; 0x80
 1002e9a:	4770      	bx	lr
--
 1002e9c:	f8d0 3080 	ldr.w	r3, [r0, #128]	; 0x80
 1002ea0:	f36f 020f 	bfc	r2, #0, #16
 1002ea4:	438b      	bics	r3, r1
 1002ea6:	b289      	uxth	r1, r1
 1002ea8:	4319      	orrs	r1, r3
 1002eaa:	4311      	orrs	r1, r2
 1002eac:	f8c0 1080 	str.w	r1, [r0, #128]	; 0x80
 1002eb0:	4770      	bx	lr
--
 1002eb2:	2900      	cmp	r1, #0
 1002eb4:	bf14      	ite	ne
 1002eb6:	f8d0 0088 	ldrne.w	r0, [r0, #136]	; 0x88
 1002eba:	f8d0 0084 	ldreq.w	r0, [r0, #132]	; 0x84
 1002ebe:	4770      	bx	lr
--
 1002eca:	6001      	str	r1, [r0, #0]
 1002ecc:	f012 0f02 	tst.w	r2, #2
 1002ed0:	bf14      	ite	ne
 1002ed2:	21b0      	movne	r1, #176	; 0xb0
 1002ed4:	218c      	moveq	r1, #140	; 0x8c
 1002ed6:	6201      	str	r1, [r0, #32]
 1002ed8:	bf14      	ite	ne
 1002eda:	f44f 6130 	movne.w	r1, #2816	; 0xb00
 1002ede:	f640 010c 	movweq	r1, #2060	; 0x80c
 1002ee2:	6241      	str	r1, [r0, #36]	; 0x24
 1002ee4:	4770      	bx	lr
--
 1002ee6:	4408      	add	r0, r1
 1002ee8:	6801      	ldr	r1, [r0, #0]
 1002eea:	f011 0f02 	tst.w	r1, #2
 1002eee:	bf14      	ite	ne
 1002ef0:	0851      	lsrne	r1, r2, #1
 1002ef2:	1e51      	subeq	r1, r2, #1
 1002ef4:	6101      	str	r1, [r0, #16]
 1002ef6:	4770      	bx	lr
--
 1002ef8:	4408      	add	r0, r1
 1002efa:	6801      	ldr	r1, [r0, #0]
 1002efc:	6900      	ldr	r0, [r0, #16]
 1002efe:	f011 0f02 	tst.w	r1, #2
 1002f02:	bf14      	ite	ne
 1002f04:	0040      	lslne	r0, r0, #1
 1002f06:	1c40      	addeq	r0, r0, #1
 1002f08:	4770      	bx	lr
--
 1002f0a:	5842      	ldr	r2, [r0, r1]
 1002f0c:	f042 0201 	orr.w	r2, r2, #1
 1002f10:	5042      	str	r2, [r0, r1]
 1002f12:	4770      	bx	lr
--
 1002f14:	5842      	ldr	r2, [r0, r1]
 1002f16:	f022 0201 	bic.w	r2, r2, #1
 1002f1a:	5042      	str	r2, [r0, r1]
 1002f1c:	4770      	bx	lr
--
 1002f24:	6803      	ldr	r3, [r0, #0]
 1002f26:	f013 0f02 	tst.w	r3, #2
 1002f2a:	bf18      	it	ne
 1002f2c:	0852      	lsrne	r2, r2, #1
 1002f2e:	6903      	ldr	r3, [r0, #16]
 1002f30:	1a9a      	subs	r2, r3, r2
 1002f32:	f011 0f01 	tst.w	r1, #1
 1002f36:	bf14      	ite	ne
 1002f38:	61c2      	strne	r2, [r0, #28]
 1002f3a:	6182      	streq	r2, [r0, #24]
 1002f3c:	4770      	bx	lr
--
 1002f44:	6913      	ldr	r3, [r2, #16]
 1002f46:	f011 0f01 	tst.w	r1, #1
 1002f4a:	bf14      	ite	ne
 1002f4c:	69d0      	ldrne	r0, [r2, #28]
 1002f4e:	6990      	ldreq	r0, [r2, #24]
 1002f50:	1a18      	subs	r0, r3, r0
 1002f52:	6811      	ldr	r1, [r2, #0]
 1002f54:	f011 0f02 	tst.w	r1, #2
 1002f58:	bf18      	it	ne
 1002f5a:	0040      	lslne	r0, r0, #1
 1002f5c:	4770      	bx	lr
--
 1002f5e:	4408      	add	r0, r1
 1002f60:	62c2      	str	r2, [r0, #44]	; 0x2c
 1002f62:	6303      	str	r3, [r0, #48]	; 0x30
 1002f64:	6a81      	ldr	r1, [r0, #40]	; 0x28
 1002f66:	f041 0101 	orr.w	r1, r1, #1
 1002f6a:	6281      	str	r1, [r0, #40]	; 0x28
 1002f6c:	4770      	bx	lr
--
 1002f6e:	4408      	add	r0, r1
 1002f70:	6a81      	ldr	r1, [r0, #40]	; 0x28
 1002f72:	f021 0101 	bic.w	r1, r1, #1
 1002f76:	6281      	str	r1, [r0, #40]	; 0x28
 1002f78:	4770      	bx	lr
--
 1002f7a:	6001      	str	r1, [r0, #0]
 1002f7c:	4770      	bx	lr
--
 1002f7e:	6041      	str	r1, [r0, #4]
 1002f80:	4770      	bx	lr
--
 1002f82:	2a01      	cmp	r2, #1
 1002f84:	6882      	ldr	r2, [r0, #8]
 1002f86:	bf0c      	ite	eq
 1002f88:	4311      	orreq	r1, r2
 1002f8a:	ea22 0101 	bicne.w	r1, r2, r1
 1002f8e:	6081      	str	r1, [r0, #8]
 1002f90:	4770      	bx	lr
--
 1002f92:	2a01      	cmp	r2, #1
 1002f94:	68c2      	ldr	r2, [r0, #12]
 1002f96:	bf0c      	ite	eq
 1002f98:	4311      	orreq	r1, r2
 1002f9a:	ea22 0101 	bicne.w	r1, r2, r1
 1002f9e:	60c1      	str	r1, [r0, #12]
 1002fa0:	4770      	bx	lr
--
 1002fa2:	2a01      	cmp	r2, #1
 1002fa4:	6a42      	ldr	r2, [r0, #36]	; 0x24
 1002fa6:	bf0c      	ite	eq
 1002fa8:	4311      	orreq	r1, r2
 1002faa:	ea22 0101 	bicne.w	r1, r2, r1
 1002fae:	6241      	str	r1, [r0, #36]	; 0x24
 1002fb0:	4770      	bx	lr
--
 1002fb2:	2a01      	cmp	r2, #1
 1002fb4:	6902      	ldr	r2, [r0, #16]
 1002fb6:	bf0c      	ite	eq
 1002fb8:	4311      	orreq	r1, r2
 1002fba:	ea22 0101 	bicne.w	r1, r2, r1
 1002fbe:	6101      	str	r1, [r0, #16]
 1002fc0:	4770      	bx	lr
--
 1002fc2:	4408      	add	r0, r1
 1002fc4:	6841      	ldr	r1, [r0, #4]
 1002fc6:	4311      	orrs	r1, r2
 1002fc8:	6041      	str	r1, [r0, #4]
 1002fca:	4770      	bx	lr
--
 1002fcc:	4408      	add	r0, r1
 1002fce:	6841      	ldr	r1, [r0, #4]
 1002fd0:	4391      	bics	r1, r2
 1002fd2:	6041      	str	r1, [r0, #4]
 1002fd4:	4770      	bx	lr
--
 1002fd6:	4408      	add	r0, r1
 1002fd8:	2a01      	cmp	r2, #1
 1002fda:	bf0c      	ite	eq
 1002fdc:	68c0      	ldreq	r0, [r0, #12]
 1002fde:	6880      	ldrne	r0, [r0, #8]
 1002fe0:	4770      	bx	lr
--
 1002fe2:	4408      	add	r0, r1
 1002fe4:	60c2      	str	r2, [r0, #12]
 1002fe6:	4770      	bx	lr
--
 1002fe8:	6942      	ldr	r2, [r0, #20]
 1002fea:	4311      	orrs	r1, r2
 1002fec:	6141      	str	r1, [r0, #20]
 1002fee:	4770      	bx	lr
--
 1002ff0:	6942      	ldr	r2, [r0, #20]
 1002ff2:	ea22 0101 	bic.w	r1, r2, r1
 1002ff6:	6141      	str	r1, [r0, #20]
 1002ff8:	4770      	bx	lr
--
 1002ffa:	f44f 3180 	mov.w	r1, #65536	; 0x10000
 1002ffe:	61c1      	str	r1, [r0, #28]
 1003000:	4770      	bx	lr
--
 1003002:	2901      	cmp	r1, #1
 1003004:	bf0c      	ite	eq
 1003006:	69c0      	ldreq	r0, [r0, #28]
 1003008:	6980      	ldrne	r0, [r0, #24]
 100300a:	4770      	bx	lr
--
 100300c:	61c1      	str	r1, [r0, #28]
 100300e:	4770      	bx	lr
--
 1003010:	eb00 0c01 	add.w	ip, r0, r1
 1003014:	f8cc 203c 	str.w	r2, [ip, #60]	; 0x3c
 1003018:	eb00 0041 	add.w	r0, r0, r1, lsl #1
 100301c:	f8c0 3780 	str.w	r3, [r0, #1920]	; 0x780
 1003020:	4770      	bx	lr
--
 1003022:	4408      	add	r0, r1
 1003024:	2a00      	cmp	r2, #0
 1003026:	bf0c      	ite	eq
 1003028:	6343      	streq	r3, [r0, #52]	; 0x34
 100302a:	6383      	strne	r3, [r0, #56]	; 0x38
 100302c:	4770      	bx	lr
--
 100302e:	4408      	add	r0, r1
 1003030:	2a00      	cmp	r2, #0
 1003032:	bf0c      	ite	eq
 1003034:	6b40      	ldreq	r0, [r0, #52]	; 0x34
 1003036:	6b80      	ldrne	r0, [r0, #56]	; 0x38
 1003038:	4770      	bx	lr
--
 100303a:	eb00 0041 	add.w	r0, r0, r1, lsl #1
 100303e:	2a00      	cmp	r2, #0
 1003040:	bf0c      	ite	eq
 1003042:	f8d0 0784 	ldreq.w	r0, [r0, #1924]	; 0x784
 1003046:	f8d0 0788 	ldrne.w	r0, [r0, #1928]	; 0x788
 100304a:	4770      	bx	lr
--
 100304c:	eb00 0041 	add.w	r0, r0, r1, lsl #1
 1003050:	2a00      	cmp	r2, #0
 1003052:	bf0c      	ite	eq
 1003054:	f8c0 3784 	streq.w	r3, [r0, #1924]	; 0x784
 1003058:	f8c0 3788 	strne.w	r3, [r0, #1928]	; 0x788
 100305c:	4770      	bx	lr
--
 100305e:	6801      	ldr	r1, [r0, #0]
 1003060:	f041 0101 	orr.w	r1, r1, #1
 1003064:	6001      	str	r1, [r0, #0]
 1003066:	4770      	bx	lr
--
 1003068:	6801      	ldr	r1, [r0, #0]
 100306a:	f021 0101 	bic.w	r1, r1, #1
 100306e:	6001      	str	r1, [r0, #0]
 1003070:	4770      	bx	lr
--
 1003072:	6803      	ldr	r3, [r0, #0]
 1003074:	f023 031e 	bic.w	r3, r3, #30
 1003078:	4319      	orrs	r1, r3
 100307a:	6001      	str	r1, [r0, #0]
 100307c:	60c2      	str	r2, [r0, #12]
 100307e:	4770      	bx	lr
--
 1003080:	6880      	ldr	r0, [r0, #8]
 1003082:	4770      	bx	lr
--
 1003084:	6081      	str	r1, [r0, #8]
 1003086:	4770      	bx	lr
--
 1003088:	6840      	ldr	r0, [r0, #4]
 100308a:	f010 0f02 	tst.w	r0, #2
 100308e:	bf14      	ite	ne
 1003090:	f04f 30ff 	movne.w	r0, #4294967295	; 0xffffffff
 1003094:	2001      	moveq	r0, #1
 1003096:	4770      	bx	lr
--
 1003098:	6840      	ldr	r0, [r0, #4]
 100309a:	f000 0001 	and.w	r0, r0, #1
 100309e:	4770      	bx	lr
--
 10030a0:	6801      	ldr	r1, [r0, #0]
 10030a2:	f041 0120 	orr.w	r1, r1, #32
 10030a6:	6001      	str	r1, [r0, #0]
 10030a8:	4770      	bx	lr
--
 10030aa:	6801      	ldr	r1, [r0, #0]
 10030ac:	f021 0120 	bic.w	r1, r1, #32
 10030b0:	6001      	str	r1, [r0, #0]
 10030b2:	4770      	bx	lr
--
 10030b4:	6803      	ldr	r3, [r0, #0]
 10030b6:	f423 73e0 	bic.w	r3, r3, #448	; 0x1c0
 10030ba:	4319      	orrs	r1, r3
 10030bc:	6001      	str	r1, [r0, #0]
 10030be:	1e51      	subs	r1, r2, #1
 10030c0:	6101      	str	r1, [r0, #16]
 10030c2:	4770      	bx	lr
--
 10030c4:	69c0      	ldr	r0, [r0, #28]
 10030c6:	4770      	bx	lr
--
 10030c8:	6a02      	ldr	r2, [r0, #32]
 10030ca:	4311      	orrs	r1, r2
 10030cc:	6201      	str	r1, [r0, #32]
 10030ce:	4770      	bx	lr
--
 10030d0:	6a02      	ldr	r2, [r0, #32]
 10030d2:	ea22 0101 	bic.w	r1, r2, r1
 10030d6:	6201      	str	r1, [r0, #32]
 10030d8:	4770      	bx	lr
--
 10030da:	2900      	cmp	r1, #0
 10030dc:	bf14      	ite	ne
 10030de:	6a80      	ldrne	r0, [r0, #40]	; 0x28
 10030e0:	6a40      	ldreq	r0, [r0, #36]	; 0x24
 10030e2:	4770      	bx	lr
--
 10030e4:	6281      	str	r1, [r0, #40]	; 0x28
 10030e6:	4770      	bx	lr
--
 10030e8:	2100      	movs	r1, #0
 10030ea:	301c      	adds	r0, #28
 10030ec:	f000 4270 	and.w	r2, r0, #4026531840	; 0xf0000000
 10030f0:	f3c0 0013 	ubfx	r0, r0, #0, #20
 10030f4:	ea42 1040 	orr.w	r0, r2, r0, lsl #5
 10030f8:	f040 001c 	orr.w	r0, r0, #28
 10030fc:	f040 7000 	orr.w	r0, r0, #33554432	; 0x2000000
 1003100:	7001      	strb	r1, [r0, #0]
 1003102:	4770      	bx	lr
--
 1003104:	2101      	movs	r1, #1
 1003106:	301c      	adds	r0, #28
 1003108:	f000 4270 	and.w	r2, r0, #4026531840	; 0xf0000000
 100310c:	f3c0 0013 	ubfx	r0, r0, #0, #20
 1003110:	ea42 1040 	orr.w	r0, r2, r0, lsl #5
 1003114:	f040 001c 	orr.w	r0, r0, #28
 1003118:	f040 7000 	orr.w	r0, r0, #33554432	; 0x2000000
 100311c:	7001      	strb	r1, [r0, #0]
 100311e:	4770      	bx	lr
--
 1003142:	ba5b      	rev16	r3, r3
 1003144:	8143      	strh	r3, [r0, #10]
 1003146:	68d3      	ldr	r3, [r2, #12]
 1003148:	f892 c00f 	ldrb.w	ip, [r2, #15]
 100314c:	ba1b      	rev	r3, r3
 100314e:	f023 03ff 	bic.w	r3, r3, #255	; 0xff
 1003152:	ea43 030c 	orr.w	r3, r3, ip
 1003156:	60c3      	str	r3, [r0, #12]
 1003158:	7c10      	ldrb	r0, [r2, #16]
 100315a:	7008      	strb	r0, [r1, #0]
 100315c:	4770      	bx	lr
--
 100319c:	7313      	strb	r3, [r2, #12]
 100319e:	68c3      	ldr	r3, [r0, #12]
 10031a0:	0c1b      	lsrs	r3, r3, #16
 10031a2:	7353      	strb	r3, [r2, #13]
 10031a4:	68c3      	ldr	r3, [r0, #12]
 10031a6:	0a1b      	lsrs	r3, r3, #8
 10031a8:	7393      	strb	r3, [r2, #14]
 10031aa:	68c0      	ldr	r0, [r0, #12]
 10031ac:	73d0      	strb	r0, [r2, #15]
 10031ae:	7411      	strb	r1, [r2, #16]
 10031b0:	4770      	bx	lr
--
 1004058:	7008      	strb	r0, [r1, #0]
 100405a:	2000      	movs	r0, #0
 100405c:	bd00      	pop	{pc}
 100405e:	2100      	movs	r1, #0
 1004060:	301c      	adds	r0, #28
 1004062:	f000 4270 	and.w	r2, r0, #4026531840	; 0xf0000000
 1004066:	f3c0 0013 	ubfx	r0, r0, #0, #20
 100406a:	ea42 1040 	orr.w	r0, r2, r0, lsl #5
 100406e:	f040 7000 	orr.w	r0, r0, #33554432	; 0x2000000
 1004072:	7001      	strb	r1, [r0, #0]
 1004074:	4770      	bx	lr
--
 1004076:	2101      	movs	r1, #1
 1004078:	301c      	adds	r0, #28
 100407a:	f000 4270 	and.w	r2, r0, #4026531840	; 0xf0000000
 100407e:	f3c0 0013 	ubfx	r0, r0, #0, #20
 1004082:	ea42 1040 	orr.w	r0, r2, r0, lsl #5
 1004086:	f040 7000 	orr.w	r0, r0, #33554432	; 0x2000000
 100408a:	7001      	strb	r1, [r0, #0]
 100408c:	4770      	bx	lr
--
 100408e:	7cc0      	ldrb	r0, [r0, #19]
 1004090:	4770      	bx	lr
--
 100409e:	f7fe bb19 	b.w	0x10026d4
 10040a2:	6840      	ldr	r0, [r0, #4]
 10040a4:	f7fe bb1f 	b.w	0x10026e6
 10040a8:	301c      	adds	r0, #28
 10040aa:	f000 4170 	and.w	r1, r0, #4026531840	; 0xf0000000
 10040ae:	f3c0 0013 	ubfx	r0, r0, #0, #20
 10040b2:	ea41 1040 	orr.w	r0, r1, r0, lsl #5
 10040b6:	f040 0014 	orr.w	r0, r0, #20
 10040ba:	f040 7000 	orr.w	r0, r0, #33554432	; 0x2000000
 10040be:	7800      	ldrb	r0, [r0, #0]
 10040c0:	4770      	bx	lr
--
 10040c2:	301c      	adds	r0, #28
 10040c4:	f000 4270 	and.w	r2, r0, #4026531840	; 0xf0000000
 10040c8:	f3c0 0013 	ubfx	r0, r0, #0, #20
 10040cc:	ea42 1040 	orr.w	r0, r2, r0, lsl #5
 10040d0:	f040 0014 	orr.w	r0, r0, #20
 10040d4:	f040 7000 	orr.w	r0, r0, #33554432	; 0x2000000
 10040d8:	7001      	strb	r1, [r0, #0]
 10040da:	4770      	bx	lr
--
 10040dc:	301c      	adds	r0, #28
 10040de:	f000 4170 	and.w	r1, r0, #4026531840	; 0xf0000000
 10040e2:	f3c0 0013 	ubfx	r0, r0, #0, #20
 10040e6:	ea41 1040 	orr.w	r0, r1, r0, lsl #5
 10040ea:	f040 0018 	orr.w	r0, r0, #24
 10040ee:	f040 7000 	orr.w	r0, r0, #33554432	; 0x2000000
 10040f2:	7800      	ldrb	r0, [r0, #0]
 10040f4:	4770      	bx	lr
--
 10040f6:	301c      	adds	r0, #28
 10040f8:	f000 4270 	and.w	r2, r0, #4026531840	; 0xf0000000
 10040fc:	f3c0 0013 	ubfx	r0, r0, #0, #20
 1004100:	ea42 1040 	orr.w	r0, r2, r0, lsl #5
 1004104:	f040 0018 	orr.w	r0, r0, #24
 1004108:	f040 7000 	orr.w	r0, r0, #33554432	; 0x2000000
 100410c:	7001      	strb	r1, [r0, #0]
 100410e:	4770      	bx	lr
--
 1004110:	2100      	movs	r1, #0
 1004112:	301c      	adds	r0, #28
 1004114:	f000 4270 	and.w	r2, r0, #4026531840	; 0xf0000000
 1004118:	f3c0 0013 	ubfx	r0, r0, #0, #20
 100411c:	ea42 1040 	orr.w	r0, r2, r0, lsl #5
 1004120:	f040 0008 	orr.w	r0, r0, #8
 1004124:	f040 7000 	orr.w	r0, r0, #33554432	; 0x2000000
 1004128:	7001      	strb	r1, [r0, #0]
 100412a:	4770      	bx	lr
--
 100412c:	2101      	movs	r1, #1
 100412e:	301c      	adds	r0, #28
 1004130:	f000 4270 	and.w	r2, r0, #4026531840	; 0xf0000000
 1004134:	f3c0 0013 	ubfx	r0, r0, #0, #20
 1004138:	ea42 1040 	orr.w	r0, r2, r0, lsl #5
 100413c:	f040 0008 	orr.w	r0, r0, #8
 1004140:	f040 7000 	orr.w	r0, r0, #33554432	; 0x2000000
 1004144:	7001      	strb	r1, [r0, #0]
 1004146:	4770      	bx	lr
--
 1004148:	7d80      	ldrb	r0, [r0, #22]
 100414a:	4770      	bx	lr
--
 10041f6:	76a5      	strb	r5, [r4, #26]
 10041f8:	e7f5      	b.n	0x10041e6
 10041fa:	2100      	movs	r1, #0
 10041fc:	301c      	adds	r0, #28
 10041fe:	f000 4270 	and.w	r2, r0, #4026531840	; 0xf0000000
 1004202:	f3c0 0013 	ubfx	r0, r0, #0, #20
 1004206:	ea42 1040 	orr.w	r0, r2, r0, lsl #5
 100420a:	f040 0010 	orr.w	r0, r0, #16
 100420e:	f040 7000 	orr.w	r0, r0, #33554432	; 0x2000000
 1004212:	7001      	strb	r1, [r0, #0]
 1004214:	4770      	bx	lr
--
 1004216:	2101      	movs	r1, #1
 1004218:	301c      	adds	r0, #28
 100421a:	f000 4270 	and.w	r2, r0, #4026531840	; 0xf0000000
 100421e:	f3c0 0013 	ubfx	r0, r0, #0, #20
 1004222:	ea42 1040 	orr.w	r0, r2, r0, lsl #5
 1004226:	f040 0010 	orr.w	r0, r0, #16
 100422a:	f040 7000 	orr.w	r0, r0, #33554432	; 0x2000000
 100422e:	7001      	strb	r1, [r0, #0]
 1004230:	4770      	bx	lr
--
 100468e:	e7df      	b.n	0x1004650
 1004690:	6840      	ldr	r0, [r0, #4]
 1004692:	2100      	movs	r1, #0
 1004694:	f7fe b815 	b.w	0x10026c2
 1004698:	6840      	ldr	r0, [r0, #4]
 100469a:	2101      	movs	r1, #1
 100469c:	f7fe b811 	b.w	0x10026c2
 10046a0:	6840      	ldr	r0, [r0, #4]
 10046a2:	6a00      	ldr	r0, [r0, #32]
 10046a4:	f000 0001 	and.w	r0, r0, #1
 10046a8:	4770      	bx	lr
--
 10046aa:	2100      	movs	r1, #0
 10046ac:	301c      	adds	r0, #28
 10046ae:	f000 4270 	and.w	r2, r0, #4026531840	; 0xf0000000
 10046b2:	f3c0 0013 	ubfx	r0, r0, #0, #20
 10046b6:	ea42 1040 	orr.w	r0, r2, r0, lsl #5
 10046ba:	f040 0004 	orr.w	r0, r0, #4
 10046be:	f040 7000 	orr.w	r0, r0, #33554432	; 0x2000000
 10046c2:	7001      	strb	r1, [r0, #0]
 10046c4:	4770      	bx	lr
--
 10046c6:	2101      	movs	r1, #1
 10046c8:	301c      	adds	r0, #28
 10046ca:	f000 4270 	and.w	r2, r0, #4026531840	; 0xf0000000
 10046ce:	f3c0 0013 	ubfx	r0, r0, #0, #20
 10046d2:	ea42 1040 	orr.w	r0, r2, r0, lsl #5
 10046d6:	f040 0004 	orr.w	r0, r0, #4
 10046da:	f040 7000 	orr.w	r0, r0, #33554432	; 0x2000000
 10046de:	7001      	strb	r1, [r0, #0]
 10046e0:	4770      	bx	lr
--
 10046e2:	60c1      	str	r1, [r0, #12]
 10046e4:	7482      	strb	r2, [r0, #18]
 10046e6:	4770      	bx	lr
--
 1004712:	f042 7200 	orr.w	r2, r2, #33554432	; 0x2000000
 1004716:	7011      	strb	r1, [r2, #0]
 1004718:	7641      	strb	r1, [r0, #25]
 100471a:	7681      	strb	r1, [r0, #26]
 100471c:	7581      	strb	r1, [r0, #22]
 100471e:	75c1      	strb	r1, [r0, #23]
 1004720:	7401      	strb	r1, [r0, #16]
 1004722:	7441      	strb	r1, [r0, #17]
 1004724:	7481      	strb	r1, [r0, #18]
 1004726:	74c1      	strb	r1, [r0, #19]
 1004728:	4770      	bx	lr
--
 100472a:	6081      	str	r1, [r0, #8]
 100472c:	7402      	strb	r2, [r0, #16]
 100472e:	4770      	bx	lr
--
 1004730:	6001      	str	r1, [r0, #0]
 1004732:	4770      	bx	lr
--
 1004736:	f000 4170 	and.w	r1, r0, #4026531840	; 0xf0000000
 100473a:	f3c0 0013 	ubfx	r0, r0, #0, #20
 100473e:	ea41 1040 	orr.w	r0, r1, r0, lsl #5
 1004742:	f040 000c 	orr.w	r0, r0, #12
 1004746:	f040 7000 	orr.w	r0, r0, #33554432	; 0x2000000
 100474a:	7800      	ldrb	r0, [r0, #0]
 100474c:	2800      	cmp	r0, #0
 100474e:	bf14      	ite	ne
 1004750:	2010      	movne	r0, #16
 1004752:	2011      	moveq	r0, #17
 1004754:	4770      	bx	lr
--
 1004756:	68c0      	ldr	r0, [r0, #12]
 1004758:	f3c0 1000 	ubfx	r0, r0, #4, #1
 100475c:	4770      	bx	lr
--
 100475e:	f8d0 0fc8 	ldr.w	r0, [r0, #4040]	; 0xfc8
 1004762:	4770      	bx	lr
--
 1004764:	f8c0 1fc8 	str.w	r1, [r0, #4040]	; 0xfc8
 1004768:	4770      	bx	lr
--
 100479a:	6101      	str	r1, [r0, #16]
 100479c:	0791      	lsls	r1, r2, #30
 100479e:	0e09      	lsrs	r1, r1, #24
 10047a0:	f002 0230 	and.w	r2, r2, #48	; 0x30
 10047a4:	ea41 2103 	orr.w	r1, r1, r3, lsl #8
 10047a8:	4311      	orrs	r1, r2
 10047aa:	1e62      	subs	r2, r4, #1
 10047ac:	4311      	orrs	r1, r2
 10047ae:	6001      	str	r1, [r0, #0]
 10047b0:	bc30      	pop	{r4, r5}
 10047b2:	4770      	bx	lr
--
 10047b4:	68c2      	ldr	r2, [r0, #12]
 10047b6:	f012 0f04 	tst.w	r2, #4
 10047ba:	d0fb      	beq.n	0x10047b4
 10047bc:	6880      	ldr	r0, [r0, #8]
 10047be:	6008      	str	r0, [r1, #0]
 10047c0:	4770      	bx	lr
--
 10047c2:	68c2      	ldr	r2, [r0, #12]
 10047c4:	f012 0f04 	tst.w	r2, #4
 10047c8:	bf1d      	ittte	ne
 10047ca:	6880      	ldrne	r0, [r0, #8]
 10047cc:	6008      	strne	r0, [r1, #0]
 10047ce:	2001      	movne	r0, #1
 10047d0:	2000      	moveq	r0, #0
 10047d2:	4770      	bx	lr
--
 10047d4:	68c2      	ldr	r2, [r0, #12]
 10047d6:	f012 0f02 	tst.w	r2, #2
 10047da:	d0fb      	beq.n	0x10047d4
 10047dc:	6081      	str	r1, [r0, #8]
 10047de:	4770      	bx	lr
--
 10047e0:	68c2      	ldr	r2, [r0, #12]
 10047e2:	f012 0f02 	tst.w	r2, #2
 10047e6:	bf1a      	itte	ne
 10047e8:	6081      	strne	r1, [r0, #8]
 10047ea:	2001      	movne	r0, #1
 10047ec:	2000      	moveq	r0, #0
 10047ee:	4770      	bx	lr
--
 10047f0:	6841      	ldr	r1, [r0, #4]
 10047f2:	f021 0102 	bic.w	r1, r1, #2
 10047f6:	6041      	str	r1, [r0, #4]
 10047f8:	4770      	bx	lr
--
 10047fa:	6a42      	ldr	r2, [r0, #36]	; 0x24
 10047fc:	ea22 0101 	bic.w	r1, r2, r1
 1004800:	6241      	str	r1, [r0, #36]	; 0x24
 1004802:	4770      	bx	lr
--
 1004804:	6a42      	ldr	r2, [r0, #36]	; 0x24
 1004806:	4311      	orrs	r1, r2
 1004808:	6241      	str	r1, [r0, #36]	; 0x24
 100480a:	4770      	bx	lr
--
 100480c:	6841      	ldr	r1, [r0, #4]
 100480e:	f041 0102 	orr.w	r1, r1, #2
 1004812:	6041      	str	r1, [r0, #4]
 1004814:	4770      	bx	lr
--
 1004816:	6201      	str	r1, [r0, #32]
 1004818:	4770      	bx	lr
--
 100481a:	6942      	ldr	r2, [r0, #20]
 100481c:	ea22 0101 	bic.w	r1, r2, r1
 1004820:	6141      	str	r1, [r0, #20]
 1004822:	4770      	bx	lr
--
 1004824:	6942      	ldr	r2, [r0, #20]
 1004826:	4311      	orrs	r1, r2
 1004828:	6141      	str	r1, [r0, #20]
 100482a:	4770      	bx	lr
--
 100482c:	2900      	cmp	r1, #0
 100482e:	bf14      	ite	ne
 1004830:	69c0      	ldrne	r0, [r0, #28]
 1004832:	6980      	ldreq	r0, [r0, #24]
 1004834:	4770      	bx	lr
--
 1004836:	6841      	ldr	r1, [r0, #4]
 1004838:	f021 0120 	bic.w	r1, r1, #32
 100483c:	6041      	str	r1, [r0, #4]
 100483e:	4770      	bx	lr
--
 1004840:	6841      	ldr	r1, [r0, #4]
 1004842:	f041 0120 	orr.w	r1, r1, #32
 1004846:	6041      	str	r1, [r0, #4]
 1004848:	4770      	bx	lr
--
 100484a:	4afc      	ldr	r2, [pc, #1008]	; (0x1004c3c)
 100484c:	2100      	movs	r1, #0
 100484e:	f852 3031 	ldr.w	r3, [r2, r1, lsl #3]
 1004852:	4283      	cmp	r3, r0
 1004854:	d103      	bne.n	0x100485e
 1004856:	eb02 00c1 	add.w	r0, r2, r1, lsl #3
 100485a:	6840      	ldr	r0, [r0, #4]
 100485c:	4770      	bx	lr
--
 100485e:	1c49      	adds	r1, r1, #1
 1004860:	2924      	cmp	r1, #36	; 0x24
 1004862:	d3f4      	bcc.n	0x100484e
 1004864:	4770      	bx	lr
--
 1004866:	48f6      	ldr	r0, [pc, #984]	; (0x1004c40)
 1004868:	6800      	ldr	r0, [r0, #0]
 100486a:	f400 6070 	and.w	r0, r0, #3840	; 0xf00
 100486e:	4770      	bx	lr
--
 1004870:	49f3      	ldr	r1, [pc, #972]	; (0x1004c40)
 1004872:	680a      	ldr	r2, [r1, #0]
 1004874:	f422 6270 	bic.w	r2, r2, #3840	; 0xf00
 1004878:	ea42 0200 	orr.w	r2, r2, r0
 100487c:	600a      	str	r2, [r1, #0]
 100487e:	690a      	ldr	r2, [r1, #16]
 1004880:	f422 6270 	bic.w	r2, r2, #3840	; 0xf00
 1004884:	ea42 0000 	orr.w	r0, r2, r0
 1004888:	6108      	str	r0, [r1, #16]
 100488a:	4770      	bx	lr
--
 10048c8:	2860      	cmp	r0, #96	; 0x60
 10048ca:	bf08      	it	eq
 10048cc:	f44f 0080 	moveq.w	r0, #4194304	; 0x400000
 10048d0:	d00d      	beq.n	0x10048ee
 10048d2:	2870      	cmp	r0, #112	; 0x70
 10048d4:	bf08      	it	eq
 10048d6:	f44f 4000 	moveq.w	r0, #32768	; 0x8000
 10048da:	d008      	beq.n	0x10048ee
 10048dc:	bc10      	pop	{r4}
 10048de:	2000      	movs	r0, #0
 10048e0:	4770      	bx	lr
--
 1004954:	f411 6f00 	tst.w	r1, #2048	; 0x800
 1004958:	d00c      	beq.n	0x1004974
 100495a:	f001 4300 	and.w	r3, r1, #2147483648	; 0x80000000
 100495e:	f402 6200 	and.w	r2, r2, #2048	; 0x800
 1004962:	431a      	orrs	r2, r3
 1004964:	d006      	beq.n	0x1004974
 1004966:	f3c1 51c5 	ubfx	r1, r1, #23, #6
 100496a:	1c49      	adds	r1, r1, #1
 100496c:	fbb0 f0f1 	udiv	r0, r0, r1
 1004970:	bc10      	pop	{r4}
 1004972:	4770      	bx	lr
--
 1004974:	0040      	lsls	r0, r0, #1
 1004976:	f3c1 5186 	ubfx	r1, r1, #22, #7
 100497a:	1c49      	adds	r1, r1, #1
 100497c:	fbb0 f0f1 	udiv	r0, r0, r1
 1004980:	bc10      	pop	{r4}
 1004982:	4770      	bx	lr
--
 1004984:	f3c2 51c3 	ubfx	r1, r2, #23, #4
 1004988:	1c49      	adds	r1, r1, #1
 100498a:	fbb0 f0f1 	udiv	r0, r0, r1
 100498e:	bc10      	pop	{r4}
 1004990:	4770      	bx	lr
--
 1004abc:	6820      	ldr	r0, [r4, #0]
 1004abe:	f020 0004 	bic.w	r0, r0, #4
 1004ac2:	6020      	str	r0, [r4, #0]
 1004ac4:	bd10      	pop	{r4, pc}
 1004ac6:	4a67      	ldr	r2, [pc, #412]	; (0x1004c64)
 1004ac8:	f021 51fc 	bic.w	r1, r1, #528482304	; 0x1f800000
 1004acc:	eb02 50c0 	add.w	r0, r2, r0, lsl #23
 1004ad0:	4308      	orrs	r0, r1
 1004ad2:	4965      	ldr	r1, [pc, #404]	; (0x1004c68)
 1004ad4:	6008      	str	r0, [r1, #0]
 1004ad6:	4770      	bx	lr
--
 1004ad8:	4963      	ldr	r1, [pc, #396]	; (0x1004c68)
 1004ada:	6008      	str	r0, [r1, #0]
 1004adc:	4770      	bx	lr
--
 1004ade:	4963      	ldr	r1, [pc, #396]	; (0x1004c6c)
 1004ae0:	6008      	str	r0, [r1, #0]
 1004ae2:	4770      	bx	lr
--
 1004ae4:	4857      	ldr	r0, [pc, #348]	; (0x1004c44)
 1004ae6:	6880      	ldr	r0, [r0, #8]
 1004ae8:	0400      	lsls	r0, r0, #16
 1004aea:	0940      	lsrs	r0, r0, #5
 1004aec:	f500 6000 	add.w	r0, r0, #2048	; 0x800
 1004af0:	4770      	bx	lr
--
 1004af2:	4954      	ldr	r1, [pc, #336]	; (0x1004c44)
 1004af4:	6eca      	ldr	r2, [r1, #108]	; 0x6c
 1004af6:	b280      	uxth	r0, r0
 1004af8:	ea22 0000 	bic.w	r0, r2, r0
 1004afc:	66c8      	str	r0, [r1, #108]	; 0x6c
 1004afe:	4770      	bx	lr
--
 1004b00:	4950      	ldr	r1, [pc, #320]	; (0x1004c44)
 1004b02:	6eca      	ldr	r2, [r1, #108]	; 0x6c
 1004b04:	b280      	uxth	r0, r0
 1004b06:	4310      	orrs	r0, r2
 1004b08:	66c8      	str	r0, [r1, #108]	; 0x6c
 1004b0a:	4770      	bx	lr
--
 1004b0c:	494d      	ldr	r1, [pc, #308]	; (0x1004c44)
 1004b0e:	6588      	str	r0, [r1, #88]	; 0x58
 1004b10:	4770      	bx	lr
--
 1004b12:	494c      	ldr	r1, [pc, #304]	; (0x1004c44)
 1004b14:	6d4a      	ldr	r2, [r1, #84]	; 0x54
 1004b16:	ea22 0000 	bic.w	r0, r2, r0
 1004b1a:	6548      	str	r0, [r1, #84]	; 0x54
 1004b1c:	4770      	bx	lr
--
 1004b1e:	4949      	ldr	r1, [pc, #292]	; (0x1004c44)
 1004b20:	6d4a      	ldr	r2, [r1, #84]	; 0x54
 1004b22:	4310      	orrs	r0, r2
 1004b24:	6548      	str	r0, [r1, #84]	; 0x54
 1004b26:	4770      	bx	lr
--
 1004b28:	4946      	ldr	r1, [pc, #280]	; (0x1004c44)
 1004b2a:	2800      	cmp	r0, #0
 1004b2c:	bf14      	ite	ne
 1004b2e:	6d88      	ldrne	r0, [r1, #88]	; 0x58
 1004b30:	6d08      	ldreq	r0, [r1, #80]	; 0x50
 1004b32:	4770      	bx	lr
--
 1004b34:	484e      	ldr	r0, [pc, #312]	; (0x1004c70)
 1004b36:	6800      	ldr	r0, [r0, #0]
 1004b38:	4770      	bx	lr
--
 1004b3a:	494d      	ldr	r1, [pc, #308]	; (0x1004c70)
 1004b3c:	6008      	str	r0, [r1, #0]
 1004b3e:	4770      	bx	lr
--
 1004b40:	4840      	ldr	r0, [pc, #256]	; (0x1004c44)
 1004b42:	6b40      	ldr	r0, [r0, #52]	; 0x34
 1004b44:	4770      	bx	lr
--
 1004b46:	493f      	ldr	r1, [pc, #252]	; (0x1004c44)
 1004b48:	6348      	str	r0, [r1, #52]	; 0x34
 1004b4a:	4770      	bx	lr
--
 1004b4c:	4849      	ldr	r0, [pc, #292]	; (0x1004c74)
 1004b4e:	6800      	ldr	r0, [r0, #0]
 1004b50:	4770      	bx	lr
--
 1004b52:	4948      	ldr	r1, [pc, #288]	; (0x1004c74)
 1004b54:	6008      	str	r0, [r1, #0]
 1004b56:	4770      	bx	lr
--
 1004b58:	493a      	ldr	r1, [pc, #232]	; (0x1004c44)
 1004b5a:	67c8      	str	r0, [r1, #124]	; 0x7c
 1004b5c:	4770      	bx	lr
--
 1004b7e:	493f      	ldr	r1, [pc, #252]	; (0x1004c7c)
 1004b80:	b2c0      	uxtb	r0, r0
 1004b82:	4411      	add	r1, r2
 1004b84:	f001 4270 	and.w	r2, r1, #4026531840	; 0xf0000000
 1004b88:	f3c1 0113 	ubfx	r1, r1, #0, #20
 1004b8c:	ea42 1141 	orr.w	r1, r2, r1, lsl #5
 1004b90:	ea41 0080 	orr.w	r0, r1, r0, lsl #2
 1004b94:	f040 7000 	orr.w	r0, r0, #33554432	; 0x2000000
 1004b98:	6800      	ldr	r0, [r0, #0]
 1004b9a:	b2c0      	uxtb	r0, r0
 1004b9c:	4770      	bx	lr
--
 1004ba0:	0f01      	lsrs	r1, r0, #28
 1004ba2:	f852 1021 	ldr.w	r1, [r2, r1, lsl #2]
 1004ba6:	6809      	ldr	r1, [r1, #0]
 1004ba8:	b282      	uxth	r2, r0
 1004baa:	f3c0 4004 	ubfx	r0, r0, #16, #5
 1004bae:	fa02 f000 	lsl.w	r0, r2, r0
 1004bb2:	4008      	ands	r0, r1
 1004bb4:	bf08      	it	eq
 1004bb6:	4770      	bxeq	lr
 1004bb8:	2001      	movs	r0, #1
 1004bba:	4770      	bx	lr
--
 1004c92:	d00c      	beq.n	0x1004cae
 1004c94:	49f9      	ldr	r1, [pc, #996]	; (0x100507c)
 1004c96:	0f02      	lsrs	r2, r0, #28
 1004c98:	f851 1022 	ldr.w	r1, [r1, r2, lsl #2]
 1004c9c:	680a      	ldr	r2, [r1, #0]
 1004c9e:	b283      	uxth	r3, r0
 1004ca0:	f3c0 4004 	ubfx	r0, r0, #16, #5
 1004ca4:	fa03 f000 	lsl.w	r0, r3, r0
 1004ca8:	4310      	orrs	r0, r2
 1004caa:	6008      	str	r0, [r1, #0]
 1004cac:	4770      	bx	lr
--
 1004cb2:	49f3      	ldr	r1, [pc, #972]	; (0x1005080)
 1004cb4:	b2c0      	uxtb	r0, r0
 1004cb6:	4419      	add	r1, r3
 1004cb8:	f001 4370 	and.w	r3, r1, #4026531840	; 0xf0000000
 1004cbc:	f3c1 0113 	ubfx	r1, r1, #0, #20
 1004cc0:	ea43 1141 	orr.w	r1, r3, r1, lsl #5
 1004cc4:	ea41 0080 	orr.w	r0, r1, r0, lsl #2
 1004cc8:	f040 7000 	orr.w	r0, r0, #33554432	; 0x2000000
 1004ccc:	2201      	movs	r2, #1
 1004cce:	6002      	str	r2, [r0, #0]
 1004cd0:	4770      	bx	lr
--
 1004cd8:	d00d      	beq.n	0x1004cf6
 1004cda:	49e8      	ldr	r1, [pc, #928]	; (0x100507c)
 1004cdc:	0f02      	lsrs	r2, r0, #28
 1004cde:	f851 1022 	ldr.w	r1, [r1, r2, lsl #2]
 1004ce2:	680a      	ldr	r2, [r1, #0]
 1004ce4:	b283      	uxth	r3, r0
 1004ce6:	f3c0 4004 	ubfx	r0, r0, #16, #5
 1004cea:	fa03 f000 	lsl.w	r0, r3, r0
 1004cee:	ea22 0000 	bic.w	r0, r2, r0
 1004cf2:	6008      	str	r0, [r1, #0]
 1004cf4:	4770      	bx	lr
--
 1004cfa:	49e1      	ldr	r1, [pc, #900]	; (0x1005080)
 1004cfc:	b2c0      	uxtb	r0, r0
 1004cfe:	4419      	add	r1, r3
 1004d00:	f001 4370 	and.w	r3, r1, #4026531840	; 0xf0000000
 1004d04:	f3c1 0113 	ubfx	r1, r1, #0, #20
 1004d08:	ea43 1141 	orr.w	r1, r3, r1, lsl #5
 1004d0c:	ea41 0080 	orr.w	r0, r1, r0, lsl #2
 1004d10:	f040 7000 	orr.w	r0, r0, #33554432	; 0x2000000
 1004d14:	2200      	movs	r2, #0
 1004d16:	6002      	str	r2, [r0, #0]
 1004d18:	4770      	bx	lr
--
 1004d20:	d00c      	beq.n	0x1004d3c
 1004d22:	49d8      	ldr	r1, [pc, #864]	; (0x1005084)
 1004d24:	0f02      	lsrs	r2, r0, #28
 1004d26:	f851 1022 	ldr.w	r1, [r1, r2, lsl #2]
 1004d2a:	680a      	ldr	r2, [r1, #0]
 1004d2c:	b283      	uxth	r3, r0
 1004d2e:	f3c0 4004 	ubfx	r0, r0, #16, #5
 1004d32:	fa03 f000 	lsl.w	r0, r3, r0
 1004d36:	4310      	orrs	r0, r2
 1004d38:	6008      	str	r0, [r1, #0]
 1004d3a:	4770      	bx	lr
--
 1004d40:	49d1      	ldr	r1, [pc, #836]	; (0x1005088)
 1004d42:	b2c0      	uxtb	r0, r0
 1004d44:	4419      	add	r1, r3
 1004d46:	f001 4370 	and.w	r3, r1, #4026531840	; 0xf0000000
 1004d4a:	f3c1 0113 	ubfx	r1, r1, #0, #20
 1004d4e:	ea43 1141 	orr.w	r1, r3, r1, lsl #5
 1004d52:	ea41 0080 	orr.w	r0, r1, r0, lsl #2
 1004d56:	f040 7000 	orr.w	r0, r0, #33554432	; 0x2000000
 1004d5a:	2201      	movs	r2, #1
 1004d5c:	6002      	str	r2, [r0, #0]
 1004d5e:	4770      	bx	lr
--
 1004d66:	d00d      	beq.n	0x1004d84
 1004d68:	49c6      	ldr	r1, [pc, #792]	; (0x1005084)
 1004d6a:	0f02      	lsrs	r2, r0, #28
 1004d6c:	f851 1022 	ldr.w	r1, [r1, r2, lsl #2]
 1004d70:	680a      	ldr	r2, [r1, #0]
 1004d72:	b283      	uxth	r3, r0
 1004d74:	f3c0 4004 	ubfx	r0, r0, #16, #5
 1004d78:	fa03 f000 	lsl.w	r0, r3, r0
 1004d7c:	ea22 0000 	bic.w	r0, r2, r0
 1004d80:	6008      	str	r0, [r1, #0]
 1004d82:	4770      	bx	lr
--
 1004d88:	49bf      	ldr	r1, [pc, #764]	; (0x1005088)
 1004d8a:	b2c0      	uxtb	r0, r0
 1004d8c:	4419      	add	r1, r3
 1004d8e:	f001 4370 	and.w	r3, r1, #4026531840	; 0xf0000000
 1004d92:	f3c1 0113 	ubfx	r1, r1, #0, #20
 1004d96:	ea43 1141 	orr.w	r1, r3, r1, lsl #5
 1004d9a:	ea41 0080 	orr.w	r0, r1, r0, lsl #2
 1004d9e:	f040 7000 	orr.w	r0, r0, #33554432	; 0x2000000
 1004da2:	2200      	movs	r2, #0
 1004da4:	6002      	str	r2, [r0, #0]
 1004da6:	4770      	bx	lr
--
 1004dae:	d00c      	beq.n	0x1004dca
 1004db0:	49b6      	ldr	r1, [pc, #728]	; (0x100508c)
 1004db2:	0f02      	lsrs	r2, r0, #28
 1004db4:	f851 1022 	ldr.w	r1, [r1, r2, lsl #2]
 1004db8:	680a      	ldr	r2, [r1, #0]
 1004dba:	b283      	uxth	r3, r0
 1004dbc:	f3c0 4004 	ubfx	r0, r0, #16, #5
 1004dc0:	fa03 f000 	lsl.w	r0, r3, r0
 1004dc4:	4310      	orrs	r0, r2
 1004dc6:	6008      	str	r0, [r1, #0]
 1004dc8:	4770      	bx	lr
--
 1004dce:	49b0      	ldr	r1, [pc, #704]	; (0x1005090)
 1004dd0:	b2c0      	uxtb	r0, r0
 1004dd2:	4419      	add	r1, r3
 1004dd4:	f001 4370 	and.w	r3, r1, #4026531840	; 0xf0000000
 1004dd8:	f3c1 0113 	ubfx	r1, r1, #0, #20
 1004ddc:	ea43 1141 	orr.w	r1, r3, r1, lsl #5
 1004de0:	ea41 0080 	orr.w	r0, r1, r0, lsl #2
 1004de4:	f040 7000 	orr.w	r0, r0, #33554432	; 0x2000000
 1004de8:	2201      	movs	r2, #1
 1004dea:	6002      	str	r2, [r0, #0]
 1004dec:	4770      	bx	lr
--
 1004df4:	d00d      	beq.n	0x1004e12
 1004df6:	49a5      	ldr	r1, [pc, #660]	; (0x100508c)
 1004df8:	0f02      	lsrs	r2, r0, #28
 1004dfa:	f851 1022 	ldr.w	r1, [r1, r2, lsl #2]
 1004dfe:	680a      	ldr	r2, [r1, #0]
 1004e00:	b283      	uxth	r3, r0
 1004e02:	f3c0 4004 	ubfx	r0, r0, #16, #5
 1004e06:	fa03 f000 	lsl.w	r0, r3, r0
 1004e0a:	ea22 0000 	bic.w	r0, r2, r0
 1004e0e:	6008      	str	r0, [r1, #0]
 1004e10:	4770      	bx	lr
--
 1004e16:	499e      	ldr	r1, [pc, #632]	; (0x1005090)
 1004e18:	b2c0      	uxtb	r0, r0
 1004e1a:	4419      	add	r1, r3
 1004e1c:	f001 4370 	and.w	r3, r1, #4026531840	; 0xf0000000
 1004e20:	f3c1 0113 	ubfx	r1, r1, #0, #20
 1004e24:	ea43 1141 	orr.w	r1, r3, r1, lsl #5
 1004e28:	ea41 0080 	orr.w	r0, r1, r0, lsl #2
 1004e2c:	f040 7000 	orr.w	r0, r0, #33554432	; 0x2000000
 1004e30:	2200      	movs	r2, #0
 1004e32:	6002      	str	r2, [r0, #0]
 1004e34:	4770      	bx	lr
--
 1004e36:	4997      	ldr	r1, [pc, #604]	; (0x1005094)
 1004e38:	2800      	cmp	r0, #0
 1004e3a:	6e08      	ldr	r0, [r1, #96]	; 0x60
 1004e3c:	bf14      	ite	ne
 1004e3e:	f040 6000 	orrne.w	r0, r0, #134217728	; 0x8000000
 1004e42:	f020 6000 	biceq.w	r0, r0, #134217728	; 0x8000000
 1004e46:	6608      	str	r0, [r1, #96]	; 0x60
 1004e48:	4770      	bx	lr
--
 1004e4a:	4992      	ldr	r1, [pc, #584]	; (0x1005094)
 1004e4c:	6989      	ldr	r1, [r1, #24]
 1004e4e:	4008      	ands	r0, r1
 1004e50:	bf18      	it	ne
 1004e52:	2001      	movne	r0, #1
 1004e54:	4770      	bx	lr
--
 1004e7a:	f8d1 0154 	ldr.w	r0, [r1, #340]	; 0x154
 1004e7e:	f410 7f40 	tst.w	r0, #768	; 0x300
 1004e82:	d0fa      	beq.n	0x1004e7a
 1004e84:	f8d1 0154 	ldr.w	r0, [r1, #340]	; 0x154
 1004e88:	f400 7040 	and.w	r0, r0, #768	; 0x300
 1004e8c:	f5b0 7f80 	cmp.w	r0, #256	; 0x100
 1004e90:	bf1c      	itt	ne
 1004e92:	2000      	movne	r0, #0
 1004e94:	4770      	bxne	lr
 1004e96:	2001      	movs	r0, #1
 1004e98:	4770      	bx	lr
--
 1004e9a:	487e      	ldr	r0, [pc, #504]	; (0x1005094)
 1004e9c:	6e01      	ldr	r1, [r0, #96]	; 0x60
 1004e9e:	f411 1f80 	tst.w	r1, #1048576	; 0x100000
 1004ea2:	bf0e      	itee	eq
 1004ea4:	2000      	moveq	r0, #0
 1004ea6:	6e00      	ldrne	r0, [r0, #96]	; 0x60
 1004ea8:	f400 10f0 	andne.w	r0, r0, #1966080	; 0x1e0000
 1004eac:	4770      	bx	lr
--
 1004eae:	4979      	ldr	r1, [pc, #484]	; (0x1005094)
 1004eb0:	6e0a      	ldr	r2, [r1, #96]	; 0x60
 1004eb2:	f422 12f0 	bic.w	r2, r2, #1966080	; 0x1e0000
 1004eb6:	4310      	orrs	r0, r2
 1004eb8:	6608      	str	r0, [r1, #96]	; 0x60
 1004eba:	4770      	bx	lr
--
 1004ebc:	4978      	ldr	r1, [pc, #480]	; (0x10050a0)
 1004ebe:	4877      	ldr	r0, [pc, #476]	; (0x100509c)
 1004ec0:	6008      	str	r0, [r1, #0]
 1004ec2:	e7fe      	b.n	0x1004ec2
 1004ec4:	4973      	ldr	r1, [pc, #460]	; (0x1005094)
 1004ec6:	6dca      	ldr	r2, [r1, #92]	; 0x5c
 1004ec8:	ea22 0000 	bic.w	r0, r2, r0
 1004ecc:	65c8      	str	r0, [r1, #92]	; 0x5c
 1004ece:	4770      	bx	lr
--
 1004ed0:	4870      	ldr	r0, [pc, #448]	; (0x1005094)
 1004ed2:	6dc0      	ldr	r0, [r0, #92]	; 0x5c
 1004ed4:	4770      	bx	lr
--
 1004ed6:	f002 bb6d 	b.w	0x10075b4
 1004eda:	4972      	ldr	r1, [pc, #456]	; (0x10050a4)
 1004edc:	6008      	str	r0, [r1, #0]
 1004ede:	4770      	bx	lr
--
 1004ee0:	486c      	ldr	r0, [pc, #432]	; (0x1005094)
 1004ee2:	6880      	ldr	r0, [r0, #8]
 1004ee4:	f420 407f 	bic.w	r0, r0, #65280	; 0xff00
 1004ee8:	0a00      	lsrs	r0, r0, #8
 1004eea:	f500 7080 	add.w	r0, r0, #256	; 0x100
 1004eee:	4770      	bx	lr
--
 1004ef0:	4868      	ldr	r0, [pc, #416]	; (0x1005094)
 1004ef2:	6f01      	ldr	r1, [r0, #112]	; 0x70
 1004ef4:	f441 4180 	orr.w	r1, r1, #16384	; 0x4000
 1004ef8:	6701      	str	r1, [r0, #112]	; 0x70
 1004efa:	4770      	bx	lr
--
 1004efc:	4865      	ldr	r0, [pc, #404]	; (0x1005094)
 1004efe:	6f01      	ldr	r1, [r0, #112]	; 0x70
 1004f00:	f421 4180 	bic.w	r1, r1, #16384	; 0x4000
 1004f04:	6701      	str	r1, [r0, #112]	; 0x70
 1004f06:	4770      	bx	lr
--
 1004f08:	4967      	ldr	r1, [pc, #412]	; (0x10050a8)
 1004f0a:	60c8      	str	r0, [r1, #12]
 1004f0c:	4770      	bx	lr
--
 1004f0e:	4966      	ldr	r1, [pc, #408]	; (0x10050a8)
 1004f10:	684a      	ldr	r2, [r1, #4]
 1004f12:	ea22 0000 	bic.w	r0, r2, r0
 1004f16:	6048      	str	r0, [r1, #4]
 1004f18:	4770      	bx	lr
--
 1004f1a:	4963      	ldr	r1, [pc, #396]	; (0x10050a8)
 1004f1c:	684a      	ldr	r2, [r1, #4]
 1004f1e:	4310      	orrs	r0, r2
 1004f20:	6048      	str	r0, [r1, #4]
 1004f22:	4770      	bx	lr
--
 1004f24:	4960      	ldr	r1, [pc, #384]	; (0x10050a8)
 1004f26:	2800      	cmp	r0, #0
 1004f28:	bf14      	ite	ne
 1004f2a:	6888      	ldrne	r0, [r1, #8]
 1004f2c:	6808      	ldreq	r0, [r1, #0]
 1004f2e:	4770      	bx	lr
--
 1004f30:	f04f 20e0 	mov.w	r0, #3758153728	; 0xe000e000
 1004f34:	6901      	ldr	r1, [r0, #16]
 1004f36:	f041 0105 	orr.w	r1, r1, #5
 1004f3a:	6101      	str	r1, [r0, #16]
 1004f3c:	4770      	bx	lr
--
 1004f3e:	f04f 20e0 	mov.w	r0, #3758153728	; 0xe000e000
 1004f42:	6901      	ldr	r1, [r0, #16]
 1004f44:	f021 0101 	bic.w	r1, r1, #1
 1004f48:	6101      	str	r1, [r0, #16]
 1004f4a:	4770      	bx	lr
--
 1004f4c:	f04f 20e0 	mov.w	r0, #3758153728	; 0xe000e000
 1004f50:	6901      	ldr	r1, [r0, #16]
 1004f52:	f041 0102 	orr.w	r1, r1, #2
 1004f56:	6101      	str	r1, [r0, #16]
 1004f58:	4770      	bx	lr
--
 1004f5a:	f04f 20e0 	mov.w	r0, #3758153728	; 0xe000e000
 1004f5e:	6901      	ldr	r1, [r0, #16]
 1004f60:	f021 0102 	bic.w	r1, r1, #2
 1004f64:	6101      	str	r1, [r0, #16]
 1004f66:	4770      	bx	lr
--
 1004f68:	f04f 21e0 	mov.w	r1, #3758153728	; 0xe000e000
 1004f6c:	1e40      	subs	r0, r0, #1
 1004f6e:	6148      	str	r0, [r1, #20]
 1004f70:	4770      	bx	lr
--
 1004f72:	f04f 20e0 	mov.w	r0, #3758153728	; 0xe000e000
 1004f76:	6940      	ldr	r0, [r0, #20]
 1004f78:	1c40      	adds	r0, r0, #1
 1004f7a:	4770      	bx	lr
--
 1004f7c:	f04f 20e0 	mov.w	r0, #3758153728	; 0xe000e000
 1004f80:	6980      	ldr	r0, [r0, #24]
 1004f82:	4770      	bx	lr
--
 1004f84:	68c2      	ldr	r2, [r0, #12]
 1004f86:	f240 1301 	movw	r3, #257	; 0x101
 1004f8a:	4019      	ands	r1, r3
 1004f8c:	4311      	orrs	r1, r2
 1004f8e:	60c1      	str	r1, [r0, #12]
 1004f90:	4770      	bx	lr
--
 1004f92:	68c2      	ldr	r2, [r0, #12]
 1004f94:	f240 1301 	movw	r3, #257	; 0x101
 1004f98:	4019      	ands	r1, r3
 1004f9a:	ea22 0101 	bic.w	r1, r2, r1
 1004f9e:	60c1      	str	r1, [r0, #12]
 1004fa0:	4770      	bx	lr
--
 1004fa8:	f422 7280 	bic.w	r2, r2, #256	; 0x100
 1004fac:	60c2      	str	r2, [r0, #12]
 1004fae:	0e0a      	lsrs	r2, r1, #24
 1004fb0:	6002      	str	r2, [r0, #0]
 1004fb2:	b2ca      	uxtb	r2, r1
 1004fb4:	f442 7200 	orr.w	r2, r2, #512	; 0x200
 1004fb8:	6042      	str	r2, [r0, #4]
 1004fba:	f3c1 2107 	ubfx	r1, r1, #8, #8
 1004fbe:	f441 7100 	orr.w	r1, r1, #512	; 0x200
 1004fc2:	6081      	str	r1, [r0, #8]
 1004fc4:	4770      	bx	lr
--
 1004fc6:	f244 0340 	movw	r3, #16448	; 0x4040
 1004fca:	4019      	ands	r1, r3
 1004fcc:	2a00      	cmp	r2, #0
 1004fce:	68c2      	ldr	r2, [r0, #12]
 1004fd0:	bf14      	ite	ne
 1004fd2:	4311      	orrne	r1, r2
 1004fd4:	ea22 0101 	biceq.w	r1, r2, r1
 1004fd8:	60c1      	str	r1, [r0, #12]
 1004fda:	4770      	bx	lr
--
 1004fdc:	f242 0320 	movw	r3, #8224	; 0x2020
 1004fe0:	4019      	ands	r1, r3
 1004fe2:	2a00      	cmp	r2, #0
 1004fe4:	68c2      	ldr	r2, [r0, #12]
 1004fe6:	bf14      	ite	ne
 1004fe8:	4311      	orrne	r1, r2
 1004fea:	ea22 0101 	biceq.w	r1, r2, r1
 1004fee:	60c1      	str	r1, [r0, #12]
 1004ff0:	4770      	bx	lr
--
 1004ff2:	f640 430c 	movw	r3, #3084	; 0xc0c
 1004ff6:	4019      	ands	r1, r3
 1004ff8:	68c3      	ldr	r3, [r0, #12]
 1004ffa:	438b      	bics	r3, r1
 1004ffc:	4011      	ands	r1, r2
 1004ffe:	4319      	orrs	r1, r3
 1005000:	60c1      	str	r1, [r0, #12]
 1005002:	4770      	bx	lr
--
 1005004:	f240 2302 	movw	r3, #514	; 0x202
 1005008:	4019      	ands	r1, r3
 100500a:	2a00      	cmp	r2, #0
 100500c:	68c2      	ldr	r2, [r0, #12]
 100500e:	bf14      	ite	ne
 1005010:	4311      	orrne	r1, r2
 1005012:	ea22 0101 	biceq.w	r1, r2, r1
 1005016:	60c1      	str	r1, [r0, #12]
 1005018:	4770      	bx	lr
--
 100502e:	6043      	str	r3, [r0, #4]
 1005030:	f411 4f7f 	tst.w	r1, #65280	; 0xff00
 1005034:	bf08      	it	eq
 1005036:	4770      	bxeq	lr
 1005038:	2a00      	cmp	r2, #0
 100503a:	6881      	ldr	r1, [r0, #8]
 100503c:	bf14      	ite	ne
 100503e:	f041 0140 	orrne.w	r1, r1, #64	; 0x40
 1005042:	f021 0140 	biceq.w	r1, r1, #64	; 0x40
 1005046:	6081      	str	r1, [r0, #8]
 1005048:	4770      	bx	lr
--
 100504a:	68c1      	ldr	r1, [r0, #12]
 100504c:	f041 0110 	orr.w	r1, r1, #16
 1005050:	60c1      	str	r1, [r0, #12]
 1005052:	4770      	bx	lr
--
 1005054:	68c1      	ldr	r1, [r0, #12]
 1005056:	f021 0110 	bic.w	r1, r1, #16
 100505a:	60c1      	str	r1, [r0, #12]
 100505c:	4770      	bx	lr
--
 100505e:	f011 0fff 	tst.w	r1, #255	; 0xff
 1005062:	bf18      	it	ne
 1005064:	6382      	strne	r2, [r0, #56]	; 0x38
 1005066:	f411 4f7f 	tst.w	r1, #65280	; 0xff00
 100506a:	bf18      	it	ne
 100506c:	63c2      	strne	r2, [r0, #60]	; 0x3c
 100506e:	4770      	bx	lr
--
 1005070:	29ff      	cmp	r1, #255	; 0xff
 1005072:	bf0c      	ite	eq
 1005074:	6b80      	ldreq	r0, [r0, #56]	; 0x38
 1005076:	6bc0      	ldrne	r0, [r0, #60]	; 0x3c
 1005078:	4770      	bx	lr
--
 10050a4:	e188      	b.n	0x10053b8
 10050a6:	400f      	ands	r7, r1
 10050a8:	9000      	str	r0, [sp, #0]
 10050aa:	400f      	ands	r7, r1
 10050ac:	f011 0fff 	tst.w	r1, #255	; 0xff
 10050b0:	bf18      	it	ne
 10050b2:	6402      	strne	r2, [r0, #64]	; 0x40
 10050b4:	f411 4f7f 	tst.w	r1, #65280	; 0xff00
 10050b8:	bf18      	it	ne
 10050ba:	6442      	strne	r2, [r0, #68]	; 0x44
 10050bc:	4770      	bx	lr
--
 10050be:	29ff      	cmp	r1, #255	; 0xff
 10050c0:	bf0c      	ite	eq
 10050c2:	6c00      	ldreq	r0, [r0, #64]	; 0x40
 10050c4:	6c40      	ldrne	r0, [r0, #68]	; 0x44
 10050c6:	4770      	bx	lr
--
 10050c8:	f011 0fff 	tst.w	r1, #255	; 0xff
 10050cc:	bf18      	it	ne
 10050ce:	6282      	strne	r2, [r0, #40]	; 0x28
 10050d0:	f411 4f7f 	tst.w	r1, #65280	; 0xff00
 10050d4:	bf18      	it	ne
 10050d6:	62c2      	strne	r2, [r0, #44]	; 0x2c
 10050d8:	4770      	bx	lr
--
 10050da:	29ff      	cmp	r1, #255	; 0xff
 10050dc:	bf0c      	ite	eq
 10050de:	6a80      	ldreq	r0, [r0, #40]	; 0x28
 10050e0:	6ac0      	ldrne	r0, [r0, #44]	; 0x2c
 10050e2:	4770      	bx	lr
--
 10050e4:	29ff      	cmp	r1, #255	; 0xff
 10050e6:	bf0c      	ite	eq
 10050e8:	6c80      	ldreq	r0, [r0, #72]	; 0x48
 10050ea:	6cc0      	ldrne	r0, [r0, #76]	; 0x4c
 10050ec:	4770      	bx	lr
--
 10050ee:	f011 0fff 	tst.w	r1, #255	; 0xff
 10050f2:	bf18      	it	ne
 10050f4:	6302      	strne	r2, [r0, #48]	; 0x30
 10050f6:	f411 4f7f 	tst.w	r1, #65280	; 0xff00
 10050fa:	bf18      	it	ne
 10050fc:	6342      	strne	r2, [r0, #52]	; 0x34
 10050fe:	4770      	bx	lr
--
 1005100:	29ff      	cmp	r1, #255	; 0xff
 1005102:	bf0c      	ite	eq
 1005104:	6b00      	ldreq	r0, [r0, #48]	; 0x30
 1005106:	6b40      	ldrne	r0, [r0, #52]	; 0x34
 1005108:	4770      	bx	lr
--
 100510a:	6982      	ldr	r2, [r0, #24]
 100510c:	4311      	orrs	r1, r2
 100510e:	6181      	str	r1, [r0, #24]
 1005110:	4770      	bx	lr
--
 1005112:	6982      	ldr	r2, [r0, #24]
 1005114:	ea22 0101 	bic.w	r1, r2, r1
 1005118:	6181      	str	r1, [r0, #24]
 100511a:	4770      	bx	lr
--
 100511c:	2900      	cmp	r1, #0
 100511e:	bf14      	ite	ne
 1005120:	6a00      	ldrne	r0, [r0, #32]
 1005122:	69c0      	ldreq	r0, [r0, #28]
 1005124:	4770      	bx	lr
--
 1005126:	6241      	str	r1, [r0, #36]	; 0x24
 1005128:	4770      	bx	lr
--
 100512a:	62c3      	str	r3, [r0, #44]	; 0x2c
 100512c:	6282      	str	r2, [r0, #40]	; 0x28
 100512e:	4770      	bx	lr
--
 1005130:	6ac1      	ldr	r1, [r0, #44]	; 0x2c
 1005132:	6a83      	ldr	r3, [r0, #40]	; 0x28
 1005134:	6ac2      	ldr	r2, [r0, #44]	; 0x2c
 1005136:	4291      	cmp	r1, r2
 1005138:	d1fa      	bne.n	0x1005130
 100513a:	4618      	mov	r0, r3
 100513c:	4770      	bx	lr
--
 100513e:	6cc1      	ldr	r1, [r0, #76]	; 0x4c
 1005140:	6c83      	ldr	r3, [r0, #72]	; 0x48
 1005142:	6cc2      	ldr	r2, [r0, #76]	; 0x4c
 1005144:	4291      	cmp	r1, r2
 1005146:	d1fa      	bne.n	0x100513e
 1005148:	4618      	mov	r0, r3
 100514a:	4770      	bx	lr
--
 100514c:	6343      	str	r3, [r0, #52]	; 0x34
 100514e:	6302      	str	r2, [r0, #48]	; 0x30
 1005150:	4770      	bx	lr
--
 1005152:	6b41      	ldr	r1, [r0, #52]	; 0x34
 1005154:	6b03      	ldr	r3, [r0, #48]	; 0x30
 1005156:	6b42      	ldr	r2, [r0, #52]	; 0x34
 1005158:	4291      	cmp	r1, r2
 100515a:	d1fa      	bne.n	0x1005152
 100515c:	4618      	mov	r0, r3
 100515e:	4770      	bx	lr
--
 1005160:	6ac2      	ldr	r2, [r0, #44]	; 0x2c
 1005162:	f022 0286 	bic.w	r2, r2, #134	; 0x86
 1005166:	4311      	orrs	r1, r2
 1005168:	62c1      	str	r1, [r0, #44]	; 0x2c
 100516a:	4770      	bx	lr
--
 100516c:	6ac0      	ldr	r0, [r0, #44]	; 0x2c
 100516e:	f000 0086 	and.w	r0, r0, #134	; 0x86
 1005172:	4770      	bx	lr
--
 1005174:	4311      	orrs	r1, r2
 1005176:	6341      	str	r1, [r0, #52]	; 0x34
 1005178:	4770      	bx	lr
--
 100517a:	6b40      	ldr	r0, [r0, #52]	; 0x34
 100517c:	f000 0307 	and.w	r3, r0, #7
 1005180:	f000 0038 	and.w	r0, r0, #56	; 0x38
 1005184:	600b      	str	r3, [r1, #0]
 1005186:	6010      	str	r0, [r2, #0]
 1005188:	4770      	bx	lr
--
 100518a:	6ac1      	ldr	r1, [r0, #44]	; 0x2c
 100518c:	f041 0110 	orr.w	r1, r1, #16
 1005190:	62c1      	str	r1, [r0, #44]	; 0x2c
 1005192:	6b01      	ldr	r1, [r0, #48]	; 0x30
 1005194:	f240 3201 	movw	r2, #769	; 0x301
 1005198:	4311      	orrs	r1, r2
 100519a:	6301      	str	r1, [r0, #48]	; 0x30
 100519c:	4770      	bx	lr
--
 100519e:	6981      	ldr	r1, [r0, #24]
 10051a0:	f011 0f08 	tst.w	r1, #8
 10051a4:	d1fb      	bne.n	0x100519e
 10051a6:	6ac1      	ldr	r1, [r0, #44]	; 0x2c
 10051a8:	f021 0110 	bic.w	r1, r1, #16
 10051ac:	62c1      	str	r1, [r0, #44]	; 0x2c
 10051ae:	6b01      	ldr	r1, [r0, #48]	; 0x30
 10051b0:	f021 0101 	bic.w	r1, r1, #1
 10051b4:	f421 7140 	bic.w	r1, r1, #768	; 0x300
 10051b8:	6301      	str	r1, [r0, #48]	; 0x30
 10051ba:	4770      	bx	lr
--
 100521c:	6011      	str	r1, [r2, #0]
 100521e:	f8d0 c030 	ldr.w	ip, [r0, #48]	; 0x30
 1005222:	f01c 0f20 	tst.w	ip, #32
 1005226:	bf1c      	itt	ne
 1005228:	0049      	lslne	r1, r1, #1
 100522a:	6011      	strne	r1, [r2, #0]
 100522c:	6ac0      	ldr	r0, [r0, #44]	; 0x2c
 100522e:	f000 00ee 	and.w	r0, r0, #238	; 0xee
 1005232:	6018      	str	r0, [r3, #0]
 1005234:	bc10      	pop	{r4}
 1005236:	4770      	bx	lr
--
 1005238:	2900      	cmp	r1, #0
 100523a:	6b01      	ldr	r1, [r0, #48]	; 0x30
 100523c:	bf14      	ite	ne
 100523e:	f041 0106 	orrne.w	r1, r1, #6
 1005242:	f041 0102 	orreq.w	r1, r1, #2
 1005246:	6301      	str	r1, [r0, #48]	; 0x30
 1005248:	4770      	bx	lr
--
 100524a:	6b01      	ldr	r1, [r0, #48]	; 0x30
 100524c:	f021 0106 	bic.w	r1, r1, #6
 1005250:	6301      	str	r1, [r0, #48]	; 0x30
 1005252:	4770      	bx	lr
--
 1005254:	6980      	ldr	r0, [r0, #24]
 1005256:	2101      	movs	r1, #1
 1005258:	ea21 1010 	bic.w	r0, r1, r0, lsr #4
 100525c:	4770      	bx	lr
--
 100525e:	6980      	ldr	r0, [r0, #24]
 1005260:	2101      	movs	r1, #1
 1005262:	ea21 1050 	bic.w	r0, r1, r0, lsr #5
 1005266:	4770      	bx	lr
--
 1005268:	6981      	ldr	r1, [r0, #24]
 100526a:	f011 0f10 	tst.w	r1, #16
 100526e:	bf0c      	ite	eq
 1005270:	6800      	ldreq	r0, [r0, #0]
 1005272:	f04f 30ff 	movne.w	r0, #4294967295	; 0xffffffff
 1005276:	4770      	bx	lr
--
 1005278:	6981      	ldr	r1, [r0, #24]
 100527a:	f011 0f10 	tst.w	r1, #16
 100527e:	d1fb      	bne.n	0x1005278
 1005280:	6800      	ldr	r0, [r0, #0]
 1005282:	4770      	bx	lr
--
 1005284:	6982      	ldr	r2, [r0, #24]
 1005286:	f012 0f20 	tst.w	r2, #32
 100528a:	bf06      	itte	eq
 100528c:	6001      	streq	r1, [r0, #0]
 100528e:	2001      	moveq	r0, #1
 1005290:	2000      	movne	r0, #0
 1005292:	4770      	bx	lr
--
 1005294:	6982      	ldr	r2, [r0, #24]
 1005296:	f012 0f20 	tst.w	r2, #32
 100529a:	d1fb      	bne.n	0x1005294
 100529c:	6001      	str	r1, [r0, #0]
 100529e:	4770      	bx	lr
--
 10052a0:	2900      	cmp	r1, #0
 10052a2:	6ac1      	ldr	r1, [r0, #44]	; 0x2c
 10052a4:	bf14      	ite	ne
 10052a6:	f041 0101 	orrne.w	r1, r1, #1
 10052aa:	f021 0101 	biceq.w	r1, r1, #1
 10052ae:	62c1      	str	r1, [r0, #44]	; 0x2c
 10052b0:	4770      	bx	lr
--
 10052b2:	6b82      	ldr	r2, [r0, #56]	; 0x38
 10052b4:	4311      	orrs	r1, r2
 10052b6:	6381      	str	r1, [r0, #56]	; 0x38
 10052b8:	4770      	bx	lr
--
 10052ba:	6b82      	ldr	r2, [r0, #56]	; 0x38
 10052bc:	ea22 0101 	bic.w	r1, r2, r1
 10052c0:	6381      	str	r1, [r0, #56]	; 0x38
 10052c2:	4770      	bx	lr
--
 10052c4:	2900      	cmp	r1, #0
 10052c6:	bf14      	ite	ne
 10052c8:	6c00      	ldrne	r0, [r0, #64]	; 0x40
 10052ca:	6bc0      	ldreq	r0, [r0, #60]	; 0x3c
 10052cc:	4770      	bx	lr
--
 10052ce:	6441      	str	r1, [r0, #68]	; 0x44
 10052d0:	4770      	bx	lr
--
 10052d2:	6c82      	ldr	r2, [r0, #72]	; 0x48
 10052d4:	4311      	orrs	r1, r2
 10052d6:	6481      	str	r1, [r0, #72]	; 0x48
 10052d8:	4770      	bx	lr
--
 10052da:	6c82      	ldr	r2, [r0, #72]	; 0x48
 10052dc:	ea22 0101 	bic.w	r1, r2, r1
 10052e0:	6481      	str	r1, [r0, #72]	; 0x48
 10052e2:	4770      	bx	lr
--
 10052e4:	6ac1      	ldr	r1, [r0, #44]	; 0x2c
 10052e6:	f041 0110 	orr.w	r1, r1, #16
 10052ea:	62c1      	str	r1, [r0, #44]	; 0x2c
 10052ec:	4770      	bx	lr
--
 10052ee:	6ac1      	ldr	r1, [r0, #44]	; 0x2c
 10052f0:	f021 0110 	bic.w	r1, r1, #16
 10052f4:	62c1      	str	r1, [r0, #44]	; 0x2c
 10052f6:	4770      	bx	lr
--
 10052f8:	6b02      	ldr	r2, [r0, #48]	; 0x30
 10052fa:	f022 0210 	bic.w	r2, r2, #16
 10052fe:	4311      	orrs	r1, r2
 1005300:	6301      	str	r1, [r0, #48]	; 0x30
 1005302:	4770      	bx	lr
--
 1005304:	6b00      	ldr	r0, [r0, #48]	; 0x30
 1005306:	f000 0010 	and.w	r0, r0, #16
 100530a:	4770      	bx	lr
--
 100530c:	6980      	ldr	r0, [r0, #24]
 100530e:	f3c0 00c0 	ubfx	r0, r0, #3, #1
 1005312:	4770      	bx	lr
--
 1005314:	6840      	ldr	r0, [r0, #4]
 1005316:	f000 000f 	and.w	r0, r0, #15
 100531a:	4770      	bx	lr
--
 100531c:	2100      	movs	r1, #0
 100531e:	6041      	str	r1, [r0, #4]
 1005320:	4770      	bx	lr
--
 1005322:	f8c0 1fc8 	str.w	r1, [r0, #4040]	; 0xfc8
 1005326:	4770      	bx	lr
--
 1005328:	f8d0 0fc8 	ldr.w	r0, [r0, #4040]	; 0xfc8
 100532c:	4770      	bx	lr
--
 100532e:	f8d0 10a4 	ldr.w	r1, [r0, #164]	; 0xa4
 1005332:	f441 4100 	orr.w	r1, r1, #32768	; 0x8000
 1005336:	f8c0 10a4 	str.w	r1, [r0, #164]	; 0xa4
 100533a:	4770      	bx	lr
--
 100533c:	f8d0 10a4 	ldr.w	r1, [r0, #164]	; 0xa4
 1005340:	f421 4100 	bic.w	r1, r1, #32768	; 0x8000
 1005344:	f8c0 10a4 	str.w	r1, [r0, #164]	; 0xa4
 1005348:	4770      	bx	lr
--
 100534a:	f8c0 10a4 	str.w	r1, [r0, #164]	; 0xa4
 100534e:	f8c0 20a8 	str.w	r2, [r0, #168]	; 0xa8
 1005352:	4770      	bx	lr
--
 100535a:	d1fb      	bne.n	0x1005354
 100535c:	6ac2      	ldr	r2, [r0, #44]	; 0x2c
 100535e:	f022 0304 	bic.w	r3, r2, #4
 1005362:	f043 0382 	orr.w	r3, r3, #130	; 0x82
 1005366:	62c3      	str	r3, [r0, #44]	; 0x2c
 1005368:	6001      	str	r1, [r0, #0]
 100536a:	6981      	ldr	r1, [r0, #24]
 100536c:	f011 0f88 	tst.w	r1, #136	; 0x88
 1005370:	d1fb      	bne.n	0x100536a
 1005372:	62c2      	str	r2, [r0, #44]	; 0x2c
 1005374:	4770      	bx	lr
--
 1005376:	49fc      	ldr	r1, [pc, #1008]	; (0x1005768)
 1005378:	2001      	movs	r0, #1
 100537a:	6048      	str	r0, [r1, #4]
 100537c:	4770      	bx	lr
--
 100537e:	49fa      	ldr	r1, [pc, #1000]	; (0x1005768)
 1005380:	2000      	movs	r0, #0
 1005382:	6048      	str	r0, [r1, #4]
 1005384:	4770      	bx	lr
--
 1005386:	48f8      	ldr	r0, [pc, #992]	; (0x1005768)
 1005388:	6cc0      	ldr	r0, [r0, #76]	; 0x4c
 100538a:	4770      	bx	lr
--
 100538c:	49f6      	ldr	r1, [pc, #984]	; (0x1005768)
 100538e:	2001      	movs	r0, #1
 1005390:	64c8      	str	r0, [r1, #76]	; 0x4c
 1005392:	4770      	bx	lr
--
 1005394:	f000 001f 	and.w	r0, r0, #31
 1005398:	2101      	movs	r1, #1
 100539a:	fa01 f000 	lsl.w	r0, r1, r0
 100539e:	49f2      	ldr	r1, [pc, #968]	; (0x1005768)
 10053a0:	6288      	str	r0, [r1, #40]	; 0x28
 10053a2:	4770      	bx	lr
--
 10053a4:	f000 001f 	and.w	r0, r0, #31
 10053a8:	2101      	movs	r1, #1
 10053aa:	fa01 f000 	lsl.w	r0, r1, r0
 10053ae:	49ee      	ldr	r1, [pc, #952]	; (0x1005768)
 10053b0:	62c8      	str	r0, [r1, #44]	; 0x2c
 10053b2:	4770      	bx	lr
--
 10053b4:	49ec      	ldr	r1, [pc, #944]	; (0x1005768)
 10053b6:	6a89      	ldr	r1, [r1, #40]	; 0x28
 10053b8:	f000 001f 	and.w	r0, r0, #31
 10053bc:	2201      	movs	r2, #1
 10053be:	fa02 f000 	lsl.w	r0, r2, r0
 10053c2:	4008      	ands	r0, r1
 10053c4:	bf18      	it	ne
 10053c6:	2001      	movne	r0, #1
 10053c8:	4770      	bx	lr
--
 10053ca:	49e7      	ldr	r1, [pc, #924]	; (0x1005768)
 10053cc:	6088      	str	r0, [r1, #8]
 10053ce:	4770      	bx	lr
--
 10053d0:	48e5      	ldr	r0, [pc, #916]	; (0x1005768)
 10053d2:	6880      	ldr	r0, [r0, #8]
 10053d4:	4770      	bx	lr
--
 10053d6:	48e4      	ldr	r0, [pc, #912]	; (0x1005768)
 10053d8:	68c0      	ldr	r0, [r0, #12]
 10053da:	4770      	bx	lr
--
 10053dc:	f000 001f 	and.w	r0, r0, #31
 10053e0:	2101      	movs	r1, #1
 10053e2:	fa01 f000 	lsl.w	r0, r1, r0
 10053e6:	49e0      	ldr	r1, [pc, #896]	; (0x1005768)
 10053e8:	6148      	str	r0, [r1, #20]
 10053ea:	4770      	bx	lr
--
 100540a:	fa02 fc00 	lslne.w	ip, r2, r0
 100540e:	f8c3 c030 	strne.w	ip, [r3, #48]	; 0x30
 1005412:	f011 0f04 	tst.w	r1, #4
 1005416:	bf1c      	itt	ne
 1005418:	fa02 fc00 	lslne.w	ip, r2, r0
 100541c:	f8c3 c038 	strne.w	ip, [r3, #56]	; 0x38
 1005420:	f011 0f08 	tst.w	r1, #8
 1005424:	bf1c      	itt	ne
 1005426:	fa02 f000 	lslne.w	r0, r2, r0
 100542a:	6218      	strne	r0, [r3, #32]
 100542c:	4770      	bx	lr
--
 100544c:	fa02 fc00 	lslne.w	ip, r2, r0
 1005450:	f8c3 c034 	strne.w	ip, [r3, #52]	; 0x34
 1005454:	f011 0f04 	tst.w	r1, #4
 1005458:	bf1c      	itt	ne
 100545a:	fa02 fc00 	lslne.w	ip, r2, r0
 100545e:	f8c3 c03c 	strne.w	ip, [r3, #60]	; 0x3c
 1005462:	f011 0f08 	tst.w	r1, #8
 1005466:	bf1c      	itt	ne
 1005468:	fa02 f000 	lslne.w	r0, r2, r0
 100546c:	6258      	strne	r0, [r3, #36]	; 0x24
 100546e:	4770      	bx	lr
--
 1005490:	bf18      	it	ne
 1005492:	f040 0002 	orrne.w	r0, r0, #2
 1005496:	6b93      	ldr	r3, [r2, #56]	; 0x38
 1005498:	420b      	tst	r3, r1
 100549a:	bf18      	it	ne
 100549c:	f040 0004 	orrne.w	r0, r0, #4
 10054a0:	6a12      	ldr	r2, [r2, #32]
 10054a2:	420a      	tst	r2, r1
 10054a4:	bf18      	it	ne
 10054a6:	f040 0008 	orrne.w	r0, r0, #8
 10054aa:	4770      	bx	lr
--
 10054ac:	f000 023f 	and.w	r2, r0, #63	; 0x3f
 10054b0:	48ad      	ldr	r0, [pc, #692]	; (0x1005768)
 10054b2:	6880      	ldr	r0, [r0, #8]
 10054b4:	eb00 1002 	add.w	r0, r0, r2, lsl #4
 10054b8:	6882      	ldr	r2, [r0, #8]
 10054ba:	4bac      	ldr	r3, [pc, #688]	; (0x100576c)
 10054bc:	401a      	ands	r2, r3
 10054be:	4311      	orrs	r1, r2
 10054c0:	6081      	str	r1, [r0, #8]
 10054c2:	4770      	bx	lr
--
 1005524:	eb06 1101 	addeq.w	r1, r6, r1, lsl #4
 1005528:	f101 030c 	addeq.w	r3, r1, #12
 100552c:	bf1f      	itttt	ne
 100552e:	0f91      	lsrne	r1, r2, #30
 1005530:	fa05 f101 	lslne.w	r1, r5, r1
 1005534:	4419      	addne	r1, r3
 1005536:	1e4b      	subne	r3, r1, #1
 1005538:	6084      	str	r4, [r0, #8]
 100553a:	6043      	str	r3, [r0, #4]
 100553c:	bcf0      	pop	{r4, r5, r6, r7}
 100553e:	4770      	bx	lr
--
 1005566:	f1a1 0210 	sub.w	r2, r1, #16
 100556a:	2b00      	cmp	r3, #0
 100556c:	bf14      	ite	ne
 100556e:	2106      	movne	r1, #6
 1005570:	2104      	moveq	r1, #4
 1005572:	4311      	orrs	r1, r2
 1005574:	f441 4100 	orr.w	r1, r1, #32768	; 0x8000
 1005578:	f041 412a 	orr.w	r1, r1, #2852126720	; 0xaa000000
 100557c:	6081      	str	r1, [r0, #8]
 100557e:	bc10      	pop	{r4}
 1005580:	4770      	bx	lr
--
 1005582:	4979      	ldr	r1, [pc, #484]	; (0x1005768)
 1005584:	f000 003f 	and.w	r0, r0, #63	; 0x3f
 1005588:	6889      	ldr	r1, [r1, #8]
 100558a:	eb01 1000 	add.w	r0, r1, r0, lsl #4
 100558e:	6880      	ldr	r0, [r0, #8]
 1005590:	f643 71f7 	movw	r1, #16375	; 0x3ff7
 1005594:	4008      	ands	r0, r1
 1005596:	bf1c      	itt	ne
 1005598:	0900      	lsrne	r0, r0, #4
 100559a:	1c40      	addne	r0, r0, #1
 100559c:	4770      	bx	lr
--
 10055a2:	4871      	ldr	r0, [pc, #452]	; (0x1005768)
 10055a4:	6880      	ldr	r0, [r0, #8]
 10055a6:	eb00 1001 	add.w	r0, r0, r1, lsl #4
 10055aa:	6880      	ldr	r0, [r0, #8]
 10055ac:	f000 0007 	and.w	r0, r0, #7
 10055b0:	f020 0101 	bic.w	r1, r0, #1
 10055b4:	2904      	cmp	r1, #4
 10055b6:	bf14      	ite	ne
 10055b8:	2906      	cmpne	r1, #6
 10055ba:	f020 0001 	biceq.w	r0, r0, #1
 10055be:	4770      	bx	lr
--
 10055c0:	496b      	ldr	r1, [pc, #428]	; (0x1005770)
 10055c2:	680a      	ldr	r2, [r1, #0]
 10055c4:	ea42 0000 	orr.w	r0, r2, r0
 10055c8:	6008      	str	r0, [r1, #0]
 10055ca:	4770      	bx	lr
--
 10055cc:	4968      	ldr	r1, [pc, #416]	; (0x1005770)
 10055ce:	680a      	ldr	r2, [r1, #0]
 10055d0:	ea22 0000 	bic.w	r0, r2, r0
 10055d4:	6008      	str	r0, [r1, #0]
 10055d6:	4770      	bx	lr
--
 10055d8:	4866      	ldr	r0, [pc, #408]	; (0x1005774)
 10055da:	6800      	ldr	r0, [r0, #0]
 10055dc:	4770      	bx	lr
--
 10055de:	4965      	ldr	r1, [pc, #404]	; (0x1005774)
 10055e0:	6008      	str	r0, [r1, #0]
 10055e2:	4770      	bx	lr
--
 10055ec:	eb03 0080 	add.w	r0, r3, r0, lsl #2
 10055f0:	0749      	lsls	r1, r1, #29
 10055f2:	6803      	ldr	r3, [r0, #0]
 10055f4:	0ec9      	lsrs	r1, r1, #27
 10055f6:	f04f 0c0f 	mov.w	ip, #15
 10055fa:	fa0c fc01 	lsl.w	ip, ip, r1
 10055fe:	ea23 030c 	bic.w	r3, r3, ip
 1005602:	fa02 f101 	lsl.w	r1, r2, r1
 1005606:	4319      	orrs	r1, r3
 1005608:	6001      	str	r1, [r0, #0]
 100560a:	4770      	bx	lr
--
 100560c:	b410      	push	{r4}
 100560e:	f890 c00e 	ldrb.w	ip, [r0, #14]
 1005612:	9c01      	ldr	r4, [sp, #4]
 1005614:	7381      	strb	r1, [r0, #14]
 1005616:	2c01      	cmp	r4, #1
 1005618:	bf0c      	ite	eq
 100561a:	5483      	strbeq	r3, [r0, r2]
 100561c:	5283      	strhne	r3, [r0, r2]
 100561e:	f880 c00e 	strb.w	ip, [r0, #14]
 1005622:	bc10      	pop	{r4}
 1005624:	4770      	bx	lr
--
 1005626:	f890 c00e 	ldrb.w	ip, [r0, #14]
 100562a:	7381      	strb	r1, [r0, #14]
 100562c:	2b01      	cmp	r3, #1
 100562e:	bf0e      	itee	eq
 1005630:	5c81      	ldrbeq	r1, [r0, r2]
 1005632:	5a81      	ldrhne	r1, [r0, r2]
 1005634:	b2c9      	uxtbne	r1, r1
 1005636:	f880 c00e 	strb.w	ip, [r0, #14]
 100563a:	4608      	mov	r0, r1
 100563c:	4770      	bx	lr
--
 100563e:	7800      	ldrb	r0, [r0, #0]
 1005640:	4770      	bx	lr
--
 1005642:	7001      	strb	r1, [r0, #0]
 1005644:	4770      	bx	lr
--
 1005646:	7841      	ldrb	r1, [r0, #1]
 1005648:	f041 0140 	orr.w	r1, r1, #64	; 0x40
 100564c:	7041      	strb	r1, [r0, #1]
 100564e:	4770      	bx	lr
--
 1005650:	7841      	ldrb	r1, [r0, #1]
 1005652:	f021 0140 	bic.w	r1, r1, #64	; 0x40
 1005656:	7041      	strb	r1, [r0, #1]
 1005658:	4770      	bx	lr
--
 1005690:	bf14      	ite	ne
 1005692:	f041 0110 	orrne.w	r1, r1, #16
 1005696:	f041 0108 	orreq.w	r1, r1, #8
 100569a:	6019      	str	r1, [r3, #0]
 100569c:	f010 0f40 	tst.w	r0, #64	; 0x40
 10056a0:	bf18      	it	ne
 10056a2:	4770      	bxne	lr
 10056a4:	6818      	ldr	r0, [r3, #0]
 10056a6:	f440 7080 	orr.w	r0, r0, #256	; 0x100
 10056aa:	6018      	str	r0, [r3, #0]
 10056ac:	4770      	bx	lr
--
 10056ca:	f010 0f20 	tst.w	r0, #32
 10056ce:	d008      	beq.n	0x10056e2
 10056d0:	6819      	ldr	r1, [r3, #0]
 10056d2:	f010 0f08 	tst.w	r0, #8
 10056d6:	bf14      	ite	ne
 10056d8:	f041 0110 	orrne.w	r1, r1, #16
 10056dc:	f041 0108 	orreq.w	r1, r1, #8
 10056e0:	6019      	str	r1, [r3, #0]
 10056e2:	f010 0f40 	tst.w	r0, #64	; 0x40
 10056e6:	d0dd      	beq.n	0x10056a4
 10056e8:	4770      	bx	lr
--
 100570c:	d104      	bne.n	0x1005718
 100570e:	f013 0f08 	tst.w	r3, #8
 1005712:	bf18      	it	ne
 1005714:	f040 0010 	orrne.w	r0, r0, #16
 1005718:	f413 7f40 	tst.w	r3, #768	; 0x300
 100571c:	bf08      	it	eq
 100571e:	f040 0040 	orreq.w	r0, r0, #64	; 0x40
 1005722:	f881 0103 	strb.w	r0, [r1, #259]	; 0x103
 1005726:	2040      	movs	r0, #64	; 0x40
 1005728:	f881 0102 	strb.w	r0, [r1, #258]	; 0x102
 100572c:	4770      	bx	lr
--
 1005746:	d104      	bne.n	0x1005752
 1005748:	f013 0f08 	tst.w	r3, #8
 100574c:	bf18      	it	ne
 100574e:	f040 0020 	orrne.w	r0, r0, #32
 1005752:	f413 7f40 	tst.w	r3, #768	; 0x300
 1005756:	bf08      	it	eq
 1005758:	f040 0040 	orreq.w	r0, r0, #64	; 0x40
 100575c:	f881 0107 	strb.w	r0, [r1, #263]	; 0x107
 1005760:	2080      	movs	r0, #128	; 0x80
 1005762:	f881 0106 	strb.w	r0, [r1, #262]	; 0x106
 1005766:	4770      	bx	lr
--
 100576c:	3ff7      	subs	r7, #247	; 0xf7
 100576e:	00fc      	lsls	r4, r7, #3
 1005770:	f500 400f 	add.w	r0, r0, #36608	; 0x8f00
 1005774:	f504 400f 	add.w	r0, r4, #36608	; 0x8f00
 1005778:	f510 400f 	adds.w	r0, r0, #36608	; 0x8f00
 100577c:	b139      	cbz	r1, 0x100578e
 100577e:	4408      	add	r0, r1
 1005780:	f890 1106 	ldrb.w	r1, [r0, #262]	; 0x106
 1005784:	f021 0101 	bic.w	r1, r1, #1
 1005788:	f880 1106 	strb.w	r1, [r0, #262]	; 0x106
 100578c:	4770      	bx	lr
--
 100578e:	2a00      	cmp	r2, #0
 1005790:	bf14      	ite	ne
 1005792:	2108      	movne	r1, #8
 1005794:	2100      	moveq	r1, #0
 1005796:	f041 0140 	orr.w	r1, r1, #64	; 0x40
 100579a:	f880 1102 	strb.w	r1, [r0, #258]	; 0x102
 100579e:	4770      	bx	lr
--
 10057b0:	f5b2 5f00 	cmp.w	r2, #8192	; 0x2000
 10057b4:	bf07      	ittee	eq
 10057b6:	f890 1102 	ldrbeq.w	r1, [r0, #258]	; 0x102
 10057ba:	f041 0110 	orreq.w	r1, r1, #16
 10057be:	f890 1106 	ldrbne.w	r1, [r0, #262]	; 0x106
 10057c2:	f041 0120 	orrne.w	r1, r1, #32
 10057c6:	bf1c      	itt	ne
 10057c8:	f880 1106 	strbne.w	r1, [r0, #262]	; 0x106
 10057cc:	4770      	bxne	lr
 10057ce:	f880 1102 	strb.w	r1, [r0, #258]	; 0x102
 10057d2:	4770      	bx	lr
--
 10057e0:	d01a      	beq.n	0x1005818
 10057e2:	4408      	add	r0, r1
 10057e4:	f5b2 5f00 	cmp.w	r2, #8192	; 0x2000
 10057e8:	d00c      	beq.n	0x1005804
 10057ea:	f890 1106 	ldrb.w	r1, [r0, #262]	; 0x106
 10057ee:	f021 0160 	bic.w	r1, r1, #96	; 0x60
 10057f2:	f880 1106 	strb.w	r1, [r0, #262]	; 0x106
 10057f6:	f890 1106 	ldrb.w	r1, [r0, #262]	; 0x106
 10057fa:	f041 0180 	orr.w	r1, r1, #128	; 0x80
 10057fe:	f880 1106 	strb.w	r1, [r0, #262]	; 0x106
 1005802:	4770      	bx	lr
--
 1005804:	f890 1102 	ldrb.w	r1, [r0, #258]	; 0x102
 1005808:	f021 0130 	bic.w	r1, r1, #48	; 0x30
 100580c:	f880 1102 	strb.w	r1, [r0, #258]	; 0x102
 1005810:	f890 1102 	ldrb.w	r1, [r0, #258]	; 0x102
 1005814:	f041 0140 	orr.w	r1, r1, #64	; 0x40
 1005818:	f880 1102 	strb.w	r1, [r0, #258]	; 0x102
 100581c:	4770      	bx	lr
--
 100581e:	b181      	cbz	r1, 0x1005842
 1005820:	4408      	add	r0, r1
 1005822:	f890 1102 	ldrb.w	r1, [r0, #258]	; 0x102
 1005826:	f002 0324 	and.w	r3, r2, #36	; 0x24
 100582a:	4399      	bics	r1, r3
 100582c:	f880 1102 	strb.w	r1, [r0, #258]	; 0x102
 1005830:	f890 1106 	ldrb.w	r1, [r0, #262]	; 0x106
 1005834:	f402 0298 	and.w	r2, r2, #4980736	; 0x4c0000
 1005838:	ea21 4112 	bic.w	r1, r1, r2, lsr #16
 100583c:	f880 1106 	strb.w	r1, [r0, #262]	; 0x106
 1005840:	4770      	bx	lr
--
 1005858:	d005      	beq.n	0x1005866
 100585a:	f890 1102 	ldrb.w	r1, [r0, #258]	; 0x102
 100585e:	f041 0180 	orr.w	r1, r1, #128	; 0x80
 1005862:	f880 1102 	strb.w	r1, [r0, #258]	; 0x102
 1005866:	f012 0f04 	tst.w	r2, #4
 100586a:	bf08      	it	eq
 100586c:	4770      	bxeq	lr
 100586e:	f890 1102 	ldrb.w	r1, [r0, #258]	; 0x102
 1005872:	f021 0104 	bic.w	r1, r1, #4
 1005876:	f880 1102 	strb.w	r1, [r0, #258]	; 0x102
 100587a:	4770      	bx	lr
--
 100587c:	2103      	movs	r1, #3
 100587e:	f880 141c 	strb.w	r1, [r0, #1052]	; 0x41c
 1005882:	4770      	bx	lr
--
 1005884:	2900      	cmp	r1, #0
 1005886:	bf0c      	ite	eq
 1005888:	f44f 7281 	moveq.w	r2, #258	; 0x102
 100588c:	f501 7283 	addne.w	r2, r1, #262	; 0x106
 1005890:	5a82      	ldrh	r2, [r0, r2]
 1005892:	f012 0f01 	tst.w	r2, #1
 1005896:	bf0e      	itee	eq
 1005898:	2000      	moveq	r0, #0
 100589a:	4408      	addne	r0, r1
 100589c:	f8b0 0108 	ldrhne.w	r0, [r0, #264]	; 0x108
 10058a0:	4770      	bx	lr
--
 10058ce:	3020      	adds	r0, #32
 10058d0:	f8c3 c000 	str.w	ip, [r3]
 10058d4:	f1bc 0f00 	cmp.w	ip, #0
 10058d8:	d005      	beq.n	0x10058e6
 10058da:	7801      	ldrb	r1, [r0, #0]
 10058dc:	f802 1b01 	strb.w	r1, [r2], #1
 10058e0:	f1bc 0c01 	subs.w	ip, ip, #1
 10058e4:	d1f9      	bne.n	0x10058da
 10058e6:	bc10      	pop	{r4}
 10058e8:	2000      	movs	r0, #0
 10058ea:	4770      	bx	lr
--
 10058ec:	2000      	movs	r0, #0
 10058ee:	6018      	str	r0, [r3, #0]
 10058f0:	bc10      	pop	{r4}
 10058f2:	1e40      	subs	r0, r0, #1
 10058f4:	4770      	bx	lr
--
 1005916:	4770      	bxne	lr
 1005918:	eb00 0091 	add.w	r0, r0, r1, lsr #2
 100591c:	3020      	adds	r0, #32
 100591e:	b123      	cbz	r3, 0x100592a
 1005920:	f812 1b01 	ldrb.w	r1, [r2], #1
 1005924:	7001      	strb	r1, [r0, #0]
 1005926:	1e5b      	subs	r3, r3, #1
 1005928:	d1fa      	bne.n	0x1005920
 100592a:	bc10      	pop	{r4}
 100592c:	2000      	movs	r0, #0
 100592e:	4770      	bx	lr
--
 1005932:	bf0c      	ite	eq
 1005934:	b2d2      	uxtbeq	r2, r2
 1005936:	f3c2 2207 	ubfxne	r2, r2, #8, #8
 100593a:	4408      	add	r0, r1
 100593c:	f890 1102 	ldrb.w	r1, [r0, #258]	; 0x102
 1005940:	f011 0f02 	tst.w	r1, #2
 1005944:	bf12      	itee	ne
 1005946:	f04f 30ff 	movne.w	r0, #4294967295	; 0xffffffff
 100594a:	f880 2102 	strbeq.w	r2, [r0, #258]	; 0x102
 100594e:	2000      	moveq	r0, #0
 1005950:	4770      	bx	lr
--
 1005952:	f412 5f00 	tst.w	r2, #8192	; 0x2000
 1005956:	4408      	add	r0, r1
 1005958:	bf1d      	ittte	ne
 100595a:	f890 1102 	ldrbne.w	r1, [r0, #258]	; 0x102
 100595e:	f041 0140 	orrne.w	r1, r1, #64	; 0x40
 1005962:	f880 1102 	strbne.w	r1, [r0, #258]	; 0x102
 1005966:	f890 1106 	ldrbeq.w	r1, [r0, #262]	; 0x106
 100596a:	bf04      	itt	eq
 100596c:	f041 0180 	orreq.w	r1, r1, #128	; 0x80
 1005970:	f880 1106 	strbeq.w	r1, [r0, #262]	; 0x106
 1005974:	4770      	bx	lr
--
 1005976:	0092      	lsls	r2, r2, #2
 1005978:	230f      	movs	r3, #15
 100597a:	f8d0 c450 	ldr.w	ip, [r0, #1104]	; 0x450
 100597e:	4093      	lsls	r3, r2
 1005980:	0909      	lsrs	r1, r1, #4
 1005982:	ea2c 0303 	bic.w	r3, ip, r3
 1005986:	4091      	lsls	r1, r2
 1005988:	4319      	orrs	r1, r3
 100598a:	f8c0 1450 	str.w	r1, [r0, #1104]	; 0x450
 100598e:	4770      	bx	lr
--
 1005990:	f412 5f00 	tst.w	r2, #8192	; 0x2000
 1005994:	4408      	add	r0, r1
 1005996:	bf1d      	ittte	ne
 1005998:	f890 1103 	ldrbne.w	r1, [r0, #259]	; 0x103
 100599c:	f021 0110 	bicne.w	r1, r1, #16
 10059a0:	f880 1103 	strbne.w	r1, [r0, #259]	; 0x103
 10059a4:	f890 1107 	ldrbeq.w	r1, [r0, #263]	; 0x107
 10059a8:	bf04      	itt	eq
 10059aa:	f021 0120 	biceq.w	r1, r1, #32
 10059ae:	f880 1107 	strbeq.w	r1, [r0, #263]	; 0x107
 10059b2:	4770      	bx	lr
--
 10059b4:	f412 5f00 	tst.w	r2, #8192	; 0x2000
 10059b8:	4408      	add	r0, r1
 10059ba:	bf1d      	ittte	ne
 10059bc:	f890 1103 	ldrbne.w	r1, [r0, #259]	; 0x103
 10059c0:	f041 0110 	orrne.w	r1, r1, #16
 10059c4:	f880 1103 	strbne.w	r1, [r0, #259]	; 0x103
 10059c8:	f890 1107 	ldrbeq.w	r1, [r0, #263]	; 0x107
 10059cc:	bf04      	itt	eq
 10059ce:	f041 0120 	orreq.w	r1, r1, #32
 10059d2:	f880 1107 	strbeq.w	r1, [r0, #263]	; 0x107
 10059d6:	4770      	bx	lr
--
 10059d8:	4408      	add	r0, r1
 10059da:	f8b0 1102 	ldrh.w	r1, [r0, #258]	; 0x102
 10059de:	f8b0 0106 	ldrh.w	r0, [r0, #262]	; 0x106
 10059e2:	ea41 4000 	orr.w	r0, r1, r0, lsl #16
 10059e6:	4770      	bx	lr
--
 10059e8:	eb00 0091 	add.w	r0, r0, r1, lsr #2
 10059ec:	3020      	adds	r0, #32
 10059ee:	4770      	bx	lr
--
 1005aa2:	f412 5f00 	tst.w	r2, #8192	; 0x2000
 1005aa6:	4408      	add	r0, r1
 1005aa8:	d015      	beq.n	0x1005ad6
 1005aaa:	f890 1102 	ldrb.w	r1, [r0, #258]	; 0x102
 1005aae:	f011 0f01 	tst.w	r1, #1
 1005ab2:	bf08      	it	eq
 1005ab4:	4770      	bxeq	lr
 1005ab6:	f890 1102 	ldrb.w	r1, [r0, #258]	; 0x102
 1005aba:	f041 0108 	orr.w	r1, r1, #8
 1005abe:	f880 1102 	strb.w	r1, [r0, #258]	; 0x102
 1005ac2:	4770      	bx	lr
--
 1005ac4:	f890 1102 	ldrb.w	r1, [r0, #258]	; 0x102
 1005ac8:	f011 0f03 	tst.w	r1, #3
 1005acc:	bf1c      	itt	ne
 1005ace:	2101      	movne	r1, #1
 1005ad0:	f880 1103 	strbne.w	r1, [r0, #259]	; 0x103
 1005ad4:	4770      	bx	lr
--
 1005ad6:	f890 1106 	ldrb.w	r1, [r0, #262]	; 0x106
 1005ada:	f011 0f01 	tst.w	r1, #1
 1005ade:	bf08      	it	eq
 1005ae0:	4770      	bxeq	lr
 1005ae2:	f890 1106 	ldrb.w	r1, [r0, #262]	; 0x106
 1005ae6:	f041 0110 	orr.w	r1, r1, #16
 1005aea:	f880 1106 	strb.w	r1, [r0, #262]	; 0x106
 1005aee:	4770      	bx	lr
--
 1005af0:	8980      	ldrh	r0, [r0, #12]
 1005af2:	4770      	bx	lr
--
 1005af4:	f412 5f00 	tst.w	r2, #8192	; 0x2000
 1005af8:	eb00 0051 	add.w	r0, r0, r1, lsr #1
 1005afc:	bf14      	ite	ne
 1005afe:	f890 0080 	ldrbne.w	r0, [r0, #128]	; 0x80
 1005b02:	f890 0084 	ldrbeq.w	r0, [r0, #132]	; 0x84
 1005b06:	4770      	bx	lr
--
 1005b08:	f413 5f00 	tst.w	r3, #8192	; 0x2000
 1005b0c:	b2d2      	uxtb	r2, r2
 1005b0e:	eb00 0051 	add.w	r0, r0, r1, lsr #1
 1005b12:	bf14      	ite	ne
 1005b14:	f880 2080 	strbne.w	r2, [r0, #128]	; 0x80
 1005b18:	f880 2084 	strbeq.w	r2, [r0, #132]	; 0x84
 1005b1c:	4770      	bx	lr
--
 1005b80:	f041 0114 	orrne.w	r1, r1, #20
 1005b84:	d110      	bne.n	0x1005ba8
 1005b86:	e00a      	b.n	0x1005b9e
 1005b88:	f880 510b 	strb.w	r5, [r0, #267]	; 0x10b
 1005b8c:	f41c 5f80 	tst.w	ip, #4096	; 0x1000
 1005b90:	bf14      	ite	ne
 1005b92:	2180      	movne	r1, #128	; 0x80
 1005b94:	21c0      	moveq	r1, #192	; 0xc0
 1005b96:	f880 110a 	strb.w	r1, [r0, #266]	; 0x10a
 1005b9a:	bc30      	pop	{r4, r5}
 1005b9c:	4770      	bx	lr
--
 1005b9e:	f01c 0f08 	tst.w	ip, #8
 1005ba2:	bf18      	it	ne
 1005ba4:	f041 0110 	orrne.w	r1, r1, #16
 1005ba8:	f880 1103 	strb.w	r1, [r0, #259]	; 0x103
 1005bac:	bc30      	pop	{r4, r5}
 1005bae:	4770      	bx	lr
--
 1005bc4:	2180      	movne	r1, #128	; 0x80
 1005bc6:	f01c 0f10 	tst.w	ip, #16
 1005bca:	bf18      	it	ne
 1005bcc:	f041 01e8 	orrne.w	r1, r1, #232	; 0xe8
 1005bd0:	d104      	bne.n	0x1005bdc
 1005bd2:	f01c 0f08 	tst.w	ip, #8
 1005bd6:	bf18      	it	ne
 1005bd8:	f041 0120 	orrne.w	r1, r1, #32
 1005bdc:	f880 1107 	strb.w	r1, [r0, #263]	; 0x107
 1005be0:	bc30      	pop	{r4, r5}
 1005be2:	4770      	bx	lr
--
 1005be4:	b139      	cbz	r1, 0x1005bf6
 1005be6:	4408      	add	r0, r1
 1005be8:	f890 1106 	ldrb.w	r1, [r0, #262]	; 0x106
 1005bec:	f021 0101 	bic.w	r1, r1, #1
 1005bf0:	f880 1106 	strb.w	r1, [r0, #262]	; 0x106
 1005bf4:	4770      	bx	lr
--
 1005bf6:	f890 1102 	ldrb.w	r1, [r0, #258]	; 0x102
 1005bfa:	f021 0101 	bic.w	r1, r1, #1
 1005bfe:	f880 1102 	strb.w	r1, [r0, #258]	; 0x102
 1005c02:	4770      	bx	lr
--
 1005c24:	d01a      	beq.n	0x1005c5c
 1005c26:	e001      	b.n	0x1005c2c
 1005c28:	b161      	cbz	r1, 0x1005c44
 1005c2a:	b1bb      	cbz	r3, 0x1005c5c
 1005c2c:	f894 0103 	ldrb.w	r0, [r4, #259]	; 0x103
 1005c30:	f020 0003 	bic.w	r0, r0, #3
 1005c34:	ea40 000c 	orr.w	r0, r0, ip
 1005c38:	f040 0002 	orr.w	r0, r0, #2
 1005c3c:	f884 0103 	strb.w	r0, [r4, #259]	; 0x103
 1005c40:	bc10      	pop	{r4}
 1005c42:	4770      	bx	lr
--
 1005c44:	f890 1103 	ldrb.w	r1, [r0, #259]	; 0x103
 1005c48:	f021 0106 	bic.w	r1, r1, #6
 1005c4c:	ea41 010c 	orr.w	r1, r1, ip
 1005c50:	f041 0104 	orr.w	r1, r1, #4
 1005c54:	f880 1103 	strb.w	r1, [r0, #259]	; 0x103
 1005c58:	bc10      	pop	{r4}
 1005c5a:	4770      	bx	lr
--
 1005c5c:	f894 0107 	ldrb.w	r0, [r4, #263]	; 0x107
 1005c60:	f020 0006 	bic.w	r0, r0, #6
 1005c64:	ea40 000c 	orr.w	r0, r0, ip
 1005c68:	f040 0004 	orr.w	r0, r0, #4
 1005c6c:	f884 0107 	strb.w	r0, [r4, #263]	; 0x107
 1005c70:	bc10      	pop	{r4}
 1005c72:	4770      	bx	lr
--
 1005c74:	b161      	cbz	r1, 0x1005c90
 1005c76:	4408      	add	r0, r1
 1005c78:	f890 1102 	ldrb.w	r1, [r0, #258]	; 0x102
 1005c7c:	4391      	bics	r1, r2
 1005c7e:	f880 1102 	strb.w	r1, [r0, #258]	; 0x102
 1005c82:	f890 1106 	ldrb.w	r1, [r0, #262]	; 0x106
 1005c86:	ea21 4112 	bic.w	r1, r1, r2, lsr #16
 1005c8a:	f880 1106 	strb.w	r1, [r0, #262]	; 0x106
 1005c8e:	4770      	bx	lr
--
 1005c90:	f890 1102 	ldrb.w	r1, [r0, #258]	; 0x102
 1005c94:	4391      	bics	r1, r2
 1005c96:	f880 1102 	strb.w	r1, [r0, #258]	; 0x102
 1005c9a:	4770      	bx	lr
--
 1005c9c:	f412 5f00 	tst.w	r2, #8192	; 0x2000
 1005ca0:	eb00 0051 	add.w	r0, r0, r1, lsr #1
 1005ca4:	bf14      	ite	ne
 1005ca6:	f890 0082 	ldrbne.w	r0, [r0, #130]	; 0x82
 1005caa:	f890 0086 	ldrbeq.w	r0, [r0, #134]	; 0x86
 1005cae:	4770      	bx	lr
--
 1005cc6:	2900      	cmp	r1, #0
 1005cc8:	bf1c      	itt	ne
 1005cca:	bc10      	popne	{r4}
 1005ccc:	4770      	bxne	lr
 1005cce:	f413 5f80 	tst.w	r3, #4096	; 0x1000
 1005cd2:	bf14      	ite	ne
 1005cd4:	2180      	movne	r1, #128	; 0x80
 1005cd6:	21c0      	moveq	r1, #192	; 0xc0
 1005cd8:	f880 110a 	strb.w	r1, [r0, #266]	; 0x10a
 1005cdc:	bc10      	pop	{r4}
 1005cde:	4770      	bx	lr
--
 1005ce0:	2102      	movs	r1, #2
 1005ce2:	f880 141c 	strb.w	r1, [r0, #1052]	; 0x41c
 1005ce6:	4770      	bx	lr
--
 1005ce8:	f8b0 1400 	ldrh.w	r1, [r0, #1024]	; 0x400
 1005cec:	f021 0104 	bic.w	r1, r1, #4
 1005cf0:	f8a0 1400 	strh.w	r1, [r0, #1024]	; 0x400
 1005cf4:	4770      	bx	lr
--
 1005cf6:	f8b0 1400 	ldrh.w	r1, [r0, #1024]	; 0x400
 1005cfa:	f041 0104 	orr.w	r1, r1, #4
 1005cfe:	f8a0 1400 	strh.w	r1, [r0, #1024]	; 0x400
 1005d02:	4770      	bx	lr
--
 1005d04:	0c0a      	lsrs	r2, r1, #16
 1005d06:	f8c0 2430 	str.w	r2, [r0, #1072]	; 0x430
 1005d0a:	f8b0 2400 	ldrh.w	r2, [r0, #1024]	; 0x400
 1005d0e:	f022 0263 	bic.w	r2, r2, #99	; 0x63
 1005d12:	f422 7240 	bic.w	r2, r2, #768	; 0x300
 1005d16:	4311      	orrs	r1, r2
 1005d18:	f8a0 1400 	strh.w	r1, [r0, #1024]	; 0x400
 1005d1c:	4770      	bx	lr
--
 1005d1e:	f8b0 1400 	ldrh.w	r1, [r0, #1024]	; 0x400
 1005d22:	f021 0110 	bic.w	r1, r1, #16
 1005d26:	f8a0 1400 	strh.w	r1, [r0, #1024]	; 0x400
 1005d2a:	4770      	bx	lr
--
 1005d2c:	f8b0 1400 	ldrh.w	r1, [r0, #1024]	; 0x400
 1005d30:	f041 0110 	orr.w	r1, r1, #16
 1005d34:	f8a0 1400 	strh.w	r1, [r0, #1024]	; 0x400
 1005d38:	4770      	bx	lr
--
 1005d3a:	2900      	cmp	r1, #0
 1005d3c:	bf0c      	ite	eq
 1005d3e:	f44f 7181 	moveq.w	r1, #258	; 0x102
 1005d42:	f501 7183 	addne.w	r1, r1, #262	; 0x106
 1005d46:	2220      	movs	r2, #32
 1005d48:	5442      	strb	r2, [r0, r1]
 1005d4a:	4770      	bx	lr
--
 1005d4c:	2900      	cmp	r1, #0
 1005d4e:	bf0c      	ite	eq
 1005d50:	f44f 7181 	moveq.w	r1, #258	; 0x102
 1005d54:	f501 7183 	addne.w	r1, r1, #262	; 0x106
 1005d58:	5c42      	ldrb	r2, [r0, r1]
 1005d5a:	f022 0220 	bic.w	r2, r2, #32
 1005d5e:	5442      	strb	r2, [r0, r1]
 1005d60:	4770      	bx	lr
--
 1005d62:	2160      	movs	r1, #96	; 0x60
 1005d64:	f880 1102 	strb.w	r1, [r0, #258]	; 0x102
 1005d68:	4770      	bx	lr
--
 1005d6a:	2900      	cmp	r1, #0
 1005d6c:	7841      	ldrb	r1, [r0, #1]
 1005d6e:	bf14      	ite	ne
 1005d70:	f041 0108 	orrne.w	r1, r1, #8
 1005d74:	f021 0108 	biceq.w	r1, r1, #8
 1005d78:	7041      	strb	r1, [r0, #1]
 1005d7a:	4770      	bx	lr
--
 1005d7c:	2900      	cmp	r1, #0
 1005d7e:	7841      	ldrb	r1, [r0, #1]
 1005d80:	bf14      	ite	ne
 1005d82:	f041 0104 	orrne.w	r1, r1, #4
 1005d86:	f021 0104 	biceq.w	r1, r1, #4
 1005d8a:	7041      	strb	r1, [r0, #1]
 1005d8c:	4770      	bx	lr
--
 1005d8e:	f890 1060 	ldrb.w	r1, [r0, #96]	; 0x60
 1005d92:	f011 0f40 	tst.w	r1, #64	; 0x40
 1005d96:	bf1c      	itt	ne
 1005d98:	2001      	movne	r0, #1
 1005d9a:	4770      	bxne	lr
 1005d9c:	f890 0060 	ldrb.w	r0, [r0, #96]	; 0x60
 1005da0:	f010 0f20 	tst.w	r0, #32
 1005da4:	bf14      	ite	ne
 1005da6:	2000      	movne	r0, #0
 1005da8:	f04f 4000 	moveq.w	r0, #2147483648	; 0x80000000
 1005dac:	4770      	bx	lr
--
 1005dae:	7841      	ldrb	r1, [r0, #1]
 1005db0:	f041 0102 	orr.w	r1, r1, #2
 1005db4:	7041      	strb	r1, [r0, #1]
 1005db6:	4770      	bx	lr
--
 1005de6:	72c2      	strb	r2, [r0, #11]
 1005de8:	f411 3f80 	tst.w	r1, #65536	; 0x10000
 1005dec:	f04f 0200 	mov.w	r2, #0
 1005df0:	bf18      	it	ne
 1005df2:	f8c0 2408 	strne.w	r2, [r0, #1032]	; 0x408
 1005df6:	f411 3f00 	tst.w	r1, #131072	; 0x20000
 1005dfa:	bf08      	it	eq
 1005dfc:	4770      	bxeq	lr
 1005dfe:	488a      	ldr	r0, [pc, #552]	; (0x1006028)
 1005e00:	6002      	str	r2, [r0, #0]
 1005e02:	4770      	bx	lr
--
 1005e0e:	72c2      	strb	r2, [r0, #11]
 1005e10:	f411 7f80 	tst.w	r1, #256	; 0x100
 1005e14:	f04f 0200 	mov.w	r2, #0
 1005e18:	bf18      	it	ne
 1005e1a:	f8c0 2408 	strne.w	r2, [r0, #1032]	; 0x408
 1005e1e:	f411 7f00 	tst.w	r1, #512	; 0x200
 1005e22:	bf08      	it	eq
 1005e24:	4770      	bxeq	lr
 1005e26:	4880      	ldr	r0, [pc, #512]	; (0x1006028)
 1005e28:	6002      	str	r2, [r0, #0]
 1005e2a:	4770      	bx	lr
--
 1005e2c:	88c2      	ldrh	r2, [r0, #6]
 1005e2e:	438a      	bics	r2, r1
 1005e30:	80c2      	strh	r2, [r0, #6]
 1005e32:	8902      	ldrh	r2, [r0, #8]
 1005e34:	f421 3180 	bic.w	r1, r1, #65536	; 0x10000
 1005e38:	ea22 4111 	bic.w	r1, r2, r1, lsr #16
 1005e3c:	8101      	strh	r1, [r0, #8]
 1005e3e:	4770      	bx	lr
--
 1005e6e:	72c2      	strb	r2, [r0, #11]
 1005e70:	f411 3f80 	tst.w	r1, #65536	; 0x10000
 1005e74:	f04f 0201 	mov.w	r2, #1
 1005e78:	bf18      	it	ne
 1005e7a:	f8c0 2408 	strne.w	r2, [r0, #1032]	; 0x408
 1005e7e:	f411 3f00 	tst.w	r1, #131072	; 0x20000
 1005e82:	bf08      	it	eq
 1005e84:	4770      	bxeq	lr
 1005e86:	4868      	ldr	r0, [pc, #416]	; (0x1006028)
 1005e88:	6002      	str	r2, [r0, #0]
 1005e8a:	4770      	bx	lr
--
 1005e96:	72c2      	strb	r2, [r0, #11]
 1005e98:	f411 7f80 	tst.w	r1, #256	; 0x100
 1005e9c:	f04f 0201 	mov.w	r2, #1
 1005ea0:	bf18      	it	ne
 1005ea2:	f8c0 2408 	strne.w	r2, [r0, #1032]	; 0x408
 1005ea6:	f411 7f00 	tst.w	r1, #512	; 0x200
 1005eaa:	bf08      	it	eq
 1005eac:	4770      	bxeq	lr
 1005eae:	485e      	ldr	r0, [pc, #376]	; (0x1006028)
 1005eb0:	6002      	str	r2, [r0, #0]
 1005eb2:	4770      	bx	lr
--
 1005eb4:	88c2      	ldrh	r2, [r0, #6]
 1005eb6:	430a      	orrs	r2, r1
 1005eb8:	80c2      	strh	r2, [r0, #6]
 1005eba:	8902      	ldrh	r2, [r0, #8]
 1005ebc:	f421 3180 	bic.w	r1, r1, #65536	; 0x10000
 1005ec0:	ea42 4111 	orr.w	r1, r2, r1, lsr #16
 1005ec4:	8101      	strh	r1, [r0, #8]
 1005ec6:	4770      	bx	lr
--
 1005eec:	f880 240c 	strb.w	r2, [r0, #1036]	; 0x40c
 1005ef0:	484e      	ldr	r0, [pc, #312]	; (0x100602c)
 1005ef2:	f8d0 244c 	ldr.w	r2, [r0, #1100]	; 0x44c
 1005ef6:	f012 0f01 	tst.w	r2, #1
 1005efa:	d007      	beq.n	0x1005f0c
 1005efc:	f8d0 244c 	ldr.w	r2, [r0, #1100]	; 0x44c
 1005f00:	f441 3100 	orr.w	r1, r1, #131072	; 0x20000
 1005f04:	f042 0201 	orr.w	r2, r2, #1
 1005f08:	f8c0 244c 	str.w	r2, [r0, #1100]	; 0x44c
 1005f0c:	4608      	mov	r0, r1
 1005f0e:	4770      	bx	lr
--
 1005f2a:	f881 240c 	strb.w	r2, [r1, #1036]	; 0x40c
 1005f2e:	493f      	ldr	r1, [pc, #252]	; (0x100602c)
 1005f30:	f8d1 244c 	ldr.w	r2, [r1, #1100]	; 0x44c
 1005f34:	f012 0f01 	tst.w	r2, #1
 1005f38:	bf08      	it	eq
 1005f3a:	4770      	bxeq	lr
 1005f3c:	f440 7000 	orr.w	r0, r0, #512	; 0x200
 1005f40:	f8d1 244c 	ldr.w	r2, [r1, #1100]	; 0x44c
 1005f44:	f042 0201 	orr.w	r2, r2, #1
 1005f48:	f8c1 244c 	str.w	r2, [r1, #1100]	; 0x44c
 1005f4c:	4770      	bx	lr
--
 1005f4e:	8841      	ldrh	r1, [r0, #2]
 1005f50:	8880      	ldrh	r0, [r0, #4]
 1005f52:	ea41 4000 	orr.w	r0, r1, r0, lsl #16
 1005f56:	4770      	bx	lr
--
 1005f58:	f890 0060 	ldrb.w	r0, [r0, #96]	; 0x60
 1005f5c:	f000 009d 	and.w	r0, r0, #157	; 0x9d
 1005f60:	4770      	bx	lr
--
 1005f62:	2007      	movs	r0, #7
 1005f64:	4770      	bx	lr
--
 1005f66:	2900      	cmp	r1, #0
 1005f68:	f890 1060 	ldrb.w	r1, [r0, #96]	; 0x60
 1005f6c:	bf14      	ite	ne
 1005f6e:	f041 0102 	orrne.w	r1, r1, #2
 1005f72:	f021 0102 	biceq.w	r1, r1, #2
 1005f76:	f880 1060 	strb.w	r1, [r0, #96]	; 0x60
 1005f7a:	4770      	bx	lr
--
 1005f7c:	2100      	movs	r1, #0
 1005f7e:	f880 141c 	strb.w	r1, [r0, #1052]	; 0x41c
 1005f82:	4770      	bx	lr
--
 1005f84:	7841      	ldrb	r1, [r0, #1]
 1005f86:	f041 0101 	orr.w	r1, r1, #1
 1005f8a:	7041      	strb	r1, [r0, #1]
 1005f8c:	4770      	bx	lr
--
 1005f8e:	7841      	ldrb	r1, [r0, #1]
 1005f90:	f021 0101 	bic.w	r1, r1, #1
 1005f94:	7041      	strb	r1, [r0, #1]
 1005f96:	4770      	bx	lr
--
 1005f98:	6880      	ldr	r0, [r0, #8]
 1005f9a:	f000 0001 	and.w	r0, r0, #1
 1005f9e:	4770      	bx	lr
--
 1005fa0:	6881      	ldr	r1, [r0, #8]
 1005fa2:	f041 0101 	orr.w	r1, r1, #1
 1005fa6:	6081      	str	r1, [r0, #8]
 1005fa8:	4770      	bx	lr
--
 1005faa:	6881      	ldr	r1, [r0, #8]
 1005fac:	f041 0102 	orr.w	r1, r1, #2
 1005fb0:	6081      	str	r1, [r0, #8]
 1005fb2:	4770      	bx	lr
--
 1005fb4:	6881      	ldr	r1, [r0, #8]
 1005fb6:	f021 0102 	bic.w	r1, r1, #2
 1005fba:	6081      	str	r1, [r0, #8]
 1005fbc:	4770      	bx	lr
--
 1005fbe:	2101      	movs	r1, #1
 1005fc0:	f8c0 1c00 	str.w	r1, [r0, #3072]	; 0xc00
 1005fc4:	4770      	bx	lr
--
 1005fc6:	491a      	ldr	r1, [pc, #104]	; (0x1006030)
 1005fc8:	f8c0 1c00 	str.w	r1, [r0, #3072]	; 0xc00
 1005fcc:	4770      	bx	lr
--
 1005fce:	f8d0 0c00 	ldr.w	r0, [r0, #3072]	; 0xc00
 1005fd2:	2801      	cmp	r0, #1
 1005fd4:	bf18      	it	ne
 1005fd6:	2000      	movne	r0, #0
 1005fd8:	4770      	bx	lr
--
 1005fda:	6001      	str	r1, [r0, #0]
 1005fdc:	4770      	bx	lr
--
 1005fde:	6800      	ldr	r0, [r0, #0]
 1005fe0:	4770      	bx	lr
--
 1005fe2:	6840      	ldr	r0, [r0, #4]
 1005fe4:	4770      	bx	lr
--
 1005fe6:	6881      	ldr	r1, [r0, #8]
 1005fe8:	f041 0101 	orr.w	r1, r1, #1
 1005fec:	6081      	str	r1, [r0, #8]
 1005fee:	4770      	bx	lr
--
 1005ff0:	2900      	cmp	r1, #0
 1005ff2:	bf14      	ite	ne
 1005ff4:	6940      	ldrne	r0, [r0, #20]
 1005ff6:	6900      	ldreq	r0, [r0, #16]
 1005ff8:	4770      	bx	lr
--
 1005ffa:	2101      	movs	r1, #1
 1005ffc:	60c1      	str	r1, [r0, #12]
 1005ffe:	4770      	bx	lr
--
 1006000:	f8d0 1418 	ldr.w	r1, [r0, #1048]	; 0x418
 1006004:	f441 7180 	orr.w	r1, r1, #256	; 0x100
 1006008:	f8c0 1418 	str.w	r1, [r0, #1048]	; 0x418
 100600c:	4770      	bx	lr
--
 100600e:	f8d0 1418 	ldr.w	r1, [r0, #1048]	; 0x418
 1006012:	f421 7180 	bic.w	r1, r1, #256	; 0x100
 1006016:	f8c0 1418 	str.w	r1, [r0, #1048]	; 0x418
 100601a:	4770      	bx	lr
--
 100601c:	6882      	ldr	r2, [r0, #8]
 100601e:	f022 0204 	bic.w	r2, r2, #4
 1006022:	4311      	orrs	r1, r2
 1006024:	6081      	str	r1, [r0, #8]
 1006026:	4770      	bx	lr
--
 1006040:	bf28      	it	cs
 1006042:	4770      	bxcs	lr
 1006044:	f04f 20e0 	mov.w	r0, #3758153728	; 0xe000e000
 1006048:	6981      	ldr	r1, [r0, #24]
 100604a:	6810      	ldr	r0, [r2, #0]
 100604c:	4b52      	ldr	r3, [pc, #328]	; (0x1006198)
 100604e:	eb03 0380 	add.w	r3, r3, r0, lsl #2
 1006052:	1c40      	adds	r0, r0, #1
 1006054:	6010      	str	r0, [r2, #0]
 1006056:	6019      	str	r1, [r3, #0]
 1006058:	4770      	bx	lr
--
 10061a2:	4000      	ands	r0, r0
 10061a4:	8000      	strh	r0, [r0, #0]
 10061a6:	4000      	ands	r0, r0
 10061a8:	0000      	movs	r0, r0
 10061aa:	4002      	ands	r2, r0
 10061ac:	6801      	ldr	r1, [r0, #0]
 10061ae:	78c0      	ldrb	r0, [r0, #3]
 10061b0:	ba09      	rev	r1, r1
 10061b2:	f021 01ff 	bic.w	r1, r1, #255	; 0xff
 10061b6:	4308      	orrs	r0, r1
 10061b8:	4770      	bx	lr
--
 10062c6:	2b02      	cmp	r3, #2
 10062c8:	d202      	bcs.n	0x10062d0
 10062ca:	2a00      	cmp	r2, #0
 10062cc:	d1f2      	bne.n	0x10062b4
 10062ce:	e003      	b.n	0x10062d8
 10062d0:	b112      	cbz	r2, 0x10062d8
 10062d2:	bc30      	pop	{r4, r5}
 10062d4:	f7fb bd45 	b.w	0x1001d62
 10062d8:	bc30      	pop	{r4, r5}
 10062da:	2000      	movs	r0, #0
 10062dc:	4770      	bx	lr
--
 10063c0:	1c68      	adds	r0, r5, #1
 10063c2:	f7ff fef3 	bl	0x10061ac
 10063c6:	60e0      	str	r0, [r4, #12]
 10063c8:	f7fe fb8c 	bl	0x1004ae4
 10063cc:	68e1      	ldr	r1, [r4, #12]
 10063ce:	4281      	cmp	r1, r0
 10063d0:	bf28      	it	cs
 10063d2:	f884 8000 	strbcs.w	r8, [r4]
 10063d6:	d298      	bcs.n	0x100630a
 10063d8:	6860      	ldr	r0, [r4, #4]
 10063da:	4780      	blx	r0
--
 10063ea:	6441      	str	r1, [r0, #68]	; 0x44
 10063ec:	2103      	movs	r1, #3
 10063ee:	6481      	str	r1, [r0, #72]	; 0x48
 10063f0:	f8c0 9044 	str.w	r9, [r0, #68]	; 0x44
 10063f4:	f8c0 9048 	str.w	r9, [r0, #72]	; 0x48
 10063f8:	f04f 25e0 	mov.w	r5, #3758153728	; 0xe000e000
 10063fc:	f8c5 9010 	str.w	r9, [r5, #16]
 1006400:	f8c5 9014 	str.w	r9, [r5, #20]
 1006404:	f8c5 9018 	str.w	r9, [r5, #24]
 1006408:	68e0      	ldr	r0, [r4, #12]
 100640a:	4780      	blx	r0
--
 100645e:	2800      	cmp	r0, #0
 1006460:	d1ee      	bne.n	0x1006440
 1006462:	e7a2      	b.n	0x10063aa
 1006464:	f000 f890 	bl	0x1006588
 1006468:	2101      	movs	r1, #1
 100646a:	480a      	ldr	r0, [pc, #40]	; (0x1006494)
 100646c:	f000 f8c6 	bl	0x10065fc
 1006470:	e74b      	b.n	0x100630a
 1006472:	f000 f889 	bl	0x1006588
 1006476:	6860      	ldr	r0, [r4, #4]
 1006478:	4780      	blx	r0
--
 10064ac:	bf14      	ite	ne
 10064ae:	4a2b      	ldrne	r2, [pc, #172]	; (0x100655c)
 10064b0:	4770      	bxeq	lr
 10064b2:	f8d2 3804 	ldr.w	r3, [r2, #2052]	; 0x804
 10064b6:	f013 0f02 	tst.w	r3, #2
 10064ba:	d0fa      	beq.n	0x10064b2
 10064bc:	f810 3b01 	ldrb.w	r3, [r0], #1
 10064c0:	f8c2 3808 	str.w	r3, [r2, #2056]	; 0x808
 10064c4:	1e49      	subs	r1, r1, #1
 10064c6:	d2f4      	bcs.n	0x10064b2
 10064c8:	4770      	bx	lr
--
 10064ca:	4824      	ldr	r0, [pc, #144]	; (0x100655c)
 10064cc:	6841      	ldr	r1, [r0, #4]
 10064ce:	f011 0f40 	tst.w	r1, #64	; 0x40
 10064d2:	d1fb      	bne.n	0x10064cc
 10064d4:	4770      	bx	lr
--
 10064da:	bf14      	ite	ne
 10064dc:	4a1f      	ldrne	r2, [pc, #124]	; (0x100655c)
 10064de:	4770      	bxeq	lr
 10064e0:	f8d2 3804 	ldr.w	r3, [r2, #2052]	; 0x804
 10064e4:	f013 0f01 	tst.w	r3, #1
 10064e8:	d0fa      	beq.n	0x10064e0
 10064ea:	f8d2 3808 	ldr.w	r3, [r2, #2056]	; 0x808
 10064ee:	f800 3b01 	strb.w	r3, [r0], #1
 10064f2:	1e49      	subs	r1, r1, #1
 10064f4:	d2f4      	bcs.n	0x10064e0
 10064f6:	4770      	bx	lr
--
 1006540:	bd10      	pop	{r4, pc}
 1006542:	f2af 009b 	subw	r0, pc, #155	; 0x9b
 1006546:	4907      	ldr	r1, [pc, #28]	; (0x1006564)
 1006548:	6008      	str	r0, [r1, #0]
 100654a:	f2af 0075 	subw	r0, pc, #117	; 0x75
 100654e:	4906      	ldr	r1, [pc, #24]	; (0x1006568)
 1006550:	6008      	str	r0, [r1, #0]
 1006552:	f2af 0089 	subw	r0, pc, #137	; 0x89
 1006556:	4905      	ldr	r1, [pc, #20]	; (0x100656c)
 1006558:	6008      	str	r0, [r1, #0]
 100655a:	4770      	bx	lr
--
 1006570:	2300      	movs	r3, #0
 1006572:	461a      	mov	r2, r3
 1006574:	2900      	cmp	r1, #0
 1006576:	d905      	bls.n	0x1006584
 1006578:	f810 c002 	ldrb.w	ip, [r0, r2]
 100657c:	1c52      	adds	r2, r2, #1
 100657e:	4463      	add	r3, ip
 1006580:	4291      	cmp	r1, r2
 1006582:	d8f9      	bhi.n	0x1006578
 1006584:	b2d8      	uxtb	r0, r3
 1006586:	4770      	bx	lr
--
 1006588:	4a34      	ldr	r2, [pc, #208]	; (0x100665c)
 100658a:	2102      	movs	r1, #2
 100658c:	4832      	ldr	r0, [pc, #200]	; (0x1006658)
 100658e:	6812      	ldr	r2, [r2, #0]
 1006590:	4710      	bx	r2
--
 1006592:	b570      	push	{r4, r5, r6, lr}
 1006594:	b082      	sub	sp, #8
 1006596:	4606      	mov	r6, r0
 1006598:	2000      	movs	r0, #0
 100659a:	4c31      	ldr	r4, [pc, #196]	; (0x1006660)
 100659c:	460d      	mov	r5, r1
 100659e:	f88d 0000 	strb.w	r0, [sp]
 10065a2:	6822      	ldr	r2, [r4, #0]
 10065a4:	2101      	movs	r1, #1
 10065a6:	4668      	mov	r0, sp
 10065a8:	4790      	blx	r2
--
 10065aa:	f89d 2000 	ldrb.w	r2, [sp]
 10065ae:	2a00      	cmp	r2, #0
 10065b0:	d0f7      	beq.n	0x10065a2
 10065b2:	b2d0      	uxtb	r0, r2
 10065b4:	1e80      	subs	r0, r0, #2
 10065b6:	f88d 0000 	strb.w	r0, [sp]
 10065ba:	6822      	ldr	r2, [r4, #0]
 10065bc:	2101      	movs	r1, #1
 10065be:	a801      	add	r0, sp, #4
 10065c0:	4790      	blx	r2
--
 10065c2:	6822      	ldr	r2, [r4, #0]
 10065c4:	f89d 1000 	ldrb.w	r1, [sp]
 10065c8:	4630      	mov	r0, r6
 10065ca:	4790      	blx	r2
--
 10065cc:	f89d 1000 	ldrb.w	r1, [sp]
 10065d0:	4630      	mov	r0, r6
 10065d2:	f7ff ffcd 	bl	0x1006570
 10065d6:	f89d 1004 	ldrb.w	r1, [sp, #4]
 10065da:	4288      	cmp	r0, r1
 10065dc:	d008      	beq.n	0x10065f0
 10065de:	4a1f      	ldr	r2, [pc, #124]	; (0x100665c)
 10065e0:	2102      	movs	r1, #2
 10065e2:	4820      	ldr	r0, [pc, #128]	; (0x1006664)
 10065e4:	6812      	ldr	r2, [r2, #0]
 10065e6:	4790      	blx	r2
--
 1006602:	9902      	ldr	r1, [sp, #8]
 1006604:	f7ff ffb4 	bl	0x1006570
 1006608:	f88d 0000 	strb.w	r0, [sp]
 100660c:	9802      	ldr	r0, [sp, #8]
 100660e:	4c13      	ldr	r4, [pc, #76]	; (0x100665c)
 1006610:	1c80      	adds	r0, r0, #2
 1006612:	9002      	str	r0, [sp, #8]
 1006614:	6822      	ldr	r2, [r4, #0]
 1006616:	2101      	movs	r1, #1
 1006618:	a802      	add	r0, sp, #8
 100661a:	4790      	blx	r2
--
 100661c:	6822      	ldr	r2, [r4, #0]
 100661e:	2101      	movs	r1, #1
 1006620:	4668      	mov	r0, sp
 1006622:	4790      	blx	r2
--
 1006624:	9802      	ldr	r0, [sp, #8]
 1006626:	6822      	ldr	r2, [r4, #0]
 1006628:	1e81      	subs	r1, r0, #2
 100662a:	4628      	mov	r0, r5
 100662c:	4790      	blx	r2
--
 100662e:	2000      	movs	r0, #0
 1006630:	4c0b      	ldr	r4, [pc, #44]	; (0x1006660)
 1006632:	f88d 0000 	strb.w	r0, [sp]
 1006636:	2101      	movs	r1, #1
 1006638:	6822      	ldr	r2, [r4, #0]
 100663a:	4668      	mov	r0, sp
 100663c:	4790      	blx	r2
--
 100667a:	f8d4 00fc 	ldr.w	r0, [r4, #252]	; 0xfc
 100667e:	f400 2570 	and.w	r5, r0, #983040	; 0xf0000
 1006682:	f8d4 00fc 	ldr.w	r0, [r4, #252]	; 0xfc
 1006686:	f440 2070 	orr.w	r0, r0, #983040	; 0xf0000
 100668a:	f8c4 00fc 	str.w	r0, [r4, #252]	; 0xfc
 100668e:	f04f 7004 	mov.w	r0, #34603008	; 0x2100000
 1006692:	aa02      	add	r2, sp, #8
 1006694:	6ac3      	ldr	r3, [r0, #44]	; 0x2c
 1006696:	4669      	mov	r1, sp
 1006698:	a801      	add	r0, sp, #4
 100669a:	4798      	blx	r3
--
 10066fa:	d1f9      	bne.n	0x10066f0
 10066fc:	b002      	add	sp, #8
 10066fe:	bd70      	pop	{r4, r5, r6, pc}
 1006700:	482b      	ldr	r0, [pc, #172]	; (0x10067b0)
 1006702:	68c1      	ldr	r1, [r0, #12]
 1006704:	2900      	cmp	r1, #0
 1006706:	d0fc      	beq.n	0x1006702
 1006708:	68c1      	ldr	r1, [r0, #12]
 100670a:	f011 0f10 	tst.w	r1, #16
 100670e:	d1fb      	bne.n	0x1006708
 1006710:	4770      	bx	lr
--
 100671a:	bf38      	it	cc
 100671c:	4770      	bxcc	lr
 100671e:	f8d2 c00c 	ldr.w	ip, [r2, #12]
 1006722:	f01c 0f04 	tst.w	ip, #4
 1006726:	d0fa      	beq.n	0x100671e
 1006728:	f8d2 c008 	ldr.w	ip, [r2, #8]
 100672c:	f800 cb01 	strb.w	ip, [r0], #1
 1006730:	6093      	str	r3, [r2, #8]
 1006732:	1e49      	subs	r1, r1, #1
 1006734:	d2f3      	bcs.n	0x100671e
 1006736:	4770      	bx	lr
--
 10067ec:	f010 0f08 	tst.w	r0, #8
 10067f0:	d1fb      	bne.n	0x10067ea
 10067f2:	e8bd 81f0 	ldmia.w	sp!, {r4, r5, r6, r7, r8, pc}
 10067f6:	482f      	ldr	r0, [pc, #188]	; (0x10068b4)
 10067f8:	6981      	ldr	r1, [r0, #24]
 10067fa:	f011 0f80 	tst.w	r1, #128	; 0x80
 10067fe:	d0fb      	beq.n	0x10067f8
 1006800:	6981      	ldr	r1, [r0, #24]
 1006802:	f011 0f08 	tst.w	r1, #8
 1006806:	d1fb      	bne.n	0x1006800
 1006808:	4770      	bx	lr
--
 10068e2:	f44f 5080 	mov.w	r0, #4096	; 0x1000
 10068e6:	6008      	str	r0, [r1, #0]
 10068e8:	bd10      	pop	{r4, pc}
 10068ea:	4bf5      	ldr	r3, [pc, #980]	; (0x1006cc0)
 10068ec:	2202      	movs	r2, #2
 10068ee:	609a      	str	r2, [r3, #8]
 10068f0:	f103 0284 	add.w	r2, r3, #132	; 0x84
 10068f4:	6090      	str	r0, [r2, #8]
 10068f6:	6111      	str	r1, [r2, #16]
 10068f8:	60d1      	str	r1, [r2, #12]
 10068fa:	4770      	bx	lr
--
 100697a:	2942      	cmp	r1, #66	; 0x42
 100697c:	d00b      	beq.n	0x1006996
 100697e:	49d0      	ldr	r1, [pc, #832]	; (0x1006cc0)
 1006980:	4ad0      	ldr	r2, [pc, #832]	; (0x1006cc4)
 1006982:	690b      	ldr	r3, [r1, #16]
 1006984:	f852 3023 	ldr.w	r3, [r2, r3, lsl #2]
 1006988:	b15b      	cbz	r3, 0x10069a2
 100698a:	6909      	ldr	r1, [r1, #16]
 100698c:	f852 1021 	ldr.w	r1, [r2, r1, lsl #2]
 1006990:	e8bd 4010 	ldmia.w	sp!, {r4, lr}
 1006994:	4708      	bx	r1
--
 10069e0:	4620      	mov	r0, r4
 10069e2:	f7ff ffc8 	bl	0x1006976
 10069e6:	bd38      	pop	{r3, r4, r5, pc}
 10069e8:	7860      	ldrb	r0, [r4, #1]
 10069ea:	280c      	cmp	r0, #12
 10069ec:	d206      	bcs.n	0x10069fc
 10069ee:	49b8      	ldr	r1, [pc, #736]	; (0x1006cd0)
 10069f0:	f851 1020 	ldr.w	r1, [r1, r0, lsl #2]
 10069f4:	b111      	cbz	r1, 0x10069fc
 10069f6:	4620      	mov	r0, r4
 10069f8:	4788      	blx	r1
--
 1006a04:	49b3      	ldr	r1, [pc, #716]	; (0x1006cd4)
 1006a06:	68c9      	ldr	r1, [r1, #12]
 1006a08:	4288      	cmp	r0, r1
 1006a0a:	bf9c      	itt	ls
 1006a0c:	2001      	movls	r0, #1
 1006a0e:	4770      	bxls	lr
 1006a10:	2008      	movs	r0, #8
 1006a12:	49ab      	ldr	r1, [pc, #684]	; (0x1006cc0)
 1006a14:	6148      	str	r0, [r1, #20]
 1006a16:	2000      	movs	r0, #0
 1006a18:	4770      	bx	lr
--
 1006d00:	4770      	bxeq	lr
 1006d02:	2001      	movs	r0, #1
 1006d04:	49f3      	ldr	r1, [pc, #972]	; (0x10070d4)
 1006d06:	4af3      	ldr	r2, [pc, #972]	; (0x10070d4)
 1006d08:	f001 4170 	and.w	r1, r1, #4026531840	; 0xf0000000
 1006d0c:	f3c2 0213 	ubfx	r2, r2, #0, #20
 1006d10:	ea41 1142 	orr.w	r1, r1, r2, lsl #5
 1006d14:	f041 0108 	orr.w	r1, r1, #8
 1006d18:	f041 7100 	orr.w	r1, r1, #33554432	; 0x2000000
 1006d1c:	6008      	str	r0, [r1, #0]
 1006d1e:	4770      	bx	lr
--
 1006d6a:	6141      	str	r1, [r0, #20]
 1006d6c:	2201      	movs	r2, #1
 1006d6e:	70c2      	strb	r2, [r0, #3]
 1006d70:	f100 0234 	add.w	r2, r0, #52	; 0x34
 1006d74:	6011      	str	r1, [r2, #0]
 1006d76:	3098      	adds	r0, #152	; 0x98
 1006d78:	68c0      	ldr	r0, [r0, #12]
 1006d7a:	6050      	str	r0, [r2, #4]
 1006d7c:	3a08      	subs	r2, #8
 1006d7e:	e9c2 1000 	strd	r1, r0, [r2]
 1006d82:	4770      	bx	lr
--
 1006df2:	f1bc 0f00 	cmp.w	ip, #0
 1006df6:	bf08      	it	eq
 1006df8:	4620      	moveq	r0, r4
 1006dfa:	45b4      	cmp	ip, r6
 1006dfc:	d105      	bne.n	0x1006e0a
 1006dfe:	7821      	ldrb	r1, [r4, #0]
 1006e00:	2902      	cmp	r1, #2
 1006e02:	bf18      	it	ne
 1006e04:	4620      	movne	r0, r4
 1006e06:	bc70      	pop	{r4, r5, r6}
 1006e08:	4770      	bx	lr
--
 1006e0c:	2b03      	cmp	r3, #3
 1006e0e:	4414      	add	r4, r2
 1006e10:	bfa6      	itte	ge
 1006e12:	2301      	movge	r3, #1
 1006e14:	f10c 0c01 	addge.w	ip, ip, #1
 1006e18:	1c5b      	addlt	r3, r3, #1
 1006e1a:	45ac      	cmp	ip, r5
 1006e1c:	dbe7      	blt.n	0x1006dee
 1006e1e:	bc70      	pop	{r4, r5, r6}
 1006e20:	2000      	movs	r0, #0
 1006e22:	4770      	bx	lr
--
 1006eb6:	2101      	movs	r1, #1
 1006eb8:	60c1      	str	r1, [r0, #12]
 1006eba:	f8c0 d008 	str.w	sp, [r0, #8]
 1006ebe:	f7ff fd1d 	bl	0x10068fc
 1006ec2:	bd08      	pop	{r3, pc}
 1006ec4:	4882      	ldr	r0, [pc, #520]	; (0x10070d0)
 1006ec6:	2102      	movs	r1, #2
 1006ec8:	6101      	str	r1, [r0, #16]
 1006eca:	2100      	movs	r1, #0
 1006ecc:	6141      	str	r1, [r0, #20]
 1006ece:	4770      	bx	lr
--
 1006f32:	2800      	cmpeq	r0, #0
 1006f34:	d000      	beq.n	0x1006f38
 1006f36:	e514      	b.n	0x1006962
 1006f38:	2201      	movs	r2, #1
 1006f3a:	2100      	movs	r1, #0
 1006f3c:	4867      	ldr	r0, [pc, #412]	; (0x10070dc)
 1006f3e:	f7fe bc1d 	b.w	0x100577c
 1006f42:	4963      	ldr	r1, [pc, #396]	; (0x10070d0)
 1006f44:	2000      	movs	r0, #0
 1006f46:	70c8      	strb	r0, [r1, #3]
 1006f48:	4770      	bx	lr
--
 10073b4:	2812      	cmp	r0, #18
 10073b6:	d3fa      	bcc.n	0x10073ae
 10073b8:	4a60      	ldr	r2, [pc, #384]	; (0x100753c)
 10073ba:	4961      	ldr	r1, [pc, #388]	; (0x1007540)
 10073bc:	2000      	movs	r0, #0
 10073be:	5c13      	ldrb	r3, [r2, r0]
 10073c0:	540b      	strb	r3, [r1, r0]
 10073c2:	1c40      	adds	r0, r0, #1
 10073c4:	281b      	cmp	r0, #27
 10073c6:	d3fa      	bcc.n	0x10073be
 10073c8:	4770      	bx	lr
--
 10073e8:	f7fa fb61 	bl	0x1001aae
 10073ec:	f7ff ffa5 	bl	0x100733a
 10073f0:	6f20      	ldr	r0, [r4, #112]	; 0x70
 10073f2:	f420 4080 	bic.w	r0, r0, #16384	; 0x4000
 10073f6:	6720      	str	r0, [r4, #112]	; 0x70
 10073f8:	e8bd 4010 	ldmia.w	sp!, {r4, lr}
 10073fc:	f7ff ba64 	b.w	0x10068c8
 1007400:	f2af 10ef 	subw	r0, pc, #495	; 0x1ef
 1007404:	4951      	ldr	r1, [pc, #324]	; (0x100754c)
 1007406:	6008      	str	r0, [r1, #0]
 1007408:	4770      	bx	lr
--
 10075a0:	2000      	movs	r0, #0
 10075a2:	e8bd 9ff0 	ldmia.w	sp!, {r4, r5, r6, r7, r8, r9, sl, fp, ip, pc}
 10075a6:	0000      	movs	r0, r0
 10075a8:	86aa      	strh	r2, [r5, #52]	; 0x34
 10075aa:	0100      	lsls	r0, r0, #4
 10075ac:	86a0      	strh	r0, [r4, #52]	; 0x34
 10075ae:	0100      	lsls	r0, r0, #4
 10075b0:	3811      	subs	r0, #17
 10075b2:	0780      	lsls	r0, r0, #30
 10075b4:	bf30      	wfi
 10075b6:	4770      	bx	lr
--
 10075b8:	f3ef 8010 	mrs	r0, PRIMASK
 10075bc:	b672      	cpsid	i
 10075be:	4770      	bx	lr
--
 10075c0:	f3ef 8010 	mrs	r0, PRIMASK
 10075c4:	b662      	cpsie	i
 10075c6:	4770      	bx	lr
--
 10075c8:	f3ef 8011 	mrs	r0, BASEPRI
 10075cc:	4770      	bx	lr
--
 10075ce:	0000      	movs	r0, r0
 10075d0:	f380 8811 	msr	BASEPRI, r0
 10075d4:	4770      	bx	lr
--
 10076a6:	4443      	add	r3, r8
 10076a8:	1e19      	subs	r1, r3, #0
 10076aa:	1017      	asrs	r7, r2, #32
 10076ac:	0205      	lsls	r5, r0, #8
 10076ae:	0c0b      	lsrs	r3, r1, #16
 10076b0:	2621      	movs	r6, #33	; 0x21
 10076b2:	282f      	cmp	r0, #47	; 0x2f
 10076b4:	3a3d      	subs	r2, #61	; 0x3d
 10076b6:	3433      	adds	r4, #51	; 0x33
 10076b8:	494e      	ldr	r1, [pc, #312]	; (0x10077f4)
 10076ba:	4740      	bx	r8
--
 10078ce:	4f40      	ldr	r7, [pc, #256]	; (0x10079d0)
 10078d0:	8d01      	ldrh	r1, [r0, #40]	; 0x28
 10078d2:	4dc0      	ldr	r5, [pc, #768]	; (0x1007bd4)
 10078d4:	4c80      	ldr	r4, [pc, #512]	; (0x1007ad8)
 10078d6:	8c41      	ldrh	r1, [r0, #34]	; 0x22
 10078d8:	4400      	add	r0, r0
 10078da:	84c1      	strh	r1, [r0, #38]	; 0x26
 10078dc:	8581      	strh	r1, [r0, #44]	; 0x2c
 10078de:	4540      	cmp	r0, r8
 10078e0:	8701      	strh	r1, [r0, #56]	; 0x38
 10078e2:	47c0      	blx	r8
--
 1007f9c:	4488      	add	r8, r1
 1007f9e:	cc44      	ldmia	r4!, {r2, r6}
 1007fa0:	172e      	asrs	r6, r5, #28
 1007fa2:	3917      	subs	r1, #23
 1007fa4:	c493      	stmia	r4!, {r0, r1, r4, r7}
 1007fa6:	57c4      	ldrsb	r4, [r0, r7]
 1007fa8:	a755      	add	r7, pc, #340	; (adr r7, 0x1008100)
 1007faa:	f2a7 7efc 	subw	lr, r7, #2044	; 0x7fc
 1007fae:	827e      	strh	r6, [r7, #18]
 1007fb0:	3d7a      	subs	r5, #122	; 0x7a
 1007fb2:	473d      	bx	r7
--
 10083f0:	d967      	bls.n	0x10084c2
 10083f2:	779e      	strb	r6, [r3, #30]
 10083f4:	e8b0 bd42 	ldmia.w	r0!, {r1, r6, r8, sl, fp, ip, sp, pc}
 10083f8:	8907      	ldrh	r7, [r0, #8]
 10083fa:	888b      	ldrh	r3, [r1, #4]
 10083fc:	19e7      	adds	r7, r4, r7
 10083fe:	385b      	subs	r0, #91	; 0x5b
 1008400:	c879      	ldmia	r0, {r0, r3, r4, r5, r6}
 1008402:	dbee      	blt.n	0x10083e2
 1008404:	7ca1      	ldrb	r1, [r4, #18]
 1008406:	470a      	bx	r1
